56028851.lst - generated by MGTEK Assembler ASM11 V1.26 Build 144 for WIN32 (x86) - Thu Dec 23 16:06:45 2021

    1:                                 ;
    2:                                 ; Data_start: address defines where the EPROM begins, in the
    3:                                 ; memory map, 4 and 6 cylinder ECU's this should be set to
    4:                                 ; $8000, for 8 cylinder ECU's this should be set to $2000.
    5:                                 ;
    6:          =00008000              Data_start equ $8000
    7:                                 ;
    8:                                 ; Code_start: address defines where the executable code begins,
    9:                                 ; 4 and 6 cylinder ECU's this is set to $9400, 8 cylinder ECU's
   10:                                 ; this is set to $4000.
   11:                                 ;
   12:                                  IF Data_start == $2000
   14:                                  ELIF Data_start == $8000
   15:          =00009400              Code_start equ $9400
   16:                                  ENDIF
   17:                                 ;
   18:                                 ; this setting defines where the 68HC11 internal EEPROM
   19:                                 ; is located in the memory map, this setting should remain
   20:                                 ; at $B600, unless you have changed the memory map.
   21:                                 ;
   22:          =0000B600              MCU_eeprom equ $B600
   23:                                 ;
   24:                                 ; null bytes for 64k EEPROM
   25:                                 ;
   26:     0000 +8000                   DCB.B Data_start, $00
   27:                                 ;
   28:                                 #include defines.inc
    1:          =00000000              ATX                     equ %00000000
    2:          =00000001              MTX                     equ %00000001
    3:          =00000000              Ram_00                                             equ $0000
    4:          =00000001              Ram_01                                             equ $0001
    5:          =00000002              Ram_02                                             equ $0002
    6:          =00000003              MinimumTimerCountBeforeMainloopCanContinue         equ $0003
    7:          =00000004              Ram_04                                             equ $0004
    8:          =00000005              Ram_05                                             equ $0005
    9:          =00000006              LowestSessionTpsVolts                              equ $0006
   10:          =00000007              BitFlags36_t3                                      equ $0007
   11:          =00000080              b7_7_bt7                equ %10000000
   12:          =00000040              b6_7_UseAIS             equ %01000000
   13:          =00000020              b5_7_bt5                equ %00100000
   14:          =00000010              b4_7_bt4                equ %00010000
   15:          =00000008              b3_7_bt3                equ %00001000
   16:          =00000004              b2_7_bt2                equ %00000100
   17:          =00000002              b1_7_bt1                equ %00000010
   18:          =00000001              b0_7_bt0                equ %00000001
   19:          =00000008              CurrentAisPosition                                 equ $0008
   20:          =00000009              Timer_DacalCountdown                               equ $0009
   21:          =0000000A              ValueFromAdaptiveMemory                            equ $000A
   22:          =0000000B              Ram_0B                                             equ $000B
   23:          =0000000C              Ram_0C                                             equ $000C
   24:          =0000000D              BaroPressure                                       equ $000D
   25:          =0000000E              Counter_SpeedSensorInterrupt_HB                    equ $000E
   26:          =0000000F              Counter_SpeedSensorInterrupt_LB                    equ $000F
   27:          =00000010              BitFlags_36_t3                                     equ $0010
   28:          =00000080              b7_10_bt7               equ %10000000
   29:          =00000040              b6_10_UseAis            equ %01000000
   30:          =00000020              b5_10_a10b8             equ %00100000
   31:          =00000010              b4_10_AsdOn             equ %00010000
   32:          =00000008              b3_10_bt3               equ %00001000
   33:          =00000004              b2_10_bt2               equ %00000100
   34:          =00000002              b1_10_AIS1              equ %00000010
   35:          =00000001              b0_10_AIS0              equ %00000001
   36:          =00000011              Ram_11                                             equ $0011
   37:          =00000012              L002F_t3                                           equ $0012
   38:          =00000013              Ram_13                                             equ $0013
   39:          =00000014              CruiseControlVarT1                                 equ $0014
   40:          =00000015              ErrorBitRegister0                                  equ $0015
   41:          =00000016              ErrorBitRegister1                                  equ $0016
   42:          =00000017              ErrorBitRegister2                                  equ $0017
   43:          =00000018              ErrorBitRegister3                                  equ $0018
   44:          =00000019              ErrorBitRegisterStored0                            equ $0019
   45:          =0000001A              ErrorBitRegisterStored1                            equ $001A
   46:          =0000001B              ErrorBitRegisterStored2                            equ $001B
   47:          =0000001C              ErrorBitRegisterStored3                            equ $001C
   48:          =0000001D              ErrorCodeUpdateKeyOnCount                          equ $001D
   49:          =0000001E              ErrorCodeUpdateKeyOnCount2                         equ $001E
   50:          =0000001F              ErrorCodeUpdateKeyOnCount3                         equ $001F
   51:          =00000020              IPL1                                               equ $0020
   52:          =00000080              b7_20_bt7                       equ %10000000
   53:          =00000040              b6_20_FuelEngineNotRunning      equ %01000000
   54:          =00000020              b5_20_bt5                       equ %00100000
   55:          =00000010              b4_20_bt4                       equ %00010000
   56:          =00000008              b3_20_bt3                       equ %00001000
   57:          =00000004              b2_20_bt2                       equ %00000100
   58:          =00000002              b1_20_bt1                       equ %00000010
   59:          =00000001              b0_20_SearchBladeEndRef_INSYNC  equ %00000001
   60:          =00000021              BitFlags21                                         equ $0021
   61:          =00000080              b7_21_DistSync          equ %10000000
   62:          =00000040              b6_21_a70b0             equ %01000000
   63:          =00000020              b5_21_a70b2             equ %00100000
   64:          =00000010              b4_21_a70b3             equ %00010000
   65:          =00000008              b3_21_bt3               equ %00001000
   66:          =00000004              b2_21_bt2               equ %00000100
   67:          =00000002              b1_21_bt1               equ %00000010
   68:          =00000001              b0_21_bt0               equ %00000001
   69:          =00000022              BitFlags66_t3                                      equ $0022
   70:          =00000080              b7_22_Offidle           equ %10000000
   71:          =00000040              b6_22_bt6               equ %01000000
   72:          =00000020              b5_22_AtIdle            equ %00100000
   73:          =00000010              b4_22_bt4               equ %00010000
   74:          =00000008              b3_22_a69b2             equ %00001000
   75:          =00000004              b2_22_FallToIdle        equ %00000100
   76:          =00000002              b1_22_bt1               equ %00000010
   77:          =00000001              b0_22_bt0               equ %00000001
   78:          =00000023              BitFlags23                                         equ $0023
   79:          =00000080              b7_23_bt7               equ %10000000
   80:          =00000040              b6_23_bt6               equ %01000000
   81:          =00000020              b5_23_bt5               equ %00100000
   82:          =00000010              b4_23_bt4               equ %00010000
   83:          =00000008              b3_23_bt3               equ %00001000
   84:          =00000004              b2_23_Past12SecRunning  equ %00000100
   85:          =00000002              b1_23_a6bb7             equ %00000010
   86:          =00000001              b0_23_a6bb6             equ %00000001
   87:          =00000024              BitFlags24                                         equ $0024
   88:          =00000080              b7_24_a6f               equ %10000000
   89:          =00000040              b6_24_bt6               equ %01000000
   90:          =00000020              b5_24_bt5               equ %00100000
   91:          =00000010              b4_24_BadSpeedo1        equ %00010000
   92:          =00000008              b3_24_BadSpeedo2        equ %00001000
   93:          =00000004              b2_24_BadASD            equ %00000100
   94:          =00000002              b1_24_AlternatorField   equ %00000010
   95:          =00000001              b0_24_AltBit1           equ %00000001
   96:          =00000025              BitFlags68_t3                                      equ $0025
   97:          =00000080              b7_25_ATXChgGear        equ %10000000
   98:          =00000040              b6_25_AcClutch          equ %01000000
   99:          =00000020              b5_25_bt5               equ %00100000
  100:          =00000010              b4_25_ATXInGear         equ %00010000
  101:          =00000008              b3_25_bt3               equ %00001000
  102:          =00000004              b2_25_AIS               equ %00000100
  103:          =00000002              b1_25_bt1               equ %00000010
  104:          =00000001              b0_25_bt0               equ %00000001
  105:          =00000026              BitFlags6a_t3                                      equ $0026
  106:          =00000080              b7_26_bt7               equ %10000000
  107:          =00000040              b6_26_drbToggle1        equ %01000000
  108:          =00000020              b5_26_drbToggle2        equ %00100000
  109:          =00000010              b4_26_bt4               equ %00010000
  110:          =00000008              b3_26_bt3               equ %00001000
  111:          =00000004              b2_26_bt2               equ %00000100
  112:          =00000002              b1_26_bt1               equ %00000010
  113:          =00000001              b0_26_bt0               equ %00000001
  114:          =00000027              BitFlags27                                         equ $0027
  115:          =00000080              b7_27_FuelEngNotRunning equ %10000000
  116:          =00000040              b6_27_bt6               equ %01000000
  117:          =00000020              b5_27_bt5               equ %00100000
  118:          =00000010              b4_27_bt4               equ %00010000
  119:          =00000008              b3_27_bt3               equ %00001000
  120:          =00000004              b2_27_bt2               equ %00000100
  121:          =00000002              b1_27_ATXInGear         equ %00000010
  122:          =00000001              b0_27_cfg_ATX           equ %00000001
  123:          =00000028              BitFlags6d_t3                                      equ $0028
  124:          =00000080              b7_28_bt7               equ %10000000
  125:          =00000040              b6_28_bt6               equ %01000000
  126:          =00000020              b5_28_bt5               equ %00100000
  127:          =00000010              b4_28_bt4               equ %00010000
  128:          =00000008              b3_28_bt3               equ %00001000
  129:          =00000004              b2_28_NeedSetup         equ %00000100
  130:          =00000002              b1_28_bt1               equ %00000010
  131:          =00000001              b0_28_InMotion          equ %00000001
  132:          =00000029              BitFlags29                                         equ $0029
  133:          =0000002A              BitFlags2a                                         equ $002A
  134:          =00000080              b7_2A_bt7               equ %10000000
  135:          =00000040              b6_2A_bt6               equ %01000000
  136:          =00000020              b5_2A_PTU_A             equ %00100000
  137:          =00000010              b4_2A_PTU_B             equ %00010000
  138:          =00000008              b3_2A_SpeedUnder40      equ %00001000
  139:          =00000004              b2_2A_bt2               equ %00000100
  140:          =00000002              b1_2A_bt1               equ %00000010
  141:          =00000001              b0_2A_bt0               equ %00000001
  142:          =0000002B              BitFlags2b                                         equ $002B
  143:          =0000002C              BitFlags2c                                         equ $002C
  144:          =0000002D              BitFlags2d                                         equ $002D
  145:          =00000080              b7_2D_bt7               equ %10000000
  146:          =00000040              b6_2D_bt6               equ %01000000
  147:          =00000020              b5_2D_bt5               equ %00100000
  148:          =00000010              b4_2D_a71b5             equ %00010000
  149:          =00000008              b3_2D_EMR_1             equ %00001000
  150:          =00000004              b2_2D_a6cb1             equ %00000100
  151:          =00000002              b1_2D_a6cb3             equ %00000010
  152:          =00000001              b0_2D_a6cb2             equ %00000001
  153:          =0000002E              BitFlags2e                                         equ $002E
  154:          =00000080              b7_2E_MapMaybe          equ %10000000
  155:          =00000040              b6_2E_bt6               equ %01000000
  156:          =00000020              b5_2E_bt5               equ %00100000
  157:          =00000010              b4_2E_bt4               equ %00010000
  158:          =00000008              b3_2E_bt3               equ %00001000
  159:          =00000004              b2_2E_EGRFault          equ %00000100
  160:          =00000002              b1_2E_bt1               equ %00000010
  161:          =00000001              b0_2E_a70b1             equ %00000001
  162:          =0000002F              BitFlags2f                                         equ $002F
  163:          =00000030              Ram_30                                             equ $0030
  164:          =00000031              CruiseStatus_1                                     equ $0031
  165:          =00000032              CruiseStatus_2                                     equ $0032
  166:          =00000033              Counter_Cruise_1                                   equ $0033
  167:          =00000034              Counter_TimerPastHalfwayBetweenCamPulses           equ $0034
  168:          =00000035              TimerOverflowsBetweenCamPulses                     equ $0035
  169:          =00000036              DistributorFallingEdgePulsewidth_HB                equ $0036
  170:          =00000037              DistributorFallingEdgePulsewidth_LB                equ $0037
  171:          =00000038              LastCamFallingEdgeTime                             equ $0038
  172:          =00000039              Ram_39                                             equ $0039
  173:          =0000003A              BitFlags_BF_t3                                     equ $003A
  174:          =0000003B              CylinderPointer                                    equ $003B
  175:          =0000003C              Counter_TimerRegHalfOverflowBetweenSpeedoPulses    equ $003C
  176:          =0000003D              TimerOverflowsBetweenSpeedoPulses                  equ $003D
  177:          =0000003E              SpeedoSensorPulsewidth_HB                          equ $003E
  178:          =0000003F              SpeedoSensorPulsewidth_LB                          equ $003F
  179:          =00000040              PreviousVehicleSpeed_HB                            equ $0040
  180:          =00000041              PreviousVehicleSpeed_LB                            equ $0041
  181:          =00000042              CounterUp_42                                       equ $0042
  182:          =00000043              CounterUp_43                                       equ $0043
  183:          =00000044              KeyOnOrEngineRunningTime                           equ $0044
  184:          =00000045              Counter_MainLoop                                   equ $0045
  185:          =00000046              EngineRpm_HB                                       equ $0046
  186:          =00000047              EngineRpm_LB                                       equ $0047
  187:          =00000048              EngineRPM_3D                                       equ $0048
  188:          =00000049              RPMTableOffset                                     equ $0049
  189:          =0000004A              AdvanceTemporary                                   equ $004A
  190:          =0000004B              Ram_4B                                             equ $004B
  191:          =0000004C              Ram_4C                                             equ $004C
  192:          =0000004D              Ram_4D                                             equ $004D
  193:          =0000004E              CalculatedSparkAdvance                             equ $004E
  194:          =0000004F              MapVolts                                           equ $004F
  195:          =00000050              MapValue                                           equ $0050
  196:          =00000051              TpsVolts                                           equ $0051
  197:          =00000052              ChargeTempVolts                                    equ $0052
  198:          =00000053              O2SensorVolts                                      equ $0053
  199:          =00000054              CoolantTemp                                        equ $0054
  200:          =00000055              CoolantTemp_fromTable_Scaled                       equ $0055
  201:          =00000056              PreviousCoolantTemp_fromTable_Scaled               equ $0056
  202:          =00000057              IntakeTemp_fromTable_Scaled                        equ $0057
  203:          =00000058              LastChargeTempVolts                                equ $0058
  204:          =00000059              LastCoolantTempVolts                               equ $0059
  205:          =0000005A              LastTpsVolts                                       equ $005A
  206:          =0000005B              BatteryVolts                                       equ $005B
  207:          =0000005C              TpsVolts_Minus_LowestSessionTpsVolts               equ $005C
  208:          =0000005D              VehicleSpeed_HB                                    equ $005D
  209:          =0000005E              VehicleSpeed_LB                                    equ $005E
  210:          =0000005F              VehicleSpeedx8_Scaled                              equ $005F
  211:          =00000060              RPM_Scaled_maybe                                   equ $0060
  212:          =00000061              StartupSwitchMirror1                               equ $0061
  213:          =00000080              b7_61_bt7               equ %10000000
  214:          =00000040              b6_61_IdleSpeedMode     equ %01000000
  215:          =00000020              b5_61_Brake             equ %00100000
  216:          =00000010              b4_61_PNswitch          equ %00010000
  217:          =00000008              b3_61_bt3               equ %00001000
  218:          =00000004              b2_61_CruiseResume      equ %00000100
  219:          =00000002              b1_61_CruiseSet         equ %00000010
  220:          =00000001              b0_61_bt0               equ %00000001
  221:          =00000062              ACClutchToggleVar                                  equ $0062
  222:          =00000063              ScaledDistPWForCruiseControl                       equ $0063
  223:          =00000064              TargetBatteryVolts                                 equ $0064
  224:          =00000065              BodyComputerBatteryVoltsOutput                     equ $0065
  225:          =00000066              TPSVoltsSessionDelta                               equ $0066
  226:          =00000067              AmbientAirTempVolts2                               equ $0067
  227:          =00000068              Timer_AisChanges                                   equ $0068
  228:          =00000069              DesiredNewAisPosition                              equ $0069
  229:          =0000006A              Timer_CountdownFromStartRunForAisFeedback          equ $006A
  230:          =0000006B              MAPOffsetForCylTrim                                equ $006B
  231:          =0000006C              Timer_AisOrO2Sensor                                equ $006C
  232:          =0000006D              TargetIdleSpeedHB                                  equ $006D
  233:          =0000006E              TargetIdleSpeedLB                                  equ $006E
  234:          =0000006F              InjectorPulsewidth_HB                              equ $006F
  235:          =00000070              InjectorPulsewidth_LB                              equ $0070
  236:          =00000071              Ram_71                                             equ $0071
  237:          =00000072              Ram_72                                             equ $0072
  238:          =00000073              Ram_73                                             equ $0073
  239:          =00000074              AmbientAirTempVolts                                equ $0074
  240:          =00000075              PWMULT_Adaptive_fuel_pulsewidth_multiplier         equ $0075
  241:          =00000076              Ram_76                                             equ $0076
  242:          =00000077              Counter_A_HB                                       equ $0077
  243:          =00000078              Counter_A_LB                                       equ $0078
  244:          =00000079              Counter_B                                          equ $0079
  245:          =0000007A              Counter_C                                          equ $007A
  246:          =0000007B              Counter_D                                          equ $007B
  247:          =0000007C              Counter_E                                          equ $007C
  248:          =0000007D              Counter_F_HB                                       equ $007D
  249:          =0000007E              Counter_F_LB                                       equ $007E
  250:          =0000007F              Ram_7F                                             equ $007F
  251:          =00000080              Ram_80                                             equ $0080
  252:          =00000081              Ram_81                                             equ $0081
  253:          =00000082              Ram_82                                             equ $0082
  254:          =00000083              Counter_O2SensorFeedbackCount_Signed               equ $0083
  255:          =00000084              Ram_84                                             equ $0084
  256:          =00000085              Ram_85                                             equ $0085
  257:          =00000086              Ram_86                                             equ $0086
  258:          =00000087              RpmRelated0087                                     equ $0087
  259:          =00000088              EngineRpmTemp                                      equ $0088
  260:          =00000089              Ram_89                                             equ $0089
  261:          =0000008A              MapValueTemp1                                      equ $008A
  262:          =0000008B              Ram_8B                                             equ $008B
  263:          =0000008C              MapValueTemp2                                      equ $008C
  264:          =0000008D              Ram_8D                                             equ $008D
  265:          =0000008E              MapValueTemp3                                      equ $008E
  266:          =0000008F              Ram_8F                                             equ $008F
  267:          =00000090              MapValue2                                          equ $0090
  268:          =00000091              MapAverageFactorRAM_HB                             equ $0091
  269:          =00000092              MapAverageFactorRAM_LB                             equ $0092
  270:          =00000093              TPSAverageFactorRAM_HB                             equ $0093
  271:          =00000094              TPSAverageFactorRAM_LB                             equ $0094
  272:          =00000095              TPSVoltsTemp_A                                     equ $0095
  273:          =00000096              Ram_96                                             equ $0096
  274:          =00000097              TPSVoltsTemp_B                                     equ $0097
  275:          =00000098              Ram_98                                             equ $0098
  276:          =00000099              Ram_99                                             equ $0099
  277:          =0000009A              Ram_9A                                             equ $009A
  278:          =0000009B              Ram_9B                                             equ $009B
  279:          =0000009C              Ram_9C                                             equ $009C
  280:          =0000009D              Ram_9D                                             equ $009D
  281:          =0000009E              Ram_9E                                             equ $009E
  282:          =0000009F              Ram_9F                                             equ $009F
  283:          =000000A0              Ram_A0                                             equ $00A0
  284:          =000000A1              Ram_A1                                             equ $00A1
  285:          =000000A2              Ram_A2                                             equ $00A2
  286:          =000000A3              Ram_A3                                             equ $00A3
  287:          =000000A4              Ram_A4                                             equ $00A4
  288:          =000000A5              Ram_A5                                             equ $00A5
  289:          =000000A6              Ram_A6                                             equ $00A6
  290:          =000000A7              Ram_A7                                             equ $00A7
  291:          =000000A8              Ram_A8                                             equ $00A8
  292:          =000000A9              Ram_A9                                             equ $00A9
  293:          =000000AA              Ram_AA                                             equ $00AA
  294:          =000000AB              Ram_AB                                             equ $00AB
  295:          =000000AC              Ram_AC                                             equ $00AC
  296:          =000000AD              Ram_AD                                             equ $00AD
  297:          =000000AE              Ram_AE                                             equ $00AE
  298:          =000000AF              MAPLoadFactor                                      equ $00AF
  299:          =000000B0              Ram_B0                                             equ $00B0
  300:          =000000B1              Ram_B1                                             equ $00B1
  301:          =000000B2              o2LowLimitForInMiddleDetermination                 equ $00B2
  302:          =000000B3              o2HighLimitForInMiddleDetermination                equ $00B3
  303:          =000000B4              Ram_B4                                             equ $00B4
  304:          =000000B5              Ram_B5                                             equ $00B5
  305:          =000000B6              CounterUp_b6_o2                                    equ $00B6
  306:          =000000B7              CounterDn_b7_o2                                    equ $00B7
  307:          =000000B8              Ram_B8                                             equ $00B8
  308:          =000000B9              CounterDn_b9_o2                                    equ $00B9
  309:          =000000BA              CounterDn_ba_o2                                    equ $00BA
  310:          =000000BB              CounterDn_bb_o2                                    equ $00BB
  311:          =000000BC              CounterDn_bc_o2                                    equ $00BC
  312:          =000000BD              Ram_BD                                             equ $00BD
  313:          =000000BE              Ram_BE                                             equ $00BE
  314:          =000000BF              Counter_X                                          equ $00BF
  315:          =000000C0              Ram_C0                                             equ $00C0
  316:          =000000C1              Ram_C1                                             equ $00C1
  317:          =000000C2              Ram_C2                                             equ $00C2
  318:          =000000C3              Counter_Cruise_2                                   equ $00C3
  319:          =000000C4              CruiseSpeedSetpoint                                equ $00C4
  320:          =000000C5              Timer_CruiseDecelerate                             equ $00C5
  321:          =000000C6              CruiseControlVar1                                  equ $00C6
  322:          =000000C7              CruiseControlVar2                                  equ $00C7
  323:          =000000C8              CruiseControlVar3                                  equ $00C8
  324:          =000000C9              CruiseControlVar6                                  equ $00C9
  325:          =000000CA              Counter_Cruise_4                                   equ $00CA
  326:          =000000CB              CruiseControlVar0                                  equ $00CB
  327:          =000000CC              Ram_CC                                             equ $00CC
  328:          =000000CD              PIA1_Buffer_t3                                     equ $00CD
  329:          =00000080              b7_CD_FanRelay          equ %10000000
  330:          =00000040              b6_CD_CELight           equ %01000000
  331:          =00000020              b5_CD_PTU               equ %00100000
  332:          =00000010              b4_CD_bt4               equ %00010000
  333:          =00000008              b3_CD_bt3               equ %00001000
  334:          =00000004              b2_CD_bt2               equ %00000100
  335:          =00000002              b1_CD_bt1               equ %00000010
  336:          =00000001              b0_CD_bt0               equ %00000001
  337:          =000000CE              PIA2_Buffer_t3                                     equ $00CE
  338:          =00000080              b7_CE_CruiseVacuum      equ %10000000
  339:          =00000040              b6_CE_CruiseVent        equ %01000000
  340:          =00000020              b5_CE_bt5               equ %00100000
  341:          =00000010              b4_CE_ASD               equ %00010000
  342:          =00000008              b3_CE_bt3               equ %00001000
  343:          =00000004              b2_CE_bt2               equ %00000100
  344:          =00000002              b1_CE_EGR               equ %00000010
  345:          =00000001              b0_CE_bt0               equ %00000001
  346:          =000000CF              PIA3_Buffer_t3                                     equ $00CF
  347:          =00000080              b7_CF_bt7               equ %10000000
  348:          =00000040              b6_CF_bt6               equ %01000000
  349:          =00000020              b5_CF_ChargeTemp        equ %00100000
  350:          =00000010              b4_CF_CoolantTemp       equ %00010000
  351:          =00000008              b3_CF_FuelMon           equ %00001000
  352:          =00000004              b2_CF_bt2               equ %00000100
  353:          =00000002              b1_CF_bt1               equ %00000010
  354:          =00000001              b0_CF_bt0               equ %00000001
  355:          =000000D0              Ram_D0                                             equ $00D0
  356:          =000000D1              Ram_D1                                             equ $00D1
  357:          =000000D2              PTU_MapTemp                                        equ $00D2
  358:          =000000D3              Ram_D3                                             equ $00D3
  359:          =000000D4              Counter_PartThrottleUnlock                         equ $00D4
  360:          =000000D5              b5C_IPL1_t3                                        equ $00D5
  361:          =00000080              b7_D5_MapStuck          equ %10000000
  362:          =00000040              b6_D5_TpsBadSignal      equ %01000000
  363:          =00000020              b5_D5_BattNotCharging   equ %00100000
  364:          =00000010              b4_D5_bt4               equ %00010000
  365:          =00000008              b3_D5_MapBadSignal      equ %00001000
  366:          =00000004              b2_D5_bt2               equ %00000100
  367:          =00000002              b1_D5_BadCoolantTemp    equ %00000010
  368:          =00000001              b0_D5_bt0               equ %00000001
  369:          =000000D6              b5D_IPL2_t3                                        equ $00D6
  370:          =00000080              b7_D6_bt7               equ %10000000
  371:          =00000040              b6_D6_EMRLight          equ %01000000
  372:          =00000020              b5_D6_bt5               equ %00100000
  373:          =00000010              b4_D6_MajorFault        equ %00010000
  374:          =00000008              b3_D6_bt4               equ %00001000
  375:          =00000004              b2_D6_bt3               equ %00000100
  376:          =00000002              b1_D6_bt2               equ %00000010
  377:          =00000001              b0_D6_bt1               equ %00000001
  378:          =000000D7              b5d_IPL2                                           equ $00D7
  379:          =00000080              b7_D7_bt7               equ %10000000
  380:          =00000040              b6_D7_bt6               equ %01000000
  381:          =00000020              b5_D7_InjFault          equ %00100000
  382:          =00000010              b4_D7_BadBattVolts      equ %00010000
  383:          =00000008              b3_D7_bt3               equ %00001000
  384:          =00000004              b2_D7_BadO2             equ %00000100
  385:          =00000002              b1_D7_bt1               equ %00000010
  386:          =00000001              b0_D7_bt0               equ %00000001
  387:          =000000D8              DRBPointer1                                        equ $00D8
  388:          =000000D9              DRBPointer2                                        equ $00D9
  389:          =000000DA              DRBPointer3                                        equ $00DA
  390:          =000000DB              DRBSerialMode                                      equ $00DB
  391:          =00000080              b7_DB_FastSerial        equ %10000000
  392:          =00000040              b6_DB_ByteMode          equ %01000000
  393:          =00000020              b5_DB_TestType3         equ %00100000
  394:          =00000010              b4_DB_TestType2         equ %00010000
  395:          =00000008              b3_DB_bit3              equ %00001000
  396:          =00000004              b2_DB_bit2              equ %00000100
  397:          =00000002              b1_DB_bit1              equ %00000010
  398:          =00000001              b0_DB_bit0              equ %00000001
  399:          =000000DC              ErrorBitsAssociatedWithPIA1AndReg1eTo25_HB         equ $00DC
  400:          =000000DD              ErrorBitsAssociatedWithPIA1AndReg1eTo25_LB         equ $00DD
  401:          =000000DE              ClearTheErrorTimer_0                               equ $00DE
  402:          =000000DF              ClearTheErrorTimer_1                               equ $00DF
  403:          =000000E0              ATMOffset                                          equ $00E0
  404:          =000000E1              CCDFlags5                                          equ $00E1
  405:          =00000080              b7_E1_e1b7              equ %10000000
  406:          =00000040              b6_E1_e1b6              equ %01000000
  407:          =00000020              b5_E1_AlarmDisable      equ %00100000
  408:          =00000010              b4_E1_e1b4              equ %00010000
  409:          =00000008              b3_E1_bt3               equ %00001000
  410:          =00000004              b2_E1_bt2               equ %00000100
  411:          =00000002              b1_E1_bt1               equ %00000010
  412:          =00000001              b0_E1_bt0               equ %00000001
  413:          =000000E2              Ram_E2                                             equ $00E2
  414:          =000000E3              EGRVar5_EGR_Temp_1                                 equ $00E3
  415:          =000000E4              EGRVar3_ErrorCodeBufferHB                          equ $00E4
  416:          =000000E5              Ram_E5                                             equ $00E5
  417:          =000000E6              EGRVar6                                            equ $00E6
  418:          =000000E7              EGRVar1_ErrorCodeCounter                           equ $00E7
  419:          =000000E8              EGRVar7                                            equ $00E8
  420:          =000000E9              EGRVar8                                            equ $00E9
  421:          =000000EA              MapVolts_X                                         equ $00EA
  422:          =000000EB              MapValue3                                          equ $00EB
  423:          =000000EC              Ram_EC                                             equ $00EC
  424:          =000000ED              BitFlags608D                                       equ $00ED
  425:          =000000EE              BatteryVoltsRaw                                    equ $00EE
  426:          =000000EF              A2DResults2Temp                                    equ $00EF
  427:          =000000F0              BatVoltsDiagCounter                                equ $00F0
  428:          =000000F1              Counter_O2Diagnostics                              equ $00F1
  429:          =000000F2              Timer_O2MiddleDiagnostics                          equ $00F2
  430:          =000000F3              Ram_F3                                             equ $00F3
  431:          =000000F4              Ram_F4                                             equ $00F4
  432:          =000000F5              CCDFlags4_BodyCompFlags4_X                         equ $00F5
  433:          =000000F6              CCDFlags6                                          equ $00F6
  434:          =00000080              b7_F6_ae2b7             equ %10000000
  435:          =00000040              b6_F6_ae2b6             equ %01000000
  436:          =00000020              b5_F6_ae2b5             equ %00100000
  437:          =00000010              b4_F6_ae2b4             equ %00010000
  438:          =00000008              b3_F6_ae2b3             equ %00001000
  439:          =00000004              b2_F6_ae2b2             equ %00000100
  440:          =00000002              b1_F6_ae2b1             equ %00000010
  441:          =00000001              b0_F6_ae2b0             equ %00000001
  442:          =000000F7              CCDTemp_HB                                         equ $00F7
  443:          =000000F8              CCDFuelOutput_HB                                   equ $00F8
  444:          =000000F9              CCDFuelOutput_LB                                   equ $00F9
  445:          =000000FA              Counter_SpeedSensorInterrupt_HB_X                  equ $00FA
  446:          =000000FB              CCDFlags4_tsbec                                    equ $00FB
  447:          =00000080              b7_FB_bt7               equ %10000000
  448:          =00000040              b6_FB_bt6               equ %01000000
  449:          =00000020              b5_FB_adeb7             equ %00100000
  450:          =00000010              b4_FB_bt4               equ %00010000
  451:          =00000008              b3_FB_addb2             equ %00001000
  452:          =00000004              b2_FB_bt2               equ %00000100
  453:          =00000002              b1_FB_bt1               equ %00000010
  454:          =00000001              b0_FB_bt0               equ %00000001
  455:          =000000FC              Counter_InjectorCalc                               equ $00FC
  456:          =000000FD              CounterUp_UsedInCalcFuel                           equ $00FD
  457:          =000000FE              Ram_FE                                             equ $00FE
  458:          =000000FF              Timer_MinimumFanRun                                equ $00FF
  459:          =00006400              SwitchPortAccessReg1                               equ BaseAddr+$00
  460:          =00000080              b7_6400_bt7             equ %10000000
  461:          =00000040              b6_6400_sp1_B1Volt      equ %01000000
  462:          =00000020              b5_6400_bt5             equ %00100000
  463:          =00000010              b4_6400_bt4             equ %00010000
  464:          =00000008              b3_6400_bt3             equ %00001000
  465:          =00000004              b2_6400_AlternatorField equ %00000100
  466:          =00000002              b1_6400_bt1             equ %00000010
  467:          =00000001              b0_6400_bt0             equ %00000001
  468:          =00006401              SwitchPortAccessReg2                               equ BaseAddr+$01
  469:          =00006402              PIA_Ctrl_1                                         equ BaseAddr+$02
  470:          =00006403              PIA_Ctrl_2                                         equ BaseAddr+$03
  471:          =00006404              PIA_Ctrl_3                                         equ BaseAddr+$04
  472:          =00006405              PIA_Ctrl_4                                         equ BaseAddr+$05
  473:          =00006406              PIA_Ctrl_5                                         equ BaseAddr+$06
  474:          =00006408              InjectorPulsewidth_HB_Cyl1                         equ BaseAddr+$08
  475:          =00006409              InjectorPulsewidth_LB_Cyl1                         equ BaseAddr+$09
  476:          =0000640A              InjectorPulsewidth_HB_Cyl2                         equ BaseAddr+$0A
  477:          =0000640B              InjectorPulsewidth_LB_Cyl2                         equ BaseAddr+$0B
  478:          =0000640C              InjectorPulsewidth_HB_Cyl3                         equ BaseAddr+$0C
  479:          =0000640D              InjectorPulsewidth_LB_Cyl3                         equ BaseAddr+$0D
  480:          =0000640E              InjectorPulsewidth_HB_Cyl4                         equ BaseAddr+$0E
  481:          =0000640F              InjectorPulsewidth_LB_Cyl4                         equ BaseAddr+$0F
  482:          =00006440              PIA3_Buffer_2_t3                                   equ BaseAddr+$40
  483:          =00006480              CountdownTimerFromKeyOn                            equ BaseAddr+$80
  484:          =00006481              UNe_6481                                           equ BaseAddr+$81
  485:          =00006482              UNe_6482                                           equ BaseAddr+$82
  486:          =00006483              UNe_6483                                           equ BaseAddr+$83
  487:          =00006484              UNe_6484                                           equ BaseAddr+$84
  488:          =00006485              LDXi_6485                                          equ BaseAddr+$85
  489:          =00006486              FDRVar0                                            equ BaseAddr+$86
  490:          =00006487              FDRVar1                                            equ BaseAddr+$87
  491:          =00006488              FDRVar2                                            equ BaseAddr+$88
  492:          =00006489              FDRVar3                                            equ BaseAddr+$89
  493:          =0000648A              STe_648A                                           equ BaseAddr+$8A
  494:          =0000648B              Temp5_t3                                           equ BaseAddr+$8B
  495:          =0000648D              DoubleTempB                                        equ BaseAddr+$8D
  496:          =0000648F              DoubleTempC                                        equ BaseAddr+$8F
  497:          =00006490              LDXi_6490                                          equ BaseAddr+$90
  498:          =00006491              L00F5_t3                                           equ BaseAddr+$91
  499:          =00006493              Counter_IC1_Temp                                   equ BaseAddr+$93
  500:          =00006495              AntiDwellTime_HB                                   equ BaseAddr+$95
  501:          =00006496              AntiDwellTime_LB                                   equ BaseAddr+$96
  502:          =00006497              Counter_SomethingWithDistributor                   equ BaseAddr+$97
  503:          =00006498              CruiseControlVar4                                  equ BaseAddr+$98
  504:          =00006499              Temp0                                              equ BaseAddr+$99
  505:          =0000649A              Temp1                                              equ BaseAddr+$9A
  506:          =0000649B              Temp2                                              equ BaseAddr+$9B
  507:          =0000649C              Temp3                                              equ BaseAddr+$9C
  508:          =0000649D              Temp4                                              equ BaseAddr+$9D
  509:          =0000649E              Temp5                                              equ BaseAddr+$9E
  510:          =0000649F              Temp6                                              equ BaseAddr+$9F
  511:          =000064A0              Temp7                                              equ BaseAddr+$A0
  512:          =000064A1              MinimumTimerCountBeforeMainloopCanContinue2        equ BaseAddr+$A1
  513:          =000064A3              UNe_64A3                                           equ BaseAddr+$A3
  514:          =000064A5              CalculatedDwellTime                                equ BaseAddr+$A5
  515:          =000064A6              Timer_AlternatorDutyCycle                          equ BaseAddr+$A6
  516:          =000064A7              Timer_DelayBeforeUpdating_MINTHR                   equ BaseAddr+$A7
  517:          =000064A8              CoolantVoltsTmp1                                   equ BaseAddr+$A8
  518:          =000064A9              MapValue_t3                                        equ BaseAddr+$A9
  519:          =000064AA              CoolantVoltsTmp2                                   equ BaseAddr+$AA
  520:          =000064AB              SparkScatterIncrement                              equ BaseAddr+$AB
  521:          =000064AC              SparkScatter                                       equ BaseAddr+$AC
  522:          =000064AD              UNe_64AD                                           equ BaseAddr+$AD
  523:          =000064AE              STe_64AE                                           equ BaseAddr+$AE
  524:          =000064AF              Counter_ACControl1                                 equ BaseAddr+$AF
  525:          =000064B0              DRBOffsetStored_HB                                 equ BaseAddr+$B0
  526:          =000064B1              DRBOffsetStored_LB                                 equ BaseAddr+$B1
  527:          =000064B2              LastCamFallingEdgeTime2                            equ BaseAddr+$B2
  528:          =000064B3              BitFlags65_t3                                      equ BaseAddr+$B3
  529:          =000064B4              Timer_ThermostatDiagnostics                        equ BaseAddr+$B4
  530:          =000064B5              ERRORCODERESETTIMERIN_UN_ERRORCODEIN_LN_VAR        equ BaseAddr+$B5
  531:          =000064B6              Temp1_t3                                           equ BaseAddr+$B6
  532:          =000064B7              PIA2_Buffer_t3_Temp                                equ BaseAddr+$B7
  533:          =000064B8              UNe_64B8                                           equ BaseAddr+$B8
  534:          =000064B9              UNe_64B9                                           equ BaseAddr+$B9
  535:          =000064BA              STe_64BA                                           equ BaseAddr+$BA
  536:          =000064BC              STe_64BC                                           equ BaseAddr+$BC
  537:          =000064BD              STe_64BD                                           equ BaseAddr+$BD
  538:          =000064BE              STe_64BE                                           equ BaseAddr+$BE
  539:          =000064C0              STe_64C0                                           equ BaseAddr+$C0
  540:          =000064C1              UNe_64C1                                           equ BaseAddr+$C1
  541:          =000064C3              Ram64c3                                            equ BaseAddr+$C3
  542:          =000064C4              Ram64c4                                            equ BaseAddr+$C4
  543:          =000064C6              STe_64C6                                           equ BaseAddr+$C6
  544:          =000064C7              STe_64C7                                           equ BaseAddr+$C7
  545:          =000064C8              STe_64C8                                           equ BaseAddr+$C8
  546:          =000064C9              DRB_ProgramModeFlag                                equ BaseAddr+$C9
  547:          =000064CB              DRB_SpecialProgramRoutine                          equ BaseAddr+$CB
  548:          =000064D0              UNk_64D0                                           equ BaseAddr+$D0
  549:          =000064FF              TopOfStack                                         equ BaseAddr+$FF
  550:          =0000AAAA              M99_AAAA                                           equ $AAAA
  551:          =0000D555              M99_D555                                           equ $D555
  552:                                 
  553:          =00001000              PORTA_PortA                                        equ $1000
  554:                                 ;   PortA_bit7          equ %10000000
  555:                                 ;   PortA_bit6          equ %01000000
  556:                                 ;   PortA_InjectorB     equ %00100000
  557:                                 ;   PortA_InjectorA     equ %00010000
  558:                                 ;   PortA_IgnCoil       equ %00001000
  559:                                 ;   PortA_DistRef       equ %00000100
  560:                                 ;   PortA_Speedo        equ %00000010
  561:                                 ;   PortA_bit0          equ %00000001
  562:          =00001001              CPU_L1001_Reserved                                 equ $1001
  563:          =00001002              PIOC_Parallel_IO_Ctrl                              equ $1002
  564:          =00001003              PORTC_PortC                                        equ $1003
  565:          =00001004              PORTB_PortB                                        equ $1004
  566:          =00001005              PORTCL_PortCL                                      equ $1005
  567:          =00001006              CPU_L1006Reserved                                  equ $1006
  568:          =00001007              DDRC_PortC_DataDirection                           equ $1007
  569:          =00001008              PORTD_PortD                                        equ $1008
  570:          =00001009              DDRD_PortD_DataDirection                           equ $1009
  571:          =0000100A              PORTE_PortE                                        equ $100A
  572:          =0000100B              CFORC_TimerForceCompare                            equ $100B
  573:                                 ;   allows user to force the OCx pins to change states asap and not have to wait for
  574:                                 ;   the timer to actually expire.  does not affect the OCxF bits or trigger interrupts.
  575:                                 ;   Bit 7 - OC1:
  576:                                 ;   Bit 6 - OC2:
  577:                                 ;   Bit 5 - OC3:
  578:                                 ;   Bit 4 - OC4:
  579:                                 ;   Bit 3 - OC5:
  580:                                 ;   Bit 2 - 0
  581:                                 ;   Bit 1 - 0
  582:                                 ;   Bit 0 - 0
  583:          =0000100C              OC1M_OutputCompare1Mask                            equ $100C
  584:                                 ;   Bit 7 - OC1M7:
  585:                                 ;   Bit 6 - OC1M6:
  586:                                 ;   Bit 5 - OC1M5:
  587:                                 ;   Bit 4 - OC1M4:
  588:                                 ;   Bit 3 - OC1M3:
  589:                                 ;   Bit 2 - 0
  590:                                 ;   Bit 1 - 0
  591:                                 ;   Bit 0 - 0
  592:          =0000100D              OC1D_OutputCompare1D                               equ $100D
  593:                                 ;   Bit 7 - OC1D7: references PA7/PA1
  594:                                 ;   Bit 6 - OC1D6: references PA6/OC2
  595:                                 ;   Bit 5 - OC1D5: references PA5/OC3
  596:                                 ;   Bit 4 - OC1D4: references PA4/OC4
  597:                                 ;   Bit 3 - OC1D3: references PA3/PC5
  598:                                 ;   Bit 2 - 0
  599:                                 ;   Bit 1 - 0
  600:                                 ;   Bit 0 - 0
  601:          =0000100E              TCNT_Counter_FreeRunning16bit                      equ $100E
  602:          =00001010              TIC1_Counter_IC1_CamSensor                         equ $1010
  603:          =00001012              TIC2_Counter_IC2_Speedometer                       equ $1012
  604:          =00001014              TIC3_Counter_IC3_CrankSensor                       equ $1014
  605:          =00001016              TOC1_Counter_OC1                                   equ $1016
  606:          =00001018              TOC2_Counter_OC2                                   equ $1018
  607:          =0000101A              TOC3_Counter_OC3                                   equ $101A
  608:          =0000101C              TOC4_Counter_OC4                                   equ $101C
  609:          =0000101E              TOC5_Counter_OC5_Dwell                             equ $101E
  610:          =00001020              TCTL1_TimerControlReg1                             equ $1020
  611:                                 ;   Bit 7 - OM2:     M0 L0 = OCx does not affect pin (OC1 still may)
  612:                                 ;   Bit 6 - OL2:     M0 L1 = Toggle OCx pin on successful compare
  613:                                 ;   Bit 5 - OM3:     M1 L0 = Clear OCx pin on successful compare
  614:                                 ;   Bit 4 - OL3:     M1 L1 = Set OCx pin on successful compare
  615:                                 ;   Bit 3 - OM4:
  616:                                 ;   Bit 2 - OL4:
  617:                                 ;   Bit 1 - OM5:
  618:                                 ;   Bit 0 - OL5:
  619:          =00001021              TCTL2_TimerControlReg2                             equ $1021
  620:                                 ;   determines which edge to detect - 2 bits determine mode
  621:                                 ;   00=no capture 01=rising edge 10=falling edge 11=both edges
  622:                                 ;   bits 7/6 not used
  623:                                 ;   bits 5/4 IC1
  624:                                 ;   bits 3/2 IC2
  625:                                 ;   bits 1/0 IC3
  626:          =00001022              TMSK1_TimerInterruptMask1                          equ $1022
  627:                                 ;   when bit is set generates hardware interrupt when corresponding 0x1023 bit is by edge
  628:                                 ;   when bit is clr program must read 0x1023 bit to determine if edge has been detected
  629:                                 ;   OC1               equ %10000000
  630:                                 ;   OC2               equ %01000000
  631:                                 ;   OC3               equ %00100000
  632:                                 ;   OC4               equ %00010000
  633:                                 ;   OC5Dwell          equ %00001000
  634:                                 ;   IC1Distributor    equ %00000100
  635:                                 ;   IC2SDSSignal      equ %00000010
  636:                                 ;   InputCompare3     equ %00000001
  637:          =00001023              TFLG1_TimerInterruptFlag1                          equ $1023
  638:                                 ;   bit is set whenever edge is detected on an IC pin
  639:                                 ;   can also manually set these pins if you want to trigger interrupts
  640:                                 ;   OC1               equ %10000000
  641:                                 ;   OC2               equ %01000000
  642:                                 ;   OC3               equ %00100000
  643:                                 ;   OC4               equ %00010000
  644:                                 ;   OC5Dwell          equ %00001000
  645:                                 ;   IC1Distributor    equ %00000100
  646:                                 ;   IC2SDSSignal      equ %00000010
  647:                                 ;   IC3               equ %00000001
  648:                                 ;   ********************************************************************************
  649:                                 ;   * when an edge (as set 0x1021) is detected on an ICx pin the 16bit value of the*
  650:                                 ;   * free running counter is captured in latch locations 0x1010-(IC1) 0x1012-(IC2)*
  651:                                 ;   * or 0x1014-(IC3).  The corresponding status flag bit(s) are then set in reg   *
  652:                                 ;   * 0x1023.  if the interrupt mask 0x1022 is set for that IC pin then a hardware *
  653:                                 ;   * interrupt is generated and the related subroutine is run.  If the mask is not*
  654:                                 ;   * set then the program must read the status flag bit to determine if an edge   *
  655:                                 ;   * has been detected.                                                           *
  656:                                 ;   ********************************************************************************
  657:          =00001024              TMSK2_TimerInterruptMask2                          equ $1024
  658:                                 ;   Bit 7 - TOI:  Timer Overflow Interrupt Enable
  659:                                 ;   Bit 6 - RTII:  Real Time Interrupt Enable
  660:                                 ;   Bit 5 - PAOVI: Pulse accumulator overflow interrupt enable
  661:                                 ;   Bit 4 - PAII:  Pulse accumulator input edge interrupt enable
  662:                                 ;   Bit 3 - 0
  663:                                 ;   Bit 2 - 0
  664:                                 ;   Bit 1 - PR1:  Timer Prescaler 00=1 (500nS) 01=4 (2uS) 10=8 (4uS) 11=16 (8uS)
  665:                                 ;   Bit 0 - PR0:
  666:                                 ;   TCNT count value =  is 1/(2000000 / prescaler)
  667:          =00001025              TFLG2_TimerInterruptFlag2                          equ $1025
  668:          =00001026              PACTL_PulseAccumulatorControl                      equ $1026
  669:                                 ;   Bit 7 - TOI:  Timer Overflow Interrupt Enable
  670:                                 ;   Bit 6 - RTII:  Real Time Interrupt Enable
  671:                                 ;   Bit 5 - PAOVI: Pulse accumulator overflow interrupt enable
  672:                                 ;   Bit 4 - PAII:  Pulse accumulator input edge interrupt enable
  673:                                 ;   Bit 3 - 0
  674:                                 ;   Bit 2 - 0
  675:                                 ;   Bit 1 - PR1:  Timer Prescaler 00=1 (4.096mS) 01=2 (8.192mS) 10=4 (16.384mS) 11=8 (32.768mS)
  676:                                 ;   Bit 0 - PR0:
  677:                                 ;   rti timer value = 1 /(2Mhtz / 2^13 / prescaler)
  678:          =00001027              PACNT_PulseAccumulatorCounter                      equ $1027
  679:          =00001028              SPCR_SerialPeripheralControl                       equ $1028
  680:          =00001029              SPSR_SerialPeripheralStatus                        equ $1029
  681:                                 ;   Bit 7 - SPIF - SPI Transfer complete flag
  682:                                 ;   Bit 6 - WCOL - Write collision error flag
  683:                                 ;   Bit 5 - 0
  684:                                 ;   Bit 4 - MODF - Mode fault error flag
  685:                                 ;   Bit 3 - 0
  686:                                 ;   Bit 2 - 0
  687:                                 ;   Bit 1 - 0
  688:                                 ;   Bit 0 - 0
  689:          =0000102A              SPDR_SerialPeripheralDataIO                        equ $102A
  690:          =0000102B              BAUD_SerialBaudRate                                equ $102B
  691:                                 ;   Bit 7 - TCLR: (test bit)
  692:                                 ;   Bit 6 - 0
  693:                                 ;   Bit 5 - SCP1: SCI Baud rate prescale selects
  694:                                 ;   Bit 4 - SCP0: 00=/1 (max125k) 01=/3 (max42k) 10=/4 (max32k) 11=/13 (max9600baud)
  695:                                 ;   Bit 3 - RCKB: (test bit)
  696:                                 ;   Bit 2 - SCR2:
  697:                                 ;   Bit 1 - SCR1:
  698:                                 ;   Bit 0 - SCR0:
  699:                                 ;      To achieve 977   baud byte=$25
  700:                                 ;      To achieve 1200  baud byte $33
  701:                                 ;      To achieve 9600  baud byte = $30
  702:                                 ;      To achieve 62500 baud byte = $01
  703:          =0000102C              SCCR1_SerialControlReg1                            equ $102C
  704:          =0000102D              SCCR2_SerialControlReg2                            equ $102D
  705:          =0000102E              SCSR_SerialStatus                                  equ $102E
  706:          =0000102F              SCDR_SerialData                                    equ $102F
  707:          =00001030              ADCTL_A2DControlReg                                equ $1030
  708:                                 ;   determines what sensor group to read into a2dresults channels
  709:                                 ;   Bit 7 - CCF: Conversions Complete Flag
  710:                                 ;   Bit 6 - 0
  711:                                 ;   Bit 5 - SCAN: 0=perform 4 conversions. 1=continuous conversions
  712:                                 ;   Bit 4 - MULT: 0=single channel
  713:                                 ;   Bit 3 - CD: These bits select which channel(s) to convert
  714:                                 ;   Bit 2 - CC:
  715:                                 ;   Bit 1 - CB:
  716:                                 ;   Bit 0 - CA:
  717:          =00001031              ADR1_A2DResults1                                   equ $1031
  718:          =00001032              ADR2_A2DResults2                                   equ $1032
  719:          =00001033              ADR3_A2DResults3                                   equ $1033
  720:          =00001034              ADR4_A2DResults4                                   equ $1034
  721:          =00001035              BPROT_BlockProtReg                                 equ $1035
  722:          =00001039              OPTION_SysConfigOptionReg                          equ $1039
  723:                                 ;   Bit 7 - ADPU:
  724:                                 ;   Bit 6 - CSEL: 1=use alternate charge pump for EEPROM and A/D
  725:                                 ;   Bit 5 - IRQE: 1=configure IRQ for edge sensitive operation only
  726:                                 ;   Bit 4 - DLY: 1=enable oscillator startup delat (designed to allow crystal to stabilize)
  727:                                 ;   Bit 3 - CME:
  728:                                 ;   Bit 2 - 0
  729:                                 ;   Bit 1 - CR1: Watchdog Timer Rate Select
  730:                                 ;   Bit 0 - CR0: at 8MHz 00=1 (16.384ms) 01=4 (65.536ms) 10=16 (262.14ms) 11=64 (1.049s)
  731:                                 ;   COP count value = 1 / (2000000 / 2^15 / prescaler)
  732:          =0000103A              COPRST_ArmOCToggleAndResetCopTimerReg              equ $103A
  733:          =0000103B              PPROG_EEPROMControlReg                             equ $103B
  734:                                 ;   Bit 7 - ODD
  735:                                 ;   Bit 6 - EVEN
  736:                                 ;   Bit 5 - 0
  737:                                 ;   Bit 4 - BYTE
  738:                                 ;   Bit 3 - ROW
  739:                                 ;   Bit 2 - ERASE
  740:                                 ;   Bit 1 - EELAT
  741:                                 ;   Bit 0 - EEPGM
  742:          =0000103C              HPRIO_HighPriorityInterruptMask                    equ $103C
  743:                                 ;   Bit 7 - RBOOT: Read Bootstrap ROM (can be written only while SMOD=1) 1=bootstrap ROM at $bf40-$bfff
  744:                                 ;   Bit 6 - SMOD:  Special Mode (can be written to zero but not back to one) 1=special mode in effect
  745:                                 ;   Bit 5 - MDA:  Mode A Select (can be written only while SMOD=1) 1=normal expanded
  746:                                 ;   Bit 4 - IRV:  Internal Read Visibility (can be written only while SMOD=1) 0=data from internal reads not visible on bus
  747:                                 ;   Bit 3 - PSEL3: for selecting which interrupt is highest priority
  748:                                 ;   Bit 2 - PSEL2:
  749:                                 ;   Bit 1 - PSEL1:
  750:                                 ;   Bit 0 - PSEL0:
  751:          =0000103D              INIT_SysInit                                       equ $103D
  752:                                 ;   Bit 7 - RAM3: Ram3:0 specify the upper hex digit of the RAM address
  753:                                 ;   Bit 6 - RAM2:        the position of the RAM in the memory map. This allows RAM
  754:                                 ;   Bit 5 - RAM1:        to be moved for example to F000-F0FF (default is 0000)
  755:                                 ;   Bit 4 - RAM0:
  756:                                 ;   Bit 3 - REG3: Reg3:0 specify the upper hex digit of the Registers address just
  757:                                 ;   Bit 2 - REG2:        like the RAM. (default is 0001)
  758:                                 ;   Bit 1 - REG1:
  759:                                 ;   Bit 0 - REG0:
  760:          =0000103E              TEST1_Test                                         equ $103E
  761:                                 ;   Bit 7 - TILOP:
  762:                                 ;   Bit 6 - 0
  763:                                 ;   Bit 5 - OCCR:
  764:                                 ;   Bit 4 - CBYP:
  765:                                 ;   Bit 3 - DISR:
  766:                                 ;   Bit 2 - FCM:
  767:                                 ;   Bit 1 - FCOP:
  768:                                 ;   Bit 0 - TCON:
  769:          =0000103F              CONFIG_SystemConfigReg                             equ $103F
   29:                                 ;
   30:                                 ; base address for TI chip, correct values are $0400 for 94
   31:                                 ; and later 8 cylinder ECU's, $6400 for 94 and later 4,6
   32:                                 ; cylinder ECU's and $6000 for 93 and earlier ECU's.
   33:                                 ;
   34:                                  IF Data_start == $2000
   36:                                  ELIF Data_start == $8000
   37:          =00006400              BaseAddr equ $6400
   38:                                  ENDIF
   39:                                 ;
   40:                                 ; config for transmission type, correct values are ATX for
   41:                                 ; automatic transmission, MTX for manual transmission.
   42:                                 ;
   43:          =00000001              TransType equ MTX
   44:                                 ;
   45:                                 ; 1 to remove emissions maintenance reminder code
   46:                                 ;
   47:          =00000000              NOEMR equ 0
   48:                                 ;
   49:          =00008000               ORG Data_start
   50:                                 #include data.inc
    1:                                 
    2:                                 
    3:     8000                        TL_IDENT1:
    4:     8000 01                     byte_8000:  fcb $01
    5:     8001 00                                 fcb $00
    6:     8002 56                     unk_8002:   fcb $56
    7:     8003 02                                 fcb $02
    8:     8004 88                                 fcb $88
    9:     8005 51                     byte_8005:  fcb $51
   10:     8006 A2                     byte_8006:  fcb $A2
   11:     8007 56                     unk_8007:   fcb $56
   12:     8008 02                                 fcb $02
   13:     8009 88                                 fcb $88
   14:     800A 51                                 fcb $51
   15:     800B A2                     byte_800B:  fcb $A2
   16:     800C 43                                 fcb $43
   17:     800D 4E                     unk_800D:   fcb $4E
   18:     800E 18                                 fcb $18
   19:     800F 85                     byte_800F:  fcb $85
   20:     8010 89                                 fcb $89
   21:     8011 02                     byte_8011:  fcb $02
   22:     8012 0582                   word_8012:  fdb $0582
   23:     8014 00                     byte_8014:  fcb $00
   24:                                 ;------------------------------------------------------------------------------
   25:                                 ; bit 8: 0 = 6 cylinder, 1 = 4 cylinder
   26:                                 ; bit 7: 1 = 6 cylinder, 0 = 4 cylinder
   27:                                 ; bit 6: unknown
   28:                                 ; bit 5: unknown
   29:                                 ; bit 4: unknown
   30:                                 ; bit 3: unknown
   31:                                 ; bit 2: unknown
   32:                                 ; bit 1: 1 = manual transmission, 0 = auto transmission
   33:                                 
   34:     8015                        TL_CONF01:
   35:     8015 41                     byte_8015:  fcb %01000000+TransType
   36:                                 ;------------------------------------------------------------------------------
   37:                                 ; bit 8: unknown
   38:                                 ; bit 7: unknown
   39:                                 ; bit 6: 1 = manual transmission, 0 = auto transmission
   40:                                 ; bit 5: unknown
   41:                                 ; bit 4: unknown
   42:                                 ; bit 3: unknown
   43:                                 ; bit 2: unknown
   44:                                 ; bit 1: unknown
   45:                                 
   46:     8016                        TL_ConfigurationFlags2:
   47:     8016 26                     byte_8016:  fcb %00100000+%00000110
   48:                                 ;------------------------------------------------------------------------------
   49:                                 
   50:     8017                        TL_Amount_MINTHR_IsIncreasedAtKeyOnOnly:
   51:     8017 03                     byte_8017:  fcb $03
   52:     8018 10                     byte_8018:  fcb $10
   53:     8019 02                     byte_8019:  fcb $02
   54:     801A 01                     byte_801A:  fcb $01
   55:                                 
   56:     801B                        TL_ValueOf_MINTHR_WhenBatteryDisconnected:
   57:     801B 39                     byte_801B:  fcb $39
   58:     801C 26                     byte_801C:  fcb $26
   59:     801D 4C                     byte_801D:  fcb $4C
   60:     801E 05                     byte_801E:  fcb $05
   61:     801F 84                     byte_801F:  fcb $84
   62:     8020 FF                     byte_8020:  fcb $FF
   63:     8021 00                     byte_8021:  fcb $00
   64:     8022 0000                   word_8022:  fdb $0000
   65:                                 
   66:     8024                        TL_TL_8024:
   67:     8024                        unk_8024:
   68:     8024 05                             fcb $05
   69:     8025 2F 00 00 21                    fcb $2F, $00, $00, $21
   70:     8029 5E 06 00 33                    fcb $5E, $06, $00, $33
   71:     802D 6D 09 00 20                    fcb $6D, $09, $00, $20
   72:     8031 7D 0B 00 20                    fcb $7D, $0B, $00, $20
   73:     8035 8D 0D                          fcb $8D, $0D
   74:                                 
   75:     8037 90                     byte_8037:  fcb $90
   76:     8038 05                     byte_8038:  fcb $05
   77:                                 
   78:     8039                        TL_RPMCellLookupTable:
   79:     8039 0F A0 14 50 17 70              fcb $0F, $A0, $14, $50, $17, $70, $20, $D0, $23, $F0, $2E, $E0, $3E, $80, $4E, $20
           803F 20 D0 23 F0 2E E0 
           8045 3E 80 4E 20 
   80:     8049 5D C0 6D 60 7D 00              fcb $5D, $C0, $6D, $60, $7D, $00, $8C, $A0, $9C, $40
           804F 8C A0 9C 40 
   81:                                 
   82:     8053                        TL_RPM3DInputModifierFromRPM:
   83:     8053                        unk_8053:
   84:     8053 06                             fcb $06
   85:     8054 10 00 02 AB                    fcb $10, $00, $02, $AB
   86:     8058 16 10 04 EC                    fcb $16, $10, $04, $EC
   87:     805C 23 50 04 00                    fcb $23, $50, $04, $00
   88:     8060 27 60 02 0D                    fcb $27, $60, $02, $0D
   89:     8064 4E B0 01 03                    fcb $4E, $B0, $01, $03
   90:     8068 9C FF                          fcb $9C, $FF
   91:                                 
   92:     806A FF FF FF FF FF FF      TL_TL_806a: fcb $FF, $FF, $FF, $FF, $FF, $FF, $FF, $FF
           8070 FF FF 
   93:                                 
   94:     8072 0262                   word_8072:  fdb $0262
   95:     8074 5A                     byte_8074:  fcb $5A
   96:     8075 00                                 fcb $00
   97:     8076 0002                   word_8076:  fdb $0002
   98:     8078 62                     byte_8078:  fcb $62
   99:     8079 5A                                 fcb $5A
  100:     807A 37CD                   word_807A:  fdb $37CD
  101:     807C 4E20                   word_807C:  fdb $4E20
  102:     807E 00                     byte_807E:  fcb $00
  103:     807F 14                     byte_807F:  fcb $14 ;North America
  104:                                 ;byte_807F:  fcb $02 ;Europe
  105:     8080 02                     byte_8080:  fcb $02
  106:     8081 0C                     byte_8081:  fcb $0C
  107:     8082 04                     byte_8082:  fcb $04
  108:                                 
  109:                                 ; North America
  110:     8083                        TL_Spark1A_RPMMAP:
  111:     8083                        unk_8083:
  112:     8083 11                             fcb $11
  113:     8084 09                             fcb $09
  114:     8085 00                             fcb $00
  115:     8086 1C 1C 1C 1C 1C 14              fcb $1C, $1C, $1C, $1C, $1C, $14, $14, $14, $14
           808C 14 14 14 
  116:     808F 1C 1C 1C 1C 1C 1A              fcb $1C, $1C, $1C, $1C, $1C, $1A, $1E, $18, $14
           8095 1E 18 14 
  117:     8098 1C 1C 1C 1C 1C 1B              fcb $1C, $1C, $1C, $1C, $1C, $1B, $1E, $18, $14
           809E 1E 18 14 
  118:     80A1 1C 1C 1C 1C 1C 2D              fcb $1C, $1C, $1C, $1C, $1C, $2D, $20, $18, $14
           80A7 20 18 14 
  119:     80AA 1C 1C 1C 1C 1C 38              fcb $1C, $1C, $1C, $1C, $1C, $38, $2C, $1A, $0C
           80B0 2C 1A 0C 
  120:     80B3 1C 1C 1C 1C 35 39              fcb $1C, $1C, $1C, $1C, $35, $39, $2C, $1C, $0C
           80B9 2C 1C 0C 
  121:     80BC 1C 1F 24 40 38 3B              fcb $1C, $1F, $24, $40, $38, $3B, $2D, $1E, $0D
           80C2 2D 1E 0D 
  122:     80C5 1C 28 38 42 3D 3C              fcb $1C, $28, $38, $42, $3D, $3C, $30, $24, $16
           80CB 30 24 16 
  123:     80CE 1C 2E 40 47 3F 41              fcb $1C, $2E, $40, $47, $3F, $41, $38, $29, $1C
           80D4 38 29 1C 
  124:     80D7 1C 34 50 4C 40 46              fcb $1C, $34, $50, $4C, $40, $46, $40, $2E, $23
           80DD 40 2E 23 
  125:     80E0 1C 36 5E 55 47 46              fcb $1C, $36, $5E, $55, $47, $46, $40, $31, $25
           80E6 40 31 25 
  126:     80E9 1C 38 60 58 53 46              fcb $1C, $38, $60, $58, $53, $46, $40, $33, $26
           80EF 40 33 26 
  127:     80F2 1C 38 63 5F 4E 48              fcb $1C, $38, $63, $5F, $4E, $48, $41, $36, $26
           80F8 41 36 26 
  128:     80FB 1C 38 5F 52 52 45              fcb $1C, $38, $5F, $52, $52, $45, $3A, $2E, $2B
           8101 3A 2E 2B 
  129:     8104 1C 38 5B 4E 4C 44              fcb $1C, $38, $5B, $4E, $4C, $44, $35, $2E, $28
           810A 35 2E 28 
  130:     810D 1C 38 5D 5A 54 3F              fcb $1C, $38, $5D, $5A, $54, $3F, $3C, $31, $25
           8113 3C 31 25 
  131:     8116 1C 38 60 5C 50 3E              fcb $1C, $38, $60, $5C, $50, $3E, $42, $40, $2A
           811C 42 40 2A 
  132:                                 
  133:                                 ; Europe
  134:                                 ;unk_8083:
  135:                                 ;       fcb $11
  136:                                 ;       fcb $09
  137:                                 ;       fcb $00
  138:                                 ;       fcb $1C, $1C, $1C, $1C, $1C, $14, $14, $14, $14
  139:                                 ;       fcb $1C, $1C, $1C, $1C, $1C, $1A, $1E, $18, $14
  140:                                 ;       fcb $1C, $1C, $1C, $1C, $1C, $1B, $1E, $18, $14
  141:                                 ;       fcb $1C, $1C, $1C, $1C, $1C, $2A, $20, $18, $14
  142:                                 ;       fcb $1C, $1C, $1C, $1C, $1C, $38, $2C, $1A, $0C
  143:                                 ;       fcb $1C, $1C, $1C, $1C, $1C, $39, $2C, $1C, $0C
  144:                                 ;       fcb $1C, $1E, $21, $27, $28, $3A, $2C, $1D, $0C
  145:                                 ;       fcb $1C, $20, $26, $33, $38, $3B, $2D, $1E, $0E
  146:                                 ;       fcb $1C, $24, $2C, $3F, $38, $3C, $2D, $20, $14
  147:                                 ;       fcb $1C, $28, $32, $42, $38, $3C, $30, $24, $16
  148:                                 ;       fcb $1C, $34, $40, $4C, $40, $46, $40, $2E, $23
  149:                                 ;       fcb $1C, $38, $50, $50, $4E, $42, $40, $33, $26
  150:                                 ;       fcb $1C, $38, $54, $52, $4E, $48, $45, $3F, $26
  151:                                 ;       fcb $1C, $38, $54, $52, $52, $45, $40, $36, $34
  152:                                 ;       fcb $1C, $38, $56, $4E, $4C, $44, $3B, $36, $28
  153:                                 ;       fcb $1C, $38, $56, $5A, $54, $3F, $40, $36, $30
  154:                                 ;       fcb $1C, $38, $56, $5C, $50, $3E, $42, $40, $2A
  155:                                 
  156:     811F                        TL_Spark1B_RPMMAP:
  157:     811F                        unk_811F:
  158:     811F 11                             fcb $11
  159:     8120 09                             fcb $09
  160:     8121 00                             fcb $00
  161:     8122 1C 1C 1C 1C 1C 14              fcb $1C, $1C, $1C, $1C, $1C, $14, $14, $14, $14
           8128 14 14 14 
  162:     812B 1C 1C 1C 1C 1C 1A              fcb $1C, $1C, $1C, $1C, $1C, $1A, $1E, $18, $14
           8131 1E 18 14 
  163:     8134 1C 1C 1C 1C 1C 1D              fcb $1C, $1C, $1C, $1C, $1C, $1D, $1E, $18, $14
           813A 1E 18 14 
  164:     813D 1C 1C 1C 1C 30 25              fcb $1C, $1C, $1C, $1C, $30, $25, $1F, $18, $18
           8143 1F 18 18 
  165:     8146 1C 1C 1C 1C 38 36              fcb $1C, $1C, $1C, $1C, $38, $36, $30, $1D, $14
           814C 30 1D 14 
  166:     814F 1C 1C 1C 1C 43 42              fcb $1C, $1C, $1C, $1C, $43, $42, $33, $24, $15
           8155 33 24 15 
  167:     8158 1C 29 31 31 46 42              fcb $1C, $29, $31, $31, $46, $42, $37, $26, $16
           815E 37 26 16 
  168:     8161 1C 2B 3B 3C 49 43              fcb $1C, $2B, $3B, $3C, $49, $43, $3B, $2C, $18
           8167 3B 2C 18 
  169:     816A 1C 2D 45 4C 4C 44              fcb $1C, $2D, $45, $4C, $4C, $44, $3F, $2F, $1B
           8170 3F 2F 1B 
  170:     8173 1C 30 50 5C 4F 44              fcb $1C, $30, $50, $5C, $4F, $44, $41, $2E, $1F
           8179 41 2E 1F 
  171:     817C 1C 38 50 5C 58 54              fcb $1C, $38, $50, $5C, $58, $54, $50, $3C, $30
           8182 50 3C 30 
  172:     8185 1C 38 4E 66 60 5E              fcb $1C, $38, $4E, $66, $60, $5E, $56, $3C, $2E
           818B 56 3C 2E 
  173:     818E 1C 38 4C 6E 66 60              fcb $1C, $38, $4C, $6E, $66, $60, $4A, $3C, $2D
           8194 4A 3C 2D 
  174:     8197 1C 38 4A 6C 64 4E              fcb $1C, $38, $4A, $6C, $64, $4E, $44, $40, $2A
           819D 44 40 2A 
  175:     81A0 1C 38 4A 5C 4A 44              fcb $1C, $38, $4A, $5C, $4A, $44, $3E, $34, $22
           81A6 3E 34 22 
  176:     81A9 1C 38 40 5C 48 42              fcb $1C, $38, $40, $5C, $48, $42, $3E, $34, $20
           81AF 3E 34 20 
  177:     81B2 1C 38 40 56 4C 44              fcb $1C, $38, $40, $56, $4C, $44, $3C, $34, $28
           81B8 3C 34 28 
  178:                                 
  179:     81BB 03                     byte_81BB:  fcb $03
  180:                                 
  181:     81BC                        TL_Spark2A_RPMMAP:
  182:     81BC                        unk_81BC:
  183:     81BC 11                             fcb $11
  184:     81BD 09                             fcb $09
  185:     81BE 00                             fcb $00
  186:     81BF 00 00 00 00 00 00              fcb $00, $00, $00, $00, $00, $00, $00, $00, $00
           81C5 00 00 00 
  187:     81C8 00 00 00 00 00 00              fcb $00, $00, $00, $00, $00, $00, $00, $00, $00
           81CE 00 00 00 
  188:     81D1 00 00 00 00 00 00              fcb $00, $00, $00, $00, $00, $00, $00, $00, $00
           81D7 00 00 00 
  189:     81DA 00 00 00 00 00 00              fcb $00, $00, $00, $00, $00, $00, $00, $00, $00
           81E0 00 00 00 
  190:     81E3 00 00 00 00 00 00              fcb $00, $00, $00, $00, $00, $00, $00, $00, $00
           81E9 00 00 00 
  191:     81EC 00 00 00 00 00 00              fcb $00, $00, $00, $00, $00, $00, $00, $00, $00
           81F2 00 00 00 
  192:     81F5 00 00 00 00 00 00              fcb $00, $00, $00, $00, $00, $00, $00, $00, $00
           81FB 00 00 00 
  193:     81FE 00 00 00 00 00 00              fcb $00, $00, $00, $00, $00, $00, $00, $00, $00
           8204 00 00 00 
  194:     8207 00 00 00 00 00 00              fcb $00, $00, $00, $00, $00, $00, $00, $00, $00
           820D 00 00 00 
  195:     8210 00 00 00 00 00 00              fcb $00, $00, $00, $00, $00, $00, $00, $00, $00
           8216 00 00 00 
  196:     8219 00 00 00 00 00 00              fcb $00, $00, $00, $00, $00, $00, $00, $00, $00
           821F 00 00 00 
  197:     8222 00 00 00 00 00 00              fcb $00, $00, $00, $00, $00, $00, $00, $00, $00
           8228 00 00 00 
  198:     822B 00 00 00 00 00 00              fcb $00, $00, $00, $00, $00, $00, $00, $00, $00
           8231 00 00 00 
  199:     8234 00 00 00 00 00 00              fcb $00, $00, $00, $00, $00, $00, $00, $00, $00
           823A 00 00 00 
  200:     823D 00 00 00 00 00 00              fcb $00, $00, $00, $00, $00, $00, $00, $00, $00
           8243 00 00 00 
  201:     8246 00 00 00 00 00 00              fcb $00, $00, $00, $00, $00, $00, $00, $00, $00
           824C 00 00 00 
  202:     824F 00 00 00 00 00 00              fcb $00, $00, $00, $00, $00, $00, $00, $00, $00
           8255 00 00 00 
  203:                                 
  204:     8258                        TL_MapValFromRPMPtr:
  205:     8258 FF FF FF FF FF         unk_8258:   fcb $FF, $FF, $FF, $FF, $FF
  206:                                 
  207:     825D A4 A4 A4 80 80 80      TL_TL_825d: fcb $A4, $A4, $A4, $80, $80, $80, $80, $80, $80
           8263 80 80 80 
  208:                                 
  209:     8266                        TL_TL_8266:
  210:     8266 2A 2A 2A 2A 28 26      unk_8266:   fcb $2A, $2A, $2A, $2A, $28, $26, $20, $1E, $1A
           826C 20 1E 1A 
  211:                                 
  212:     826F                        TL_TL_826F:
  213:     826F 28 24 24 20 20 1A      unk_826F:   fcb $28, $24, $24, $20, $20, $1A, $1A, $1A, $1A
           8275 1A 1A 1A 
  214:                                 
  215:     8278 D0                     byte_8278:  fcb $D0
  216:     8279 02                     byte_8279:  fcb $02
  217:     827A 00                     byte_827A:  fcb $00
  218:     827B 00                     byte_827B:  fcb $00
  219:                                 
  220:     827C                        TL_TL_827C:
  221:     827C 00 00 00 00 00 00      unk_827C:   fcb $00, $00, $00, $00, $00, $00, $00, $00, $00
           8282 00 00 00 
  222:                                 
  223:     8285                        TL_TL_8285:
  224:     8285 FF FF FF FF FF FF      unk_8285:   fcb $FF, $FF, $FF, $FF, $FF, $FF, $FF, $FF, $FF
           828B FF FF FF 
  225:                                 
  226:     828E 02B3                   word_828E:  fdb $02B3
  227:                                 
  228:     8290 05 4E 04 00 BD 65              fcb $05, $4E, $04, $00, $BD, $65, $15, $02, $66, $79, $45, $00, $C0, $7D
           8296 15 02 66 79 45 00 
           829C C0 7D 
  229:     829E 48 01 CE 9C 80 08              fcb $48, $01, $CE, $9C, $80, $08, $06, $00, $D0, $00, $01, $00, $00, $00, $00, $00
           82A4 06 00 D0 00 01 00 
           82AA 00 00 00 00 
  230:     82AE 00                             fcb $00
  231:                                 
  232:     82AF 208D                   word_82AF:  fdb $208D
  233:     82B1 4E20                   word_82B1:  fdb $4E20
  234:                                 
  235:     82B3                        TL_ColdLoad3DTableOffIdle:
  236:                                 ;North America
  237:     82B3                        unk_82B3:
  238:     82B3 11                             fcb $11
  239:     82B4 09                             fcb $09
  240:     82B5 00                             fcb $00
  241:     82B6 46 3F 34 30 36 39              fcb $46, $3F, $34, $30, $36, $39, $3B, $40, $53
           82BC 3B 40 53 
  242:     82BF 46 3E 34 30 36 39              fcb $46, $3E, $34, $30, $36, $39, $3B, $40, $53
           82C5 3B 40 53 
  243:     82C8 52 50 37 33 37 3D              fcb $52, $50, $37, $33, $37, $3D, $3E, $45, $59
           82CE 3E 45 59 
  244:     82D1 69 58 4B 44 42 44              fcb $69, $58, $4B, $44, $42, $44, $48, $4F, $68
           82D7 48 4F 68 
  245:     82DA 7F 60 50 52 59 55              fcb $7F, $60, $50, $52, $59, $55, $5B, $65, $73
           82E0 5B 65 73 
  246:     82E3 88 62 62 64 69 59              fcb $88, $62, $62, $64, $69, $59, $5E, $69, $79
           82E9 5E 69 79 
  247:     82EC 91 70 71 6B 6A 68              fcb $91, $70, $71, $6B, $6A, $68, $71, $78, $8A
           82F2 71 78 8A 
  248:     82F5 9A 7A 6A 69 70 70              fcb $9A, $7A, $6A, $69, $70, $70, $74, $7E, $88
           82FB 74 7E 88 
  249:     82FE A3 83 6C 64 6A 6A              fcb $A3, $83, $6C, $64, $6A, $6A, $74, $84, $90
           8304 74 84 90 
  250:     8307 D0 90 8A 80 80 82              fcb $D0, $90, $8A, $80, $80, $82, $84, $88, $88
           830D 84 88 88 
  251:     8310 F0 CA A7 9A 92 92              fcb $F0, $CA, $A7, $9A, $92, $92, $92, $8E, $8E
           8316 92 8E 8E 
  252:     8319 FF EF BD A6 A0 A0              fcb $FF, $EF, $BD, $A6, $A0, $A0, $A0, $9E, $9E
           831F A0 9E 9E 
  253:     8322 FF EF B8 B1 A6 A0              fcb $FF, $EF, $B8, $B1, $A6, $A0, $9C, $97, $97
           8328 9C 97 97 
  254:     832B FF FF E2 C1 A2 98              fcb $FF, $FF, $E2, $C1, $A2, $98, $90, $A0, $C0
           8331 90 A0 C0 
  255:     8334 FF FF F4 CB A0 AA              fcb $FF, $FF, $F4, $CB, $A0, $AA, $AC, $CE, $F0
           833A AC CE F0 
  256:     833D FF FF 80 90 A4 BC              fcb $FF, $FF, $80, $90, $A4, $BC, $C8, $E8, $FF
           8343 C8 E8 FF 
  257:     8346 C0 C0 A0 94 9E B0              fcb $C0, $C0, $A0, $94, $9E, $B0, $C3, $CC, $FF
           834C C3 CC FF 
  258:                                 
  259:                                 ;Europe
  260:                                 ;unk_82B3:
  261:                                 ;       fcb $11
  262:                                 ;       fcb $09
  263:                                 ;       fcb $00
  264:                                 ;       fcb $56, $3E, $38, $30, $35, $42, $4C, $51, $5E
  265:                                 ;       fcb $56, $3E, $38, $30, $35, $42, $4C, $51, $5E
  266:                                 ;       fcb $62, $50, $40, $3A, $41, $4C, $55, $59, $67
  267:                                 ;       fcb $79, $62, $50, $4B, $54, $54, $5F, $61, $6F
  268:                                 ;       fcb $8F, $80, $59, $58, $60, $60, $69, $69, $78
  269:                                 ;       fcb $98, $88, $5E, $5A, $62, $63, $66, $6C, $7B
  270:                                 ;       fcb $A1, $90, $63, $63, $68, $66, $68, $6F, $7E
  271:                                 ;       fcb $AA, $98, $70, $67, $68, $69, $6A, $72, $81
  272:                                 ;       fcb $B3, $9C, $75, $6A, $6D, $6C, $6C, $75, $84
  273:                                 ;       fcb $BC, $A0, $72, $69, $70, $6F, $6F, $78, $86
  274:                                 ;       fcb $E0, $C0, $90, $88, $80, $89, $87, $86, $86
  275:                                 ;       fcb $FF, $FF, $D0, $B1, $A3, $98, $93, $8E, $8E
  276:                                 ;       fcb $FF, $FF, $D0, $B1, $A6, $A0, $9C, $97, $97
  277:                                 ;       fcb $FF, $FF, $E2, $C1, $A2, $78, $80, $A0, $C0
  278:                                 ;       fcb $FF, $FF, $F4, $CB, $A0, $AA, $9E, $BE, $F0
  279:                                 ;       fcb $FF, $FF, $80, $90, $A4, $BC, $C8, $D0, $F4
  280:                                 ;       fcb $C0, $C0, $A0, $94, $9E, $B0, $C0, $C8, $F8
  281:                                 
  282:     834F                        TL_HotLoad3DTableOffIdle:
  283:     834F                        unk_834F:
  284:     834F 11                             fcb $11
  285:     8350 09                             fcb $09
  286:     8351 00                             fcb $00
  287:     8352 38 32 2F 2F 2F 3E              fcb $38, $32, $2F, $2F, $2F, $3E, $43, $65, $6E
           8358 43 65 6E 
  288:     835B 4C 4D 3C 39 38 47              fcb $4C, $4D, $3C, $39, $38, $47, $4E, $6E, $79
           8361 4E 6E 79 
  289:     8364 61 69 49 43 40 50              fcb $61, $69, $49, $43, $40, $50, $59, $76, $85
           836A 59 76 85 
  290:     836D 77 6E 51 4C 4A 60              fcb $77, $6E, $51, $4C, $4A, $60, $66, $7D, $84
           8373 66 7D 84 
  291:     8376 8E 74 5A 56 54 70              fcb $8E, $74, $5A, $56, $54, $70, $73, $84, $83
           837C 73 84 83 
  292:     837F A2 85 65 65 62 71              fcb $A2, $85, $65, $65, $62, $71, $74, $87, $88
           8385 74 87 88 
  293:     8388 B6 96 70 73 70 71              fcb $B6, $96, $70, $73, $70, $71, $74, $89, $8D
           838E 74 89 8D 
  294:     8391 BE 99 78 76 74 72              fcb $BE, $99, $78, $76, $74, $72, $78, $8C, $8B
           8397 78 8C 8B 
  295:     839A B6 90 74 6D 72 73              fcb $B6, $90, $74, $6D, $72, $73, $77, $8E, $92
           83A0 77 8E 92 
  296:     83A3 B1 8D 67 65 6B 70              fcb $B1, $8D, $67, $65, $6B, $70, $77, $91, $90
           83A9 77 91 90 
  297:     83AC FF CB 80 7E 7E 7F              fcb $FF, $CB, $80, $7E, $7E, $7F, $80, $95, $89
           83B2 80 95 89 
  298:     83B5 FF F9 A7 96 8C 8C              fcb $FF, $F9, $A7, $96, $8C, $8C, $84, $91, $99
           83BB 84 91 99 
  299:     83BE FF FF CD B2 A5 97              fcb $FF, $FF, $CD, $B2, $A5, $97, $94, $A5, $A4
           83C4 94 A5 A4 
  300:     83C7 FF FF C2 AC A2 9F              fcb $FF, $FF, $C2, $AC, $A2, $9F, $95, $AE, $AB
           83CD 95 AE AB 
  301:     83D0 FF FF C3 AF A4 A4              fcb $FF, $FF, $C3, $AF, $A4, $A4, $A6, $BD, $B0
           83D6 A6 BD B0 
  302:     83D9 FF FF C7 B3 A3 A5              fcb $FF, $FF, $C7, $B3, $A3, $A5, $A2, $BB, $B2
           83DF A2 BB B2 
  303:     83E2 FF FF D4 B8 A4 AC              fcb $FF, $FF, $D4, $B8, $A4, $AC, $AC, $C9, $BF
           83E8 AC C9 BF 
  304:                                 
  305:     83EB                        TL_TL_83EB:
  306:     83EB D0 A4 5E 18 0E 0C      unk_83EB:   fcb $D0, $A4, $5E, $18, $0E, $0C, $06, $06, $06
           83F1 06 06 06 
  307:                                 
  308:     83F4                        TL_TL_83F4:
  309:     83F4 40 38 30 22 12 0C      unk_83F4:   fcb $40, $38, $30, $22, $12, $0C, $08, $08, $04
           83FA 08 08 04 
  310:                                 
  311:     83FD                        TL_TL_83FD:
  312:     83FD C8 90 50 2A 28 18      unk_83FD:   fcb $C8, $90, $50, $2A, $28, $18, $0E, $10, $10
           8403 0E 10 10 
  313:                                 
  314:     8406                        TL_TL_8406:
  315:     8406 2C 28 24 18 0C 08      unk_8406:   fcb $2C, $28, $24, $18, $0C, $08, $00, $00, $00
           840C 00 00 00 
  316:                                 
  317:     840F                        TL_TL_840f:
  318:     840F 00 00 00 00 00 50      unk_840F:   fcb $00, $00, $00, $00, $00, $50, $B0, $C0, $C0
           8415 B0 C0 C0 
  319:                                 
  320:     8418                        TL_TL_8418:
  321:     8418 00 00 00 00 00 00      unk_8418:   fcb $00, $00, $00, $00, $00, $00, $00, $00, $00
           841E 00 00 00 
  322:                                 
  323:     8421                        TL_TL_8421:
  324:     8421 40 37 2B 20 1C 14      unk_8421:   fcb $40, $37, $2B, $20, $1C, $14, $10, $10, $10
           8427 10 10 10 
  325:                                 
  326:     842A 44                     byte_842A:  fcb $44
  327:                                 
  328:     842B                        unk_842B:
  329:     842B 05                             fcb $05
  330:     842C 58 F4 FD 8D                    fcb $58, $F4, $FD, $8D
  331:     8430 80 92 FC 26                    fcb $80, $92, $FC, $26
  332:     8434 94 45 FF 00                    fcb $94, $45, $FF, $00
  333:     8438 C6 13 FF D8                    fcb $C6, $13, $FF, $D8
  334:     843C FF 0A                          fcb $FF, $0A
  335:                                 
  336:     843E                        tl_tl_843e:
  337:     843E                        unk_843E:
  338:     843E 08                             fcb $08
  339:     843F 61 FF FC C0                    fcb $61, $FF, $FC, $C0
  340:     8443 71 CB FB 20                    fcb $71, $CB, $FB, $20
  341:     8447 81 7D FD D3                    fcb $81, $7D, $FD, $D3
  342:     844B 92 58 FE 40                    fcb $92, $58, $FE, $40
  343:     844F A2 3C FF 38                    fcb $A2, $3C, $FF, $38
  344:     8453 C2 23 FF 6D                    fcb $C2, $23, $FF, $6D
  345:     8457 E3 10 FF 6E                    fcb $E3, $10, $FF, $6E
  346:     845B FF 00                          fcb $FF, $00
  347:                                 
  348:     845D F4 C8 90 40 20 14      unk_845D:   fcb $F4, $C8, $90, $40, $20, $14, $10, $0F, $0B
           8463 10 0F 0B 
  349:                                 
  350:     8466 CC CC CC CC CC CC      unk_8466:   fcb $CC, $CC, $CC, $CC, $CC, $CC, $E6, $FF, $FF
           846C E6 FF FF 
  351:                                 
  352:     846F                        unk_846F:
  353:     846F 04                             fcb $04
  354:     8470 0C 00 02 80                    fcb $0C, $00, $02, $80
  355:     8474 18 1E 01 D5                    fcb $18, $1E, $01, $D5
  356:     8478 24 34 0C AB                    fcb $24, $34, $0C, $AB
  357:     847C 2A 80                          fcb $2A, $80
  358:                                 
  359:     847E +0004                   DCB.B $04, $FF ; 4 bytes of 0xFF
  360:                                 
  361:     8482                        unk_8482:
  362:     8482 02                             fcb $02
  363:     8483 00 00 00 00                    fcb $00, $00, $00, $00
  364:     8487 FF 00                          fcb $FF, $00
  365:                                 
  366:     8489 +000C                   DCB.B $0C, $FF ; 12 bytes of 0xFF
  367:                                 
  368:     8495                        TL_TL_8481:
  369:     8495 7D00                   word_8495:  fdb $7D00
  370:                                 
  371:     8497                        TL_TL_8483:
  372:     8497 E8                     byte_8497:  fcb $E8
  373:                                 
  374:     8498                        TL_TL_8484:
  375:     8498 D0                     byte_8498:  fcb $D0
  376:                                 
  377:     8499                        TL_TL_8485:
  378:     8499 00                     byte_8499:  fcb $00 ;North America
  379:                                 ;byte_8499:  fcb $06 ;Europe
  380:                                 
  381:     849A 08 08 08 0A 0C 0E      unk_849A:   fcb $08, $08, $08, $0A, $0C, $0E, $14, $1C, $1C
           84A0 14 1C 1C 
  382:                                 
  383:     84A3 1C 1C 1C 09 09 09      unk_84A3:   fcb $1C, $1C, $1C, $09, $09, $09, $09, $09, $09
           84A9 09 09 09 
  384:                                 
  385:     84AC 10 10 10 20 20 20      unk_84AC:   fcb $10, $10, $10, $20, $20, $20, $20, $20, $20
           84B2 20 20 20 
  386:                                 
  387:     84B5 CF 8E 63 2A 2A 28      unk_84B5:   fcb $CF, $8E, $63, $2A, $2A, $28, $1C, $16, $16
           84BB 1C 16 16 
  388:                                 
  389:     84BE 60 50 40 32 2C 28      unk_84BE:   fcb $60, $50, $40, $32, $2C, $28, $20, $20, $20
           84C4 20 20 20 
  390:                                 
  391:     84C7 50 40 38 30 28 20      unk_84C7:   fcb $50, $40, $38, $30, $28, $20, $10, $10, $10
           84CD 10 10 10 
  392:                                 
  393:     84D0                        TL_MapVoltsAverageFactors1:
  394:     84D0 80 80                  unk_84D0:   fcb $80, $80
  395:                                 
  396:     84D2 7B                     byte_84D2:  fcb $7B
  397:     84D3 50                     byte_84D3:  fcb $50
  398:     84D4 D6                     byte_84D4:  fcb $D6
  399:                                 
  400:     84D5                        TL_RPMAverageFactors1:
  401:     84D5 20 20                  unk_84D5:   fcb $20, $20
  402:     84D7 000A                   word_84D7:  fdb $000A
  403:     84D9 FFEB                   word_84D9:  fdb $FFEB
  404:     84DB 0219                   word_84DB:  fdb $0219
  405:     84DD 76                     byte_84DD:  fcb $76
  406:     84DE 7E                     byte_84DE:  fcb $7E
  407:     84DF 40                     unk_84DF:   fcb $40
  408:     84E0 40                                 fcb $40
  409:     84E1 F0                     byte_84E1:  fcb $F0
  410:                                 
  411:     84E2 44 33 2C 19 1A 20      unk_84E2:   fcb $44, $33, $2C, $19, $1A, $20, $20, $17, $17
           84E8 20 17 17 
  412:                                 
  413:     84EB 06                     byte_84EB:  fcb $06
  414:     84EC 024E                   word_84EC:  fdb $024E
  415:                                 
  416:     84EE                        TL_RPM3DInputModifierFromRPM2:
  417:     84EE                        unk_84EE:
  418:     84EE 05                             fcb $05
  419:     84EF 16 00 04 92                    fcb $16, $00, $04, $92
  420:     84F3 24 40 05 D1                    fcb $24, $40, $05, $D1
  421:     84F7 2F 80 04 00                    fcb $2F, $80, $04, $00
  422:     84FB 3F C0 04 33                    fcb $3F, $C0, $04, $33
  423:     84FF 4E FF                          fcb $4E, $FF
  424:                                 
  425:     8501 +000C                   DCB.B $0C, $FF ; 12 bytes of 0xFF
  426:                                 
  427:     850D                        TL_O2LoLimitForInMiddleDetermination:
  428:     850D                        unk_850D:
  429:     850D 05                             fcb $05
  430:     850E 09                             fcb $09
  431:     850F 00                             fcb $00
  432:     8510 16 16 16 16 16 16              fcb $16, $16, $16, $16, $16, $16, $16, $16, $16
           8516 16 16 16 
  433:     8519 16 16 16 16 16 16              fcb $16, $16, $16, $16, $16, $16, $16, $16, $16
           851F 16 16 16 
  434:     8522 16 16 17 17 17 16              fcb $16, $16, $17, $17, $17, $16, $16, $16, $16
           8528 16 16 16 
  435:     852B 16 16 16 16 16 16              fcb $16, $16, $16, $16, $16, $16, $16, $16, $16
           8531 16 16 16 
  436:     8534 16 16 16 16 16 16              fcb $16, $16, $16, $16, $16, $16, $16, $16, $16
           853A 16 16 16 
  437:                                 
  438:     853D +006C                   DCB.B $6C, $FF ; 108 bytes of 0xFF
  439:                                 
  440:     85A9                        TL_O2HiLimitForInMiddleDetermination:
  441:     85A9                        unk_85A9:
  442:     85A9 05                             fcb $05
  443:     85AA 09                             fcb $09
  444:     85AB 00                             fcb $00
  445:     85AC 1C 1C 1C 1C 1C 1C              fcb $1C, $1C, $1C, $1C, $1C, $1C, $1C, $1E, $1E
           85B2 1C 1E 1E 
  446:     85B5 1C 1C 1E 1F 1F 1F              fcb $1C, $1C, $1E, $1F, $1F, $1F, $1F, $1F, $1F
           85BB 1F 1F 1F 
  447:     85BE 1E 1E 1F 1F 1F 1F              fcb $1E, $1E, $1F, $1F, $1F, $1F, $20, $21, $21
           85C4 20 21 21 
  448:     85C7 1E 1E 20 20 20 20              fcb $1E, $1E, $20, $20, $20, $20, $21, $22, $22
           85CD 21 22 22 
  449:     85D0 22 22 22 22 22 22              fcb $22, $22, $22, $22, $22, $22, $22, $22, $22
           85D6 22 22 22 
  450:                                 
  451:     85D9 +006C                   DCB.B $6C, $FF ; 108 bytes of 0xFF
  452:                                 
  453:     8645 0A                     byte_8645:  fcb $0A
  454:     8646 0C                     byte_8646:  fcb $0C
  455:     8647 20                     byte_8647:  fcb $20
  456:     8648 20                     byte_8648:  fcb $20
  457:     8649 04                     byte_8649:  fcb $04
  458:     864A 02                     byte_864A:  fcb $02
  459:     864B 60                     byte_864B:  fcb $60
  460:     864C 0C                     byte_864C:  fcb $0C
  461:     864D FE                     byte_864D:  fcb $FE
  462:     864E 57                     byte_864E:  fcb $57
  463:     864F 0A                     unk_864F:   fcb $0A
  464:     8650 08                     byte_8650:  fcb $08
  465:     8651 05                     byte_8651:  fcb $05
  466:     8652 60                     byte_8652:  fcb $60
  467:     8653 20                     unk_8653:   fcb $20
  468:     8654 FF                     byte_8654:  fcb $FF ;North America
  469:                                 ;byte_8654:  fcb $06 ;Europe
  470:     8655 0E                     byte_8655:  fcb $0E
  471:     8656 04                                 fcb $04
  472:     8657 1F                     byte_8657:  fcb $1F
  473:     8658 05                     byte_8658:  fcb $05
  474:     8659 80                     byte_8659:  fcb $80
  475:     865A 18                     unk_865A:   fcb $18
  476:     865B C0                                 fcb $C0
  477:     865C D6                     byte_865C:  fcb $D6
  478:     865D 08                     byte_865D:  fcb $08
  479:     865E 18                     byte_865E:  fcb $18
  480:     865F 55                     byte_865F:  fcb $55
  481:     8660 FF                     byte_8660:  fcb $FF
  482:     8661 01                     byte_8661:  fcb $01
  483:     8662 38                     byte_8662:  fcb $38
  484:                                 
  485:     8663 10                     unk_8663:   fcb $10
  486:     8664 07                                 fcb $07
  487:     8665 A0                                 fcb $A0
  488:     8666 00                                 fcb $00
  489:     8667 C0                                 fcb $C0
  490:                                 
  491:     8668 08                     unk_8668:   fcb $08
  492:     8669 03                                 fcb $03
  493:     866A 90                                 fcb $90
  494:     866B 00                                 fcb $00
  495:     866C E0                                 fcb $E0
  496:                                 
  497:     866D A8                     byte_866D:  fcb $A8
  498:     866E 6C                     byte_866E:  fcb $6C
  499:     866F 10                     byte_866F:  fcb $10
  500:     8670 04                     byte_8670:  fcb $04
  501:     8671 00                     byte_8671:  fcb $00
  502:     8672 0A                     byte_8672:  fcb $0A
  503:     8673 6D                     byte_8673:  fcb $6D
  504:     8674 36                     byte_8674:  fcb $36
  505:     8675 22                     byte_8675:  fcb $22
  506:     8676 5A                     byte_8676:  fcb $5A
  507:     8677 F2                     byte_8677:  fcb $F2
  508:     8678 36                     byte_8678:  fcb $36
  509:     8679 0001                   word_8679:  fdb $0001
  510:     867B 6A                     byte_867B:  fcb $6A
  511:     867C 80                     byte_867C:  fcb $80
  512:     867D 0384                   word_867D:  fdb $0384
  513:     867F 02                     byte_867F:  fcb $02
  514:     8680 BF                     byte_8680:  fcb $BF
  515:     8681 DB                     byte_8681:  fcb $DB
  516:     8682 03                     byte_8682:  fcb $03
  517:     8683 01                     byte_8683:  fcb $01
  518:     8684 03                     byte_8684:  fcb $03
  519:     8685 14                     byte_8685:  fcb $14
  520:     8686 94                     byte_8686:  fcb $94
  521:     8687 0000                   word_8687:  fdb $0000
  522:     8689 0000                   word_8689:  fdb $0000
  523:     868B 00                     byte_868B:  fcb $00
  524:     868C 02                     byte_868C:  fcb $02
  525:     868D 0320                   word_868D:  fdb $0320
  526:     868F 5DC0                   word_868F:  fdb $5DC0
  527:     8691 0640                   word_8691:  fdb $0640
  528:     8693 E0                     byte_8693:  fcb $E0
  529:     8694 06                     byte_8694:  fcb $06
  530:     8695 A600                   word_8695:  fdb $A600
  531:     8697 0190                   word_8697:  fdb $0190
  532:     8699 58                     byte_8699:  fcb $58
  533:     869A 01                     byte_869A:  fcb $01
  534:     869B 038D                   word_869B:  fdb $038D
  535:     869D 0A                     byte_869D:  fcb $0A
  536:     869E 1C                     byte_869E:  fcb $1C
  537:     869F 1C                     byte_869F:  fcb $1C
  538:                                 
  539:     86A0                        TL_SparkAdvanceAddedWhenRpmBelowControl_FromDeltaRpm:
  540:     86A0                        unk_86A0:
  541:     86A0 02                             fcb $02
  542:     86A1 05 00 02 00                    fcb $05, $00, $02, $00
  543:     86A5 0C 0E                          fcb $0C, $0E
  544:                                 
  545:     86A7 +0004                   DCB.B $04, $FF ; 4 bytes of 0xFF
  546:                                 
  547:     86AB                        TL_SparkAdvanceRetardedWhenRpmAboveControl_FromDeltaRpm:
  548:     86AB                        unk_86AB:
  549:     86AB 02                             fcb $02
  550:     86AC 05 00 FF 9A                    fcb $05, $00, $FF, $9A
  551:     86B0 0F FC                          fcb $0F, $FC
  552:                                 
  553:     86B2 +0004                   DCB.B $04, $FF ; 4 bytes of 0xFF
  554:                                 
  555:     86B6                        TL_MinVoltageForAis:
  556:     86B6 71                     byte_86B6:  fcb $71
  557:                                 
  558:     86B7                        TL_BrakeOverrideForAis_FromDeltaThrottle:
  559:     86B7                        unk_86B7:
  560:     86B7 03                             fcb $03
  561:     86B8 FF FF 00 00                    fcb $FF, $FF, $00, $00
  562:     86BC FF FF 00 00                    fcb $FF, $FF, $00, $00
  563:     86C0 FF FF                          fcb $FF, $FF
  564:                                 
  565:     86C2                        TL_AisStartupPosition_FromTemp:
  566:     86C2                        unk_86C2:
  567:     86C2 05                             fcb $05
  568:     86C3 6A C8 FC E9                    fcb $6A, $C8, $FC, $E9
  569:     86C7 80 84 FD 80                    fcb $80, $84, $FD, $80
  570:     86CB 94 52 FF 80                    fcb $94, $52, $FF, $80
  571:     86CF C0 3C 00 00                    fcb $C0, $3C, $00, $00
  572:     86D3 F8 3C                          fcb $F8, $3C
  573:                                 
  574:     86D5                        unk_86D5:
  575:     86D5 03                             fcb $03
  576:     86D6 9A 10 FF D3                    fcb $9A, $10, $FF, $D3
  577:     86DA C8 08 FF CD                    fcb $C8, $08, $FF, $CD
  578:     86DE F0 00                          fcb $F0, $00
  579:                                 
  580:     86E0 10                     byte_86E0:  fcb $10
  581:     86E1 94                     byte_86E1:  fcb $94
  582:     86E2 28                     byte_86E2:  fcb $28
  583:     86E3 FF                     byte_86E3:  fcb $FF
  584:     86E4 E0                     byte_86E4:  fcb $E0
  585:                                 
  586:     86E5                        TL_ACOffIdleDelta_FromSpeed:
  587:     86E5                        unk_86E5:
  588:     86E5 04                             fcb $04
  589:     86E6 28 10 00 00                    fcb $28, $10, $00, $00
  590:     86EA 3C 10 00 00                    fcb $3C, $10, $00, $00
  591:     86EE 50 10 00 66                    fcb $50, $10, $00, $66
  592:     86F2 78 20                          fcb $78, $20
  593:                                 
  594:     86F4                        TL_AISAddedFromTimeEngRunning:
  595:     86F4 00                     byte_86F4:  fcb $00
  596:                                 
  597:     86F5                        TL_AisColdPosition_FromTemp:
  598:     86F5                        unk_86F5:
  599:     86F5 04                             fcb $04
  600:     86F6 68 58 FE 80                    fcb $68, $58, $FE, $80
  601:     86FA 80 34 FF 80                    fcb $80, $34, $FF, $80
  602:     86FE A8 20 FF 33                    fcb $A8, $20, $FF, $33
  603:     8702 D0 00                          fcb $D0, $00
  604:                                 
  605:     8704                        unk_8704:
  606:     8704 03                             fcb $03
  607:     8705 00 00 00 00                    fcb $00, $00, $00, $00
  608:     8709 10 00 00 00                    fcb $10, $00, $00, $00
  609:     870D 1A 00                          fcb $1A, $00
  610:                                 
  611:                                 
  612:     870F                        TL_AisPosition_FromThrottle:
  613:     870F                        unk_870F:
  614:     870F 04                             fcb $04
  615:     8710 00 00 00 00                    fcb $00, $00, $00, $00
  616:     8714 02 00 00 00                    fcb $02, $00, $00, $00
  617:     8718 05 00 00 00                    fcb $05, $00, $00, $00
  618:     871C 1E 00                          fcb $1E, $00
  619:                                 
  620:     871E                        TL_AisPosition_FromRpm:
  621:     871E                        unk_871E:
  622:     871E 04                             fcb $04
  623:     871F 20 00 00 92                    fcb $20, $00, $00, $92
  624:     8723 2E 08 00 00                    fcb $2E, $08, $00, $00
  625:     8727 3F 08 00 00                    fcb $3F, $08, $00, $00
  626:     872B 5E 08                          fcb $5E, $08
  627:                                 
  628:     872D                        unk_872D:
  629:     872D 03                             fcb $03
  630:     872E 9A 4C FF DF                    fcb $9A, $4C, $FF, $DF
  631:     8732 C8 46 FF DA                    fcb $C8, $46, $FF, $DA
  632:     8736 F0 40                          fcb $F0, $40
  633:                                 
  634:     8738                        TL_IdleSpeedParkNeutral_FromTemp:
  635:     8738                        unk_8738:
  636:     8738 05                             fcb $05
  637:     8739 68 80 FF A3                    fcb $68, $80, $FF, $A3
  638:     873D 94 70 FF 8D                    fcb $94, $70, $FF, $8D
  639:     8741 A8 67 FF AD                    fcb $A8, $67, $FF, $AD
  640:     8745 D0 5A 00 00                    fcb $D0, $5A, $00, $00
  641:     8749 F8 5A                          fcb $F8, $5A
  642:                                 
  643:     874B                        TL_IdleSpeedDrive_FromTemp:
  644:     874B                        unk_874B:
  645:     874B 05                             fcb $05
  646:     874C 68 80 FF A3                    fcb $68, $80, $FF, $A3
  647:     8750 94 70 FF 8D                    fcb $94, $70, $FF, $8D
  648:     8754 A8 67 FF AD                    fcb $A8, $67, $FF, $AD
  649:     8758 D0 5A 00 00                    fcb $D0, $5A, $00, $00
  650:     875C F8 5A                          fcb $F8, $5A
  651:                                 
  652:     875E                        TL_DecelAisBaseAirflowCurveOffset_FromTime2:
  653:     875E                        unk_875E:
  654:     875E 02                             fcb $02
  655:     875F 00 00 00 00                    fcb $00, $00, $00, $00
  656:     8763 00 00                          fcb $00, $00
  657:                                 
  658:     8765 +0004                   DCB.B $04, $FF ; 4 bytes of 0xFF
  659:                                 
  660:     8769 5A                     byte_8769:  fcb $5A
  661:     876A 64                     byte_876A:  fcb $64
  662:                                 
  663:     876B                        TL_ForwardAisSteps_NoSlope:
  664:     876B                        unk_876B:
  665:     876B 05                             fcb $05
  666:     876C 28 01 00 00                    fcb $28, $01, $00, $00
  667:     8770 4B 02 00 00                    fcb $4B, $02, $00, $00
  668:     8774 5A 02 00 00                    fcb $5A, $02, $00, $00
  669:     8778 78 02 00 00                    fcb $78, $02, $00, $00
  670:     877C 96 03                          fcb $96, $03
  671:                                 
  672:     877E                        TL_ReverseAisSteps_NoSlope:
  673:     877E                        unk_877E:
  674:     877E 05                             fcb $05
  675:     877F 32 FF 00 00                    fcb $32, $FF, $00, $00
  676:     8783 64 FE 00 00                    fcb $64, $FE, $00, $00
  677:     8787 A6 FD 00 00                    fcb $A6, $FD, $00, $00
  678:     878B C8 FC 00 00                    fcb $C8, $FC, $00, $00
  679:     878F FF F7                          fcb $FF, $F7
  680:                                 
  681:     8791 0C                     byte_8791:  fcb $0C
  682:     8792 04                     byte_8792:  fcb $04
  683:     8793 F4                     byte_8793:  fcb $F4
  684:                                 
  685:     8794 00 00 00 00 00 00      unk_8794:   fcb $00, $00, $00, $00, $00, $00, $00, $00, $00
           879A 00 00 00 
  686:                                 
  687:     879D 2F                     byte_879D:  fcb $2F
  688:                                 
  689:     879E 00 00 00 00 00 00      unk_879E:   fcb $00, $00, $00, $00, $00, $00, $00, $00, $00
           87A4 00 00 00 
  690:                                 
  691:     87A7                        TL_AisPeriodForRpmFeedback11ms:
  692:     87A7 38                     byte_87A7:  fcb $38
  693:                                 
  694:     87A8                        TL_AisHighLimitMaxOpenSteps:
  695:     87A8 D8                     byte_87A8:  fcb $D8
  696:                                 
  697:     87A9                        TL_AisDelayAfterThrottleClosesWhenMoving:
  698:     87A9 8B 8B                  unk_87A9:   fcb $8B, $8B
  699:                                 
  700:     87AB                        TL_UpdateRateOffIdleWhenAisClosing:
  701:     87AB FF                     byte_87AB:  fcb $FF
  702:                                 
  703:     87AC                        TL_PositionAisMotorIsAtIdle:
  704:     87AC 10                     byte_87AC:  fcb $10
  705:                                 
  706:     87AD                        TL_AISAddedFromTimeEngRunning2:
  707:     87AD 00                     byte_87AD:  fcb $00
  708:                                 
  709:     87AE                        TL_DeltaRpmChangeToUse_DRPNK_or_PNDRK:
  710:     87AE                        unk_87AE:
  711:     87AE 03                             fcb $03
  712:     87AF 80 F0 FF 66                    fcb $80, $F0, $FF, $66
  713:     87B3 94 E4 00 32                    fcb $94, $E4, $00, $32
  714:     87B7 D2 F0                          fcb $D2, $F0
  715:                                 
  716:     87B9                        TL_DeltaRpmChangeToUse_DRPNK_or_PNDRK2
  717:     87B9                        unk_87B9:
  718:     87B9 03                             fcb $03
  719:     87BA 80 10 00 66                    fcb $80, $10, $00, $66
  720:     87BE 94 18 FF DF                    fcb $94, $18, $FF, $DF
  721:     87C2 D2 10                          fcb $D2, $10
  722:                                 
  723:     87C4                        TL_AISDecel_FromBaro:
  724:     87C4                        unk_87C4:
  725:     87C4 03                             fcb $03
  726:     87C5 9A DC 00 6F                    fcb $9A, $DC, $00, $6F
  727:     87C9 C8 F0 00 66                    fcb $C8, $F0, $00, $66
  728:     87CD F0 00                          fcb $F0, $00
  729:                                 
  730:     87CF +0008                   DCB.B $08, $FF ; 8 bytes of 0xFF
  731:                                 
  732:     87D7                        unk_87D7:
  733:     87D7 02                             fcb $02
  734:     87D8 0B 00 00 00                    fcb $0B, $00, $00, $00
  735:     87DC 1B 00                          fcb $1B, $00
  736:                                 
  737:     87DE +0004                   DCB.B $04, $FF ; 4 bytes of 0xFF
  738:                                 
  739:     87E2                        TL_AISDecel_FromTemp:
  740:     87E2                        unk_87E2:
  741:     87E2 05                             fcb $05
  742:     87E3 68 36 FF AB                    fcb $68, $36, $FF, $AB
  743:     87E7 80 2E FF 8B                    fcb $80, $2E, $FF, $8B
  744:     87EB B0 18 FF 8E                    fcb $B0, $18, $FF, $8E
  745:     87EF D4 08 FE 00                    fcb $D4, $08, $FE, $00
  746:     87F3 D8 00                          fcb $D8, $00
  747:                                 
  748:     87F5                        TL_AdditionToControlMap:
  749:     87F5                        unk_87F5:
  750:     87F5 04                             fcb $04
  751:     87F6 19 00 00 00                    fcb $19, $00, $00, $00
  752:     87FA 1F 00 00 00                    fcb $1F, $00, $00, $00
  753:     87FE 26 00 00 00                    fcb $26, $00, $00, $00
  754:     8802 70 00                          fcb $70, $00
  755:                                 
  756:     8804                        TL_OffsetCorrectionTo_MAPFLR_FromBaro:
  757:     8804                        unk_8804:
  758:     8804 03                             fcb $03
  759:     8805 9A 00 00 00                    fcb $9A, $00, $00, $00
  760:     8809 C8 00 00 00                    fcb $C8, $00, $00, $00
  761:     880D F0 00                          fcb $F0, $00
  762:                                 
  763:     880F                        TL_TempTermForMapOffset_FromTemp:
  764:     880F                        unk_880F:
  765:     880F 02                             fcb $02
  766:     8810 90 FF 00 00                    fcb $90, $FF, $00, $00
  767:     8814 C7 FF                          fcb $C7, $FF
  768:                                 
  769:     8816 +0004                   DCB.B $04, $FF ; 4 bytes of 0xFF
  770:                                 
  771:     881A                        TL_DecelAisOpenStepsFromNeg_FromDeltaMap:
  772:     881A                        unk_881A:
  773:     881A 04                             fcb $04
  774:     881B 0F 00 01 00                    fcb $0F, $00, $01, $00
  775:     881F 11 02 00 80                    fcb $11, $02, $00, $80
  776:     8823 13 03 00 AB                    fcb $13, $03, $00, $AB
  777:     8827 16 05                          fcb $16, $05
  778:                                 
  779:     8829                        TL_DecelAisOpenStepsFromPos_FromDeltaMap:
  780:     8829                        unk_8829:
  781:     8829 04                             fcb $04
  782:     882A 05 00 FF CD                    fcb $05, $00, $FF, $CD
  783:     882E 0A FF FF CD                    fcb $0A, $FF, $FF, $CD
  784:     8832 0F FE 00 00                    fcb $0F, $FE, $00, $00
  785:     8836 14 FE                          fcb $14, $FE
  786:                                 
  787:     8838                        TL_TimeBetweenAisPulsesForDecelAis:
  788:     8838 20                     byte_8838:  fcb $20
  789:                                 
  790:     8839                        TL_EngineTempToStartCalibratingDacal:
  791:     8839 D6                     byte_8839:  fcb $D6
  792:                                 
  793:     883A                        TL_DeltaRpmFromIdleSpeedForDacalUpdate:
  794:     883A 02                     byte_883A:  fcb $02
  795:                                 
  796:     883B                        TL_ACFactorDeltaFromBase:
  797:     883B 10                     byte_883B:  fcb $10
  798:                                 
  799:     883C 3D                     byte_883C:  fcb $3D
  800:                                 
  801:     883D                        TL_Base_nominalCal:
  802:     883D 00                     byte_883D:  fcb $00
  803:                                 
  804:     883E                        TL_DacalInhibitTimeAfterStartup:
  805:     883E 10                     byte_883E:  fcb $10
  806:                                 
  807:     883F                        TL_DacalUpdateRate01_03_07_0f_1f_3f_7f_ff:
  808:     883F 7F                     byte_883F:  fcb $7F
  809:                                 
  810:     8840 80                     byte_8840:  fcb $80
  811:     8841 05                     byte_8841:  fcb $05
  812:     8842 11F8                   word_8842:  fdb $11F8
  813:     8844 2D                     byte_8844:  fcb $2D
  814:     8845 90                     byte_8845:  fcb $90
  815:     8846 88                     byte_8846:  fcb $88
  816:     8847 FD                     byte_8847:  fcb $FD
  817:     8848 FFA0                   word_8848:  fdb $FFA0
  818:     884A FF00                   word_884A:  fdb $FF00
  819:     884C 02                     byte_884C:  fcb $02
  820:     884D 00                     byte_884D:  fcb $00
  821:     884E 07                     byte_884E:  fcb $07
  822:     884F 04                     byte_884F:  fcb $04
  823:     8850 FF                     byte_8850:  fcb $FF
  824:     8851 FF                     byte_8851:  fcb $FF
  825:     8852 1B                     byte_8852:  fcb $1B
  826:     8853 0A                     byte_8853:  fcb $0A
  827:     8854 04                     byte_8854:  fcb $04
  828:     8855 70                     byte_8855:  fcb $70
  829:     8856 03                     byte_8856:  fcb $03
  830:     8857 9B                     byte_8857:  fcb $9B
  831:     8858 A0                     byte_8858:  fcb $A0
  832:     8859 FF                     byte_8859:  fcb $FF
  833:     885A FE                     byte_885A:  fcb $FE
  834:                                 
  835:     885B                        TL_FanTurnOnTempAbove45Mph:
  836:     885B E7                     unk_885B:   fcb $E7
  837:                                 
  838:     885C                        TL_FanTurnOnTempAbove45Mph2:
  839:     885C E2                                 fcb $E2
  840:                                 
  841:     885D                        TL_FanTurnOnTempAbove45Mph3:
  842:     885D E7                                 fcb $E7
  843:                                 
  844:     885E                        TL_FanTurnOnTempAbove45Mph4:
  845:     885E E2                                 fcb $E2
  846:                                 
  847:     885F 0B9B                   word_885F:  fdb $0B9B
  848:     8861 00C0                   word_8861:  fdb $00C0
  849:     8863 15                     byte_8863:  fcb $15
  850:     8864 C0                     byte_8864:  fcb $C0
  851:     8865 92                     byte_8865:  fcb $92
  852:     8866 00                     byte_8866:  fcb $00
  853:     8867 20                     byte_8867:  fcb $20
  854:     8868 32                     byte_8868:  fcb $32
  855:     8869 00                     byte_8869:  fcb $00
  856:     886A 06                     byte_886A:  fcb $06
  857:     886B 40                     byte_886B:  fcb $40
  858:                                 
  859:     886C                        unk_886C:
  860:     886C 06                             fcb $06
  861:     886D 1C 24 00 E7                    fcb $1C, $24, $00, $E7
  862:     8871 3B 40 05 C0                    fcb $3B, $40, $05, $C0
  863:     8875 3F 57 06 AB                    fcb $3F, $57, $06, $AB
  864:     8879 42 6B 00 00                    fcb $42, $6B, $00, $00
  865:     887D 54 6B 00 00                    fcb $54, $6B, $00, $00
  866:     8881 54 A8                          fcb $54, $A8
  867:                                 
  868:     8883                        unk_8883:
  869:     8883 04                             fcb $04
  870:     8884 1F 0F 00 F7                    fcb $1F, $0F, $00, $F7
  871:     8888 74 61 00 00                    fcb $74, $61, $00, $00
  872:     888C 8A 61 00 00                    fcb $8A, $61, $00, $00
  873:     8890 8A A8                          fcb $8A, $A8
  874:                                 
  875:     8892 +0008                   DCB.B $08, $FF ; 8 bytes of 0xFF
  876:                                 
  877:     889A                        unk_889A:
  878:     889A 04                             fcb $04
  879:     889B 1F 0F 00 F7                    fcb $1F, $0F, $00, $F7
  880:     889F 74 61 00 00                    fcb $74, $61, $00, $00
  881:     88A3 8A 61 00 00                    fcb $8A, $61, $00, $00
  882:     88A7 8A A8                          fcb $8A, $A8
  883:                                 
  884:     88A9 +0008                   DCB.B $08, $FF ; 8 bytes of 0xFF
  885:                                 
  886:     88B1                        TL_PTUMinLockTemperature:
  887:     88B1 B8                     byte_88B1:  fcb $B8
  888:                                 
  889:     88B2                        TL_PTUCounterTimerIntervalForLoop:
  890:     88B2 07                     byte_88B2:  fcb $07
  891:                                 
  892:     88B3                        TL_PTUMinLockSpeed:
  893:     88B3 7C                     byte_88B3:  fcb $7C
  894:                                 
  895:     88B4                        TL_PTUMAPThresholdForLock3:
  896:     88B4 14                     byte_88B4:  fcb $14
  897:                                 
  898:     88B5                        TL_PTUDeltaTPSForUnlock:
  899:     88B5 66                     byte_88B5:  fcb $66
  900:                                 
  901:     88B6                        TL_PTUMAPThresholdForLock1:
  902:     88B6 81 18                  unk_88B6:   fcb $81, $18
  903:                                 
  904:     88B8                        TL_PTUCounterHiSpeed:
  905:     88B8 20                     byte_88B8:  fcb $20
  906:                                 
  907:     88B9                        TL_PTUCounterLoSpeed:
  908:     88B9 11                     byte_88B9:  fcb $11
  909:                                 
  910:     88BA 00                     byte_88BA:  fcb $00
  911:                                 
  912:     88BB                        TL_UpperLimitForPTULock:
  913:     88BB                        unk_88BB:
  914:     88BB 04                             fcb $04
  915:     88BC 64 0F 00 00                    fcb $64, $0F, $00, $00
  916:     88C0 64 2E 00 AB                    fcb $64, $2E, $00, $AB
  917:     88C4 82 42 00 00                    fcb $82, $42, $00, $00
  918:     88C8 82 A8                          fcb $82, $A8
  919:                                 
  920:     88CA                        TL_LowerLimitForPTULock:
  921:     88CA 02                             fcb $02
  922:     88CB 64 0F 00 00                    fcb $64, $0F, $00, $00
  923:     88CF 96 0F                          fcb $96, $0F
  924:                                 
  925:     88D1 +0008                   DCB.B $08, $FF ; 8 bytes of 0xFF
  926:                                 
  927:     88D9                        TL_UpperLimitForPTUUnlock:
  928:     88D9                        unk_88D9:
  929:     88D9 04                             fcb $04
  930:     88DA 5E 05 00 00                    fcb $5E, $05, $00, $00
  931:     88DE 5E 33 00 AB                    fcb $5E, $33, $00, $AB
  932:     88E2 7C 47 00 00                    fcb $7C, $47, $00, $00
  933:     88E6 7C A8                          fcb $7C, $A8
  934:                                 
  935:     88E8                        TL_LowerLimitForPTUUnlock:
  936:     88E8 02                             fcb $02
  937:     88E9 5E 05 00 00                    fcb $5E, $05, $00, $00
  938:     88ED 96 05                          fcb $96, $05
  939:                                 
  940:     88EF +0008                   DCB.B $08, $FF ; 8 bytes of 0xFF
  941:                                 
  942:     88F7 50                     byte_88F7:  fcb $50
  943:     88F8 20                     byte_88F8:  fcb $20
  944:     88F9 1A                     byte_88F9:  fcb $1A
  945:     88FA 10                     byte_88FA:  fcb $10
  946:     88FB 0A                     byte_88FB:  fcb $0A
  947:     88FC 05                     byte_88FC:  fcb $05
  948:     88FD 10                     byte_88FD:  fcb $10
  949:     88FE 0F                     byte_88FE:  fcb $0F
  950:     88FF 49                     byte_88FF:  fcb $49
  951:     8900 07                     byte_8900:  fcb $07
  952:                                 
  953:     8901 FF FF 41 41 41 35      unk_8901:   fcb $FF, $FF, $41, $41, $41, $35, $38, $3B, $3B
           8907 38 3B 3B 
  954:                                 
  955:     890A 08                     byte_890A:  fcb $08
  956:     890B 14                     byte_890B:  fcb $14
  957:     890C 71                     byte_890C:  fcb $71
  958:     890D FE                     byte_890D:  fcb $FE
  959:     890E F0                     byte_890E:  fcb $F0
  960:     890F 02                     byte_890F:  fcb $02
  961:     8910 52                     byte_8910:  fcb $52
  962:     8911 3A                     byte_8911:  fcb $3A
  963:     8912 04                     byte_8912:  fcb $04
  964:     8913 A0                     byte_8913:  fcb $A0
  965:     8914 AA                     byte_8914:  fcb $AA
  966:     8915 46                     byte_8915:  fcb $46
  967:     8916 40                     byte_8916:  fcb $40
  968:     8917 00                     byte_8917:  fcb $00
  969:     8918 3C                     byte_8918:  fcb $3C
  970:     8919 9A                     byte_8919:  fcb $9A
  971:     891A 05                     byte_891A:  fcb $05
  972:     891B 00                                 fcb $00
  973:     891C 2D                                 fcb $2D
  974:     891D 00                     byte_891D:  fcb $00
  975:     891E 00                     byte_891E:  fcb $00
  976:     891F 02                     byte_891F:  fcb $02
  977:     8920 01                     byte_8920:  fcb $01
  978:     8921 01                     byte_8921:  fcb $01
  979:     8922 03                     byte_8922:  fcb $03
  980:     8923 03                     byte_8923:  fcb $03
  981:     8924 40                     byte_8924:  fcb $40
  982:     8925 20                     byte_8925:  fcb $20
  983:     8926 04                     byte_8926:  fcb $04
  984:     8927 18                     byte_8927:  fcb $18
  985:     8928 06                     byte_8928:  fcb $06
  986:     8929 74                     byte_8929:  fcb $74
  987:     892A 00                     byte_892A:  fcb $00
  988:     892B 04                     byte_892B:  fcb $04
  989:     892C 10                     byte_892C:  fcb $10
  990:     892D F0                     byte_892D:  fcb $F0
  991:     892E 04                     byte_892E:  fcb $04
  992:     892F 04                     byte_892F:  fcb $04
  993:     8930 28                     byte_8930:  fcb $28
  994:     8931 D8                     byte_8931:  fcb $D8
  995:     8932 0B                     byte_8932:  fcb $0B
  996:     8933 08                     byte_8933:  fcb $08
  997:                                 
  998:     8934                        unk_8934:
  999:     8934 04                             fcb $04
 1000:     8935 00 00 FF F4                    fcb $00, $00, $FF, $F4
 1001:     8939 40 FD FF D4                    fcb $40, $FD, $FF, $D4
 1002:     893D 80 F2 FF F0                    fcb $80, $F2, $FF, $F0
 1003:     8941 C0 EE                          fcb $C0, $EE
 1004:                                 
 1005:     8943                        unk_8943:
 1006:     8943 05                             fcb $05
 1007:     8944 00 00 00 30                    fcb $00, $00, $00, $30
 1008:     8948 10 03 00 1B                    fcb $10, $03, $00, $1B
 1009:     894C 40 08 00 18                    fcb $40, $08, $00, $18
 1010:     8950 80 0E 00 0C                    fcb $80, $0E, $00, $0C
 1011:     8954 FF 14                          fcb $FF, $14
 1012:                                 
 1013:     8956 +0004                   DCB.B $04, $FF ; 4 bytes of 0xFF
 1014:                                 
 1015:     895A                        unk_895A:
 1016:     895A 04                             fcb $04
 1017:     895B 00 00 01 00                    fcb $00, $00, $01, $00
 1018:     895F 10 10 00 F0                    fcb $10, $10, $00, $F0
 1019:     8963 20 1F 00 88                    fcb $20, $1F, $00, $88
 1020:     8967 40 30                          fcb $40, $30
 1021:                                 
 1022:     8969                        unk_8969:
 1023:     8969 04                             fcb $04
 1024:     896A 46 22 00 22                    fcb $46, $22, $00, $22
 1025:     896E 64 26 00 33                    fcb $64, $26, $00, $33
 1026:     8972 82 2C 00 33                    fcb $82, $2C, $00, $33
 1027:     8976 A0 32                          fcb $A0, $32
 1028:                                 
 1029:     8978                        unk_8978:
 1030:     8978 06                             fcb $06
 1031:     8979 30 9B FF 50                    fcb $30, $9B, $FF, $50
 1032:     897D 40 90 FF 70                    fcb $40, $90, $FF, $70
 1033:     8981 50 87 FF 90                    fcb $50, $87, $FF, $90
 1034:     8985 60 80 00 00                    fcb $60, $80, $00, $00
 1035:     8989 90 80 FF 30                    fcb $90, $80, $FF, $30
 1036:     898D B0 66                          fcb $B0, $66
 1037:                                 
 1038:     898F                        unk_898F:
 1039:     898F 04                             fcb $04
 1040:     8990 80 80 00 33                    fcb $80, $80, $00, $33
 1041:     8994 8A 82 00 1A                    fcb $8A, $82, $00, $1A
 1042:     8998 A8 85 00 1A                    fcb $A8, $85, $00, $1A
 1043:     899C C6 88                          fcb $C6, $88
 1044:                                 
 1045:     899E +0010                   DCB.B $10, $FF ; 16 bytes of 0xFF
 1046:                                 
 1047:     89AE                        unk_89AE:
 1048:     89AE 04                             fcb $04
 1049:     89AF 3C 16 FF 73                    fcb $3C, $16, $FF, $73
 1050:     89B3 50 0B FF A6                    fcb $50, $0B, $FF, $A6
 1051:     89B7 64 04 FF E6                    fcb $64, $04, $FF, $E6
 1052:     89BB 82 01                          fcb $82, $01
 1053:                                 
 1054:     89BD                        unk_89BD:
 1055:     89BD 03                             fcb $03
 1056:     89BE 00 10 00 5D                    fcb $00, $10, $00, $5D
 1057:     89C2 16 18 FF A3                    fcb $16, $18, $FF, $A3
 1058:     89C6 2C 10                          fcb $2C, $10
 1059:                                 
 1060:     89C8 +0004                   DCB.B $04, $FF ; 4 bytes of 0xFF
 1061:                                 
 1062:     89CC                        unk_89CC:
 1063:     89CC 02                             fcb $02
 1064:     89CD 02 14 07 00                    fcb $02, $14, $07, $00
 1065:     89D1 04 22                          fcb $04, $22
 1066:                                 
 1067:     89D3 +0004                   DCB.B $04, $FF ; 4 bytes of 0xFF
 1068:                                 
 1069:     89D7                        unk_89D7:
 1070:     89D7 02                             fcb $02
 1071:     89D8 20 E0 FF 00                    fcb $20, $E0, $FF, $00
 1072:     89DC 30 D0                          fcb $30, $D0
 1073:                                 
 1074:     89DE +0008                   DCB.B $08, $FF ; 8 bytes of 0xFF
 1075:                                 
 1076:     89E6                        unk_89E6:
 1077:     89E6 02                             fcb $02
 1078:     89E7 90 00 00 60                    fcb $90, $00, $00, $60
 1079:     89EB 98 03                          fcb $98, $03
 1080:                                 
 1081:     89ED +0004                   DCB.B $04, $FF ; 4 bytes of 0xFF
 1082:                                 
 1083:     89F1                        unk_89F1:
 1084:     89F1 03                             fcb $03
 1085:     89F2 90 FF FA B5                    fcb $90, $FF, $FA, $B5
 1086:     89F6 A8 80 FC CD                    fcb $A8, $80, $FC, $CD
 1087:     89FA D0 00                          fcb $D0, $00
 1088:                                 
 1089:     89FC                        unk_89FC:
 1090:     89FC 03                             fcb $03
 1091:     89FD 60 00 00 00                    fcb $60, $00, $00, $00
 1092:     8A01 78 00 00 00                    fcb $78, $00, $00, $00
 1093:     8A05 80 00                          fcb $80, $00
 1094:                                 
 1095:     8A07                        unk_8A07:
 1096:     8A07 03                             fcb $03
 1097:     8A08 80 00 00 00                    fcb $80, $00, $00, $00
 1098:     8A0C 94 00 00 00                    fcb $94, $00, $00, $00
 1099:     8A10 A8 00                          fcb $A8, $00
 1100:                                 
 1101:     8A12 04                     byte_8A12:  fcb $04
 1102:     8A13 1C 0C                  unk_8A13:   fcb $1C, $0C
 1103:     8A15 000C                   word_8A15:  fdb $000C
 1104:     8A17 2000                   word_8A17:  fdb $2000
 1105:     8A19 04                     byte_8A19:  fcb $04
 1106:     8A1A 03                     byte_8A1A:  fcb $03
 1107:     8A1B 80                     byte_8A1B:  fcb $80
 1108:     8A1C 1E                     byte_8A1C:  fcb $1E
 1109:     8A1D 38                     byte_8A1D:  fcb $38
 1110:                                 
 1111:     8A1E 00 00 00 08 08 00      unk_8A1E:   fcb $00, $00, $00, $08, $08, $00, $00, $00, $00
           8A24 00 00 00 
 1112:                                 
 1113:     8A27 10                     byte_8A27:  fcb $10
 1114:     8A28 40                     byte_8A28:  fcb $40
 1115:                                 
 1116:     8A29 00 00 00 0C 08 00      unk_8A29:   fcb $00, $00, $00, $0C, $08, $00, $00, $00, $00
           8A2F 00 00 00 
 1117:                                 
 1118:     8A32                        TL_ErrorBitsMask1:
 1119:     8A32                        unk_8A32:
 1120:     8A32 26                                 fcb $26
 1121:     8A33 00 00 00 00 00                     fcb $00, $00, $00, $00, $00
 1122:                                 
 1123:     8A38 84                     byte_8A38:  fcb $84
 1124:     8A39 11                     byte_8A39:  fcb $11
 1125:     8A3A EB                     byte_8A3A:  fcb $EB
 1126:     8A3B 93                     byte_8A3B:  fcb $93
 1127:     8A3C 7E                     byte_8A3C:  fcb $7E
 1128:     8A3D 63                     byte_8A3D:  fcb $63
 1129:     8A3E E4                     byte_8A3E:  fcb $E4
 1130:     8A3F CF                     byte_8A3F:  fcb $CF
 1131:     8A40 32                     byte_8A40:  fcb $32
 1132:     8A41 AA                     byte_8A41:  fcb $AA
 1133:     8A42 04                     byte_8A42:  fcb $04
 1134:     8A43 BD                     byte_8A43:  fcb $BD
 1135:     8A44 79                     byte_8A44:  fcb $79
 1136:     8A45 1A                     byte_8A45:  fcb $1A
 1137:     8A46 FD                     byte_8A46:  fcb $FD
 1138:     8A47 A8                     byte_8A47:  fcb $A8
 1139:     8A48 1A                     byte_8A48:  fcb $1A
 1140:     8A49 FD                     byte_8A49:  fcb $FD
 1141:     8A4A A8                     byte_8A4A:  fcb $A8
 1142:     8A4B 10                     byte_8A4B:  fcb $10
 1143:     8A4C 2EE0                   word_8A4C:  fdb $2EE0
 1144:     8A4E 8E                     byte_8A4E:  fcb $8E
 1145:     8A4F 7F                     byte_8A4F:  fcb $7F
 1146:     8A50 04                     byte_8A50:  fcb $04
 1147:     8A51 06                     byte_8A51:  fcb $06
 1148:     8A52 2E                     byte_8A52:  fcb $2E
 1149:     8A53 22                     byte_8A53:  fcb $22
 1150:     8A54 14                     byte_8A54:  fcb $14
 1151:     8A55 0A                     byte_8A55:  fcb $0A
 1152:     8A56 38                     byte_8A56:  fcb $38
 1153:     8A57 70                     byte_8A57:  fcb $70
 1154:     8A58 B0                     byte_8A58:  fcb $B0
 1155:     8A59 08                     byte_8A59:  fcb $08
 1156:     8A5A F0                     byte_8A5A:  fcb $F0
 1157:     8A5B D1                     byte_8A5B:  fcb $D1
 1158:     8A5C 20                     byte_8A5C:  fcb $20
 1159:     8A5D 28                     byte_8A5D:  fcb $28
 1160:     8A5E 2F                     byte_8A5E:  fcb $2F
 1161:     8A5F 28                     byte_8A5F:  fcb $28
 1162:     8A60 DC                     byte_8A60:  fcb $DC
 1163:     8A61 8C                     byte_8A61:  fcb $8C
 1164:     8A62 64                     byte_8A62:  fcb $64
 1165:     8A63 CE                     byte_8A63:  fcb $CE
 1166:     8A64 AB                     byte_8A64:  fcb $AB
 1167:     8A65 02                     byte_8A65:  fcb $02
 1168:     8A66 FD                     byte_8A66:  fcb $FD
 1169:     8A67 66                     byte_8A67:  fcb $66
 1170:     8A68 01                     byte_8A68:  fcb $01
 1171:     8A69 02                     byte_8A69:  fcb $02
 1172:     8A6A 05                     byte_8A6A:  fcb $05
 1173:                                 
 1174:     8A6B F0 80 50 40 30 30      unk_8A6B:   fcb $F0, $80, $50, $40, $30, $30, $20, $20, $20, $10, $10, $10, $10, $00, $00, $00
           8A71 20 20 20 10 10 10 
           8A77 10 00 00 00 
 1175:                                 
 1176:     8A7B 12C0                   word_8A7B:  fdb $12C0
 1177:     8A7D 2EE0                   word_8A7D:  fdb $2EE0
 1178:     8A7F 12                     byte_8A7F:  fcb $12
 1179:     8A80 F7                     byte_8A80:  fcb $F7
 1180:     8A81 0200                   word_8A81:  fdb $0200
 1181:     8A83 CE                     byte_8A83:  fcb $CE
 1182:     8A84 21                     unk_8A84:   fcb $21
 1183:     8A85 10                     unk_8A85:   fcb $10
 1184:                                 
 1185:     8A86                        unk_8A86:
 1186:     8A86 05                             fcb $05
 1187:     8A87 00 00 07 11                    fcb $00, $00, $07, $11
 1188:     8A8B 0F 6A 07 6E                    fcb $0F, $6A, $07, $6E
 1189:     8A8F 16 9E 00 A0                    fcb $16, $9E, $00, $A0
 1190:     8A93 36 B2 01 E0                    fcb $36, $B2, $01, $E0
 1191:     8A97 46 D0                          fcb $46, $D0
 1192:                                 
 1193:     8A99 14                     byte_8A99:  fcb $14
 1194:     8A9A 0F                     byte_8A9A:  fcb $0F
 1195:     8A9B 20                     byte_8A9B:  fcb $20
 1196:     8A9C 08                     byte_8A9C:  fcb $08
 1197:     8A9D E1                     byte_8A9D:  fcb $E1
 1198:                                 
 1199:     8A9E 80                     byte_8A9E:  fcb $80
 1200:     8A9F 1F                     byte_8A9F:  fcb $1F
 1201:     8AA0 29                     byte_8AA0:  fcb $29
 1202:     8AA1 07                     byte_8AA1:  fcb $07
 1203:     8AA2 C7                     byte_8AA2:  fcb $C7
 1204:     8AA3 5A                     byte_8AA3:  fcb $5A
 1205:     8AA4 5E                     byte_8AA4:  fcb $5E
 1206:     8AA5 1F                     byte_8AA5:  fcb $1F
 1207:     8AA6 80                     byte_8AA6:  fcb $80
 1208:     8AA7 01C7                   word_8AA7:  fdb $01C7
 1209:     8AA9 2B                     byte_8AA9:  fcb $2B
 1210:     8AAA 58                     byte_8AAA:  fcb $58
 1211:     8AAB 08                     byte_8AAB:  fcb $08
 1212:     8AAC 21                     byte_8AAC:  fcb $21
 1213:     8AAD 6E                     byte_8AAD:  fcb $6E
 1214:     8AAE AD                     byte_8AAE:  fcb $AD
 1215:     8AAF 80                     byte_8AAF:  fcb $80
 1216:     8AB0 07                     byte_8AB0:  fcb $07
 1217:     8AB1 016C                   word_8AB1:  fdb $016C
 1218:     8AB3 08                     byte_8AB3:  fcb $08
 1219:     8AB4 FFFF                   word_8AB4:  fdb $FFFF
 1220:     8AB6 23                     byte_8AB6:  fcb $23
 1221:     8AB7 FF                     byte_8AB7:  fcb $FF
 1222:     8AB8 C0                     byte_8AB8:  fcb $C0
 1223:     8AB9 DA                     byte_8AB9:  fcb $DA
 1224:                                 
 1225:     8ABA                        unk_8ABA:
 1226:     8ABA 05                                 fcb $05
 1227:     8ABB 09                                 fcb $09
 1228:     8ABC 00                                 fcb $00
 1229:     8ABD 00 00 00 00 00 00                  fcb $00, $00, $00, $00, $00, $00, $00, $00, $00
           8AC3 00 00 00 
 1230:     8AC6 00 00 00 00 00 00                  fcb $00, $00, $00, $00, $00, $00, $00, $00, $00
           8ACC 00 00 00 
 1231:     8ACF 00 00 00 00 00 00                  fcb $00, $00, $00, $00, $00, $00, $00, $00, $00
           8AD5 00 00 00 
 1232:     8AD8 00 00 00 00 00 00                  fcb $00, $00, $00, $00, $00, $00, $00, $00, $00
           8ADE 00 00 00 
 1233:     8AE1 00 00 00 00 00 00                  fcb $00, $00, $00, $00, $00, $00, $00, $00, $00
           8AE7 00 00 00 
 1234:                                 
 1235:     8AEA +006C                   DCB.B $6C, $FF
 1236:                                 
 1237:     8B56                        word_8B56:
 1238:     8B56 00 02                          fcb $00, $02
 1239:                                 
   51:                                 
   52:          =00009400               ORG Code_start
   53:     9400                        XIRQ:
   54:     9400 C6 01                          ldab    #$01
   55:     9402 20 12                          bra     loc_9416
   56:                                 
   57:     9404                        NOCOP:
   58:     9404 C6 02                          ldab    #$02
   59:     9406 20 0E                          bra     loc_9416
   60:                                 
   61:     9408                        OPC:
   62:     9408 C6 04                          ldab    #$04
   63:     940A 20 0A                          bra     loc_9416
   64:                                 
   65:     940C                        SCISS:
   66:     940C C6 10                          ldab    #$10
   67:     940E 20 06                          bra     loc_9416
   68:                                 
   69:     9410                        SPIE:
   70:     9410 C6 20                          ldab    #$20
   71:     9412 20 02                          bra     loc_9416
   72:                                 
   73:     9414                        SOFT:
   74:     9414 C6 40                          ldab    #$40
   75:                                 
   76:     9416                        loc_9416:
   77:     9416 0F                             sei
   78:     9417 CA 80                          orab    #$80
   79:     9419 F7 6499                        stab    Temp0
   80:     941C CC 02A9                        ldd     #$02A9
   81:     941F B7 1024                        staa    TMSK2_TimerInterruptMask2
   82:     9422 F7 1039                        stab    OPTION_SysConfigOptionReg
   83:     9425 86 F8                          ldaa    #$F8
   84:     9427 B7 1035                        staa    BPROT_BlockProtReg
   85:     942A 30                             tsx
   86:     942B EC 07                          ldd     $07,x
   87:     942D DD 01                          std     <Ram_01
   88:     942F FD 649A                        std     Temp1
   89:     9432 8E 64FF                        lds     #TopOfStack
   90:     9435 7F 0003                        clr     MinimumTimerCountBeforeMainloopCanContinue
   91:     9438 7F 0004                        clr     Ram_04
   92:     943B 20 65                          bra     loc_94A2
   93:                                 
   94:     943D                        CME:
   95:     943D 0F                             sei
   96:     943E 8E 64FF                        lds     #TopOfStack
   97:     9441 CC 02A9                        ldd     #$02A9
   98:     9444 B7 1024                        staa    TMSK2_TimerInterruptMask2
   99:     9447 F7 1039                        stab    OPTION_SysConfigOptionReg
  100:     944A 86 F8                          ldaa    #$F8
  101:     944C B7 1035                        staa    BPROT_BlockProtReg
  102:     944F 4F                             clra
  103:     9450 5F                             clrb
  104:     9451 B7 6499                        staa    Temp0
  105:     9454 FD 649A                        std     Temp1
  106:     9457 CE 0000                        ldx     #Ram_00
  107:                                 
  108:     945A                        loc_945A:
  109:     945A A6 00                          ldaa    $00,x
  110:     945C 81 00                          cmpa    #$00
  111:     945E 26 08                          bne     loc_9468
  112:     9460 08                             inx
  113:     9461 8C 0020                        cpx     #$0020
  114:     9464 25 F4                          bcs     loc_945A
  115:     9466 20 3A                          bra     loc_94A2
  116:                                 
  117:     9468                        loc_9468:
  118:     9468 DC 0E                          ldd     <Counter_SpeedSensorInterrupt_HB
  119:     946A 17                             tba
  120:     946B 53                             comb
  121:     946C DD 03                          std     <MinimumTimerCountBeforeMainloopCanContinue
  122:     946E 20 32                          bra     loc_94A2
  123:                                 
  124:     9470                        __RESET:
  125:     9470 0F                             sei
  126:     9471 8E 64FF                        lds     #TopOfStack
  127:     9474 CC 02A9                        ldd     #$02A9
  128:     9477 B7 1024                        staa    TMSK2_TimerInterruptMask2
  129:     947A F7 1039                        stab    OPTION_SysConfigOptionReg
  130:     947D 86 F8                          ldaa    #$F8
  131:     947F B7 1035                        staa    BPROT_BlockProtReg
  132:     9482 4F                             clra
  133:     9483 5F                             clrb
  134:     9484 B7 6499                        staa    Temp0
  135:     9487 FD 649A                        std     Temp1
  136:     948A DC 0E                          ldd     <Counter_SpeedSensorInterrupt_HB
  137:     948C 17                             tba
  138:     948D 53                             comb
  139:     948E 188F                           xgdy
  140:     9490 BD E92B                        jsr     sub_E92B
  141:     9493 1A93 03                        cpd     <MinimumTimerCountBeforeMainloopCanContinue
  142:     9496 27 04                          beq     loc_949C
  143:     9498 18CE 0000                      ldy     #$0000
  144:                                 
  145:     949C                        loc_949C:
  146:     949C 18DF 03                        sty     <MinimumTimerCountBeforeMainloopCanContinue
  147:     949F 14 05 0A                       bset    <Ram_05 $0A
  148:                                 
  149:     94A2                        loc_94A2:
  150:     94A2 BD E7D6                        jsr     sub_E7D6
  151:     94A5 86 90                          ldaa    #$90
  152:     94A7 06                             tap
  153:     94A8 C6 0F                          ldab    #$0F
  154:     94AA B6 8015                        ldaa    byte_8015
  155:     94AD 85 08                          bita    #$08
  156:     94AF 27 02                          beq     loc_94B3
  157:     94B1 C6 06                          ldab    #$06
  158:                                 
  159:     94B3                        loc_94B3:
  160:     94B3 F7 103C                        stab    HPRIO_HighPriorityInterruptMask
  161:     94B6 7F 100C                        clr     OC1M_OutputCompare1Mask
  162:     94B9 7F 100D                        clr     OC1D_OutputCompare1D
  163:     94BC CC 00FF                        ldd     #$00FF
  164:     94BF B7 1022                        staa    TMSK1_TimerInterruptMask1
  165:     94C2 F7 1023                        stab    TFLG1_TimerInterruptFlag1
  166:     94C5 86 1A                          ldaa    #$1A
  167:     94C7 B7 1021                        staa    TCTL2_TimerControlReg2
  168:     94CA CC AA78                        ldd     #$AA78
  169:     94CD B7 1020                        staa    TCTL1_TimerControlReg1
  170:     94D0 F7 100B                        stab    CFORC_TimerForceCompare
  171:     94D3 CC 7520                        ldd     #$7520
  172:     94D6 B7 6440                        staa    PIA3_Buffer_2_t3
  173:     94D9 97 CF                          staa    <PIA3_Buffer_t3
  174:     94DB F7 1008                        stab    PORTD_PortD
  175:     94DE 86 08                          ldaa    #$08
  176:     94E0 B7 6400                        staa    SwitchPortAccessReg1
  177:     94E3 F6 8000                        ldab    TL_IDENT1
  178:     94E6 C1 11                          cmpb    #$11
  179:     94E8 27 07                          beq     loc_94F1
  180:     94EA C6 8F                          ldab    #$8F
  181:     94EC F7 6402                        stab    PIA_Ctrl_1
  182:     94EF 20 05                          bra     loc_94F6
  183:                                 
  184:     94F1                        loc_94F1:
  185:     94F1 C6 0F                          ldab    #$0F
  186:     94F3 F7 6402                        stab    PIA_Ctrl_1
  187:                                 
  188:     94F6                        loc_94F6:
  189:     94F6 F6 6402                        ldab    PIA_Ctrl_1
  190:     94F9 C4 F7                          andb    #$F7
  191:     94FB F7 6402                        stab    PIA_Ctrl_1
  192:     94FE BD E7E0                        jsr     sub_E7E0
  193:     9501 BD E7E0                        jsr     sub_E7E0
  194:     9504 CC 3A55                        ldd     #$3A55
  195:     9507 B7 1009                        staa    DDRD_PortD_DataDirection
  196:     950A B6 1029                        ldaa    SPSR_SerialPeripheralStatus
  197:     950D F7 1028                        stab    SPCR_SerialPeripheralControl
  198:     9510 BD E7E0                        jsr     sub_E7E0
  199:     9513 CC F870                        ldd     #$F870
  200:     9516 B7 6406                        staa    PIA_Ctrl_5
  201:     9519 F7 1026                        stab    PACTL_PulseAccumulatorControl
  202:     951C 4F                             clra
  203:     951D B7 103B                        staa    PPROG_EEPROMControlReg
  204:     9520 B7 6403                        staa    PIA_Ctrl_2
  205:     9523 CC 0008                        ldd     #$0008
  206:     9526 FD 6408                        std     InjectorPulsewidth_HB_Cyl1
  207:     9529 FD 640A                        std     InjectorPulsewidth_HB_Cyl2
  208:     952C FD 640C                        std     InjectorPulsewidth_HB_Cyl3
  209:     952F FD 640E                        std     InjectorPulsewidth_HB_Cyl4
  210:     9532 CC 0C22                        ldd     #$0C22
  211:     9535 B7 102D                        staa    SCCR2_SerialControlReg2
  212:     9538 F7 102B                        stab    BAUD_SerialBaudRate
  213:     953B FC 102E                        ldd     SCSR_SerialStatus
  214:     953E BD E7E0                        jsr     sub_E7E0
  215:     9541 7F 102C                        clr     SCCR1_SerialControlReg1
  216:     9544 CE 0020                        ldx     #IPL1
  217:     9547 DC 03                          ldd     <MinimumTimerCountBeforeMainloopCanContinue
  218:     9549 43                             coma
  219:     954A 11                             cba
  220:     954B 27 2F                          beq     loc_957C
  221:     954D C6 08                          ldab    #$08
  222:     954F B6 6499                        ldaa    Temp0
  223:     9552 2A 02                          bpl     loc_9556
  224:     9554 C6 80                          ldab    #$80
  225:                                 
  226:     9556                        loc_9556:
  227:     9556 D7 05                          stab    <Ram_05
  228:     9558 84 7F                          anda    #$7F
  229:     955A 97 00                          staa    <Ram_00
  230:     955C FC 649A                        ldd     Temp1
  231:     955F DD 01                          std     <Ram_01
  232:     9561 86 5C                          ldaa    #$5C
  233:     9563 97 06                          staa    <LowestSessionTpsVolts
  234:     9565 86 80                          ldaa    #$80
  235:     9567 97 09                          staa    <Timer_DacalCountdown
  236:     9569 97 0B                          staa    <Ram_0B
  237:     956B 97 0A                          staa    <ValueFromAdaptiveMemory
  238:     956D B6 88F8                        ldaa    byte_88F8
  239:     9570 97 0C                          staa    <Ram_0C
  240:     9572 CC 40DF                        ldd     #$40DF
  241:     9575 97 07                          staa    <BitFlags36_t3
  242:     9577 D7 08                          stab    <CurrentAisPosition
  243:     9579 CE 000E                        ldx     #Counter_SpeedSensorInterrupt_HB
  244:                                 
  245:     957C                        loc_957C:
  246:     957C 18CE 0594                      ldy     #$0594
  247:                                 
  248:     9580                        loc_9580:
  249:     9580 1809                           dey
  250:     9582 26 FC                          bne     loc_9580
  251:     9584 09                             dex
  252:     9585 5F                             clrb
  253:                                 
  254:     9586                        loc_9586:
  255:     9586 08                             inx
  256:     9587 E7 00                          stab    $00,x
  257:     9589 8C 00FF                        cpx     #$00FF
  258:     958C 25 F8                          bcs     loc_9586
  259:     958E B6 8015                        ldaa    byte_8015
  260:     9591 97 27                          staa    <BitFlags27
  261:     9593 CE 6480                        ldx     #CountdownTimerFromKeyOn
  262:     9596 09                             dex
  263:     9597 5F                             clrb
  264:                                 
  265:     9598                        loc_9598:
  266:     9598 08                             inx
  267:     9599 E7 00                          stab    $00,x
  268:     959B 8C 64C8                        cpx     #STe_64C8
  269:     959E 25 F8                          bcs     loc_9598
  270:     95A0 86 E5                          ldaa    #$E5
  271:     95A2 97 CF                          staa    <PIA3_Buffer_t3
  272:     95A4 B7 6440                        staa    PIA3_Buffer_2_t3
  273:     95A7 BD E7E0                        jsr     sub_E7E0
  274:     95AA 18CE 0594                      ldy     #$0594
  275:                                 
  276:     95AE                        loc_95AE:
  277:     95AE 1809                           dey
  278:     95B0 26 FC                          bne     loc_95AE
  279:     95B2 86 14                          ldaa    #$14
  280:     95B4 B7 1030                        staa    ADCTL_A2DControlReg
  281:                                 
  282:     95B7                        loc_95B7:
  283:     95B7 B6 1030                        ldaa    ADCTL_A2DControlReg
  284:     95BA 2A FB                          bpl     loc_95B7
  285:     95BC B6 1031                        ldaa    ADR1_A2DResults1
  286:     95BF B7 64AA                        staa    CoolantVoltsTmp2
  287:     95C2 96 CF                          ldaa    <PIA3_Buffer_t3
  288:     95C4 84 7F                          anda    #$7F
  289:     95C6 97 CF                          staa    <PIA3_Buffer_t3
  290:     95C8 B7 6440                        staa    PIA3_Buffer_2_t3
  291:     95CB BD E7E0                        jsr     sub_E7E0
  292:     95CE 18CE 0476                      ldy     #$0476
  293:                                 
  294:     95D2                        loc_95D2:
  295:     95D2 1809                           dey
  296:     95D4 26 FC                          bne     loc_95D2
  297:     95D6 86 14                          ldaa    #$14
  298:     95D8 B7 1030                        staa    ADCTL_A2DControlReg
  299:                                 
  300:     95DB                        loc_95DB:
  301:     95DB B6 1030                        ldaa    ADCTL_A2DControlReg
  302:     95DE 2A FB                          bpl     loc_95DB
  303:     95E0 B6 1031                        ldaa    ADR1_A2DResults1
  304:     95E3 B7 64A8                        staa    CoolantVoltsTmp1
  305:     95E6 B6 64A8                        ldaa    CoolantVoltsTmp1
  306:     95E9 F6 64AA                        ldab    CoolantVoltsTmp2
  307:     95EC 3D                             mul
  308:     95ED FD 649A                        std     Temp1
  309:     95F0 F6 64A8                        ldab    CoolantVoltsTmp1
  310:     95F3 F0 64AA                        subb    CoolantVoltsTmp2
  311:     95F6 23 1B                          bls     loc_9613
  312:     95F8 4F                             clra
  313:     95F9 8F                             xgdx
  314:     95FA FC 649A                        ldd     Temp1
  315:     95FD 58                             aslb
  316:     95FE 89 00                          adca    #$00
  317:     9600 16                             tab
  318:     9601 3A                             abx
  319:     9602 FC 649A                        ldd     Temp1
  320:     9605 02                             idiv
  321:     9606 8F                             xgdx
  322:     9607 4D                             tsta
  323:     9608 26 09                          bne     loc_9613
  324:     960A 17                             tba
  325:     960B CE E5AA                        ldx     #unk_E5AA
  326:     960E BD E655                        jsr     Lookup4ByteTable
  327:     9611 20 02                          bra     loc_9615
  328:                                 
  329:     9613                        loc_9613:
  330:     9613 86 C1                          ldaa    #$C1
  331:                                 
  332:     9615                        loc_9615:
  333:     9615 97 67                          staa    <AmbientAirTempVolts2
  334:     9617 BD BCF2                        jsr     sub_BCF2
  335:     961A BD BCBF                        jsr     sub_BCBF
  336:     961D 96 CF                          ldaa    <PIA3_Buffer_t3
  337:     961F 8A 10                          oraa    #$10
  338:     9621 97 CF                          staa    <PIA3_Buffer_t3
  339:     9623 B7 6440                        staa    PIA3_Buffer_2_t3
  340:     9626 BD E7E0                        jsr     sub_E7E0
  341:     9629 18CE 0594                      ldy     #$0594
  342:                                 
  343:     962D                        loc_962D:
  344:     962D 1809                           dey
  345:     962F 26 FC                          bne     loc_962D
  346:     9631 86 14                          ldaa    #$14
  347:     9633 B7 1030                        staa    ADCTL_A2DControlReg
  348:                                 
  349:     9636                        loc_9636:
  350:     9636 B6 1030                        ldaa    ADCTL_A2DControlReg
  351:     9639 2A FB                          bpl     loc_9636
  352:     963B B6 1031                        ldaa    ADR1_A2DResults1
  353:     963E 81 40                          cmpa    #$40
  354:     9640 24 09                          bcc     loc_964B
  355:     9642 96 CF                          ldaa    <PIA3_Buffer_t3
  356:     9644 84 EF                          anda    #$EF
  357:     9646 97 CF                          staa    <PIA3_Buffer_t3
  358:     9648 B7 6440                        staa    PIA3_Buffer_2_t3
  359:                                 
  360:     964B                        loc_964B:
  361:     964B BD E7E0                        jsr     sub_E7E0
  362:     964E 18CE 0594                      ldy     #$0594
  363:                                 
  364:     9652                        loc_9652:
  365:     9652 1809                           dey
  366:     9654 26 FC                          bne     loc_9652
  367:     9656 86 14                          ldaa    #$14
  368:     9658 B7 1030                        staa    ADCTL_A2DControlReg
  369:                                 
  370:     965B                        loc_965B:
  371:     965B B6 1030                        ldaa    ADCTL_A2DControlReg
  372:     965E 2A FB                          bpl     loc_965B
  373:     9660 B6 1031                        ldaa    ADR1_A2DResults1
  374:     9663 97 59                          staa    <LastCoolantTempVolts
  375:                                 
  376:     9665                        loc_9665:
  377:     9665 B6 1030                        ldaa    ADCTL_A2DControlReg
  378:     9668 2A FB                          bpl     loc_9665
  379:     966A B6 1032                        ldaa    ADR2_A2DResults2
  380:     966D 81 40                          cmpa    #$40
  381:     966F 24 09                          bcc     loc_967A
  382:     9671 96 CF                          ldaa    <PIA3_Buffer_t3
  383:     9673 84 DF                          anda    #$DF
  384:     9675 97 CF                          staa    <PIA3_Buffer_t3
  385:     9677 B7 6440                        staa    PIA3_Buffer_2_t3
  386:                                 
  387:     967A                        loc_967A:
  388:     967A BD E7E0                        jsr     sub_E7E0
  389:     967D 18CE 0594                      ldy     #$0594
  390:                                 
  391:     9681                        loc_9681:
  392:     9681 1809                           dey
  393:     9683 26 FC                          bne     loc_9681
  394:     9685 86 14                          ldaa    #$14
  395:     9687 B7 1030                        staa    ADCTL_A2DControlReg
  396:                                 
  397:     968A                        loc_968A:
  398:     968A B6 1030                        ldaa    ADCTL_A2DControlReg
  399:     968D 2A FB                          bpl     loc_968A
  400:     968F F6 1032                        ldab    ADR2_A2DResults2
  401:     9692 D7 58                          stab    <LastChargeTempVolts
  402:     9694 86 10                          ldaa    #$10
  403:     9696 B7 1030                        staa    ADCTL_A2DControlReg
  404:     9699 BD E7E0                        jsr     sub_E7E0
  405:                                 
  406:     969C                        loc_969C:
  407:     969C B6 1030                        ldaa    ADCTL_A2DControlReg
  408:     969F 2A FB                          bpl     loc_969C
  409:     96A1 BD BCDF                        jsr     sub_BCDF
  410:     96A4 97 5B                          staa    <BatteryVolts
  411:     96A6 F6 1034                        ldab    ADR4_A2DResults4
  412:     96A9 D7 5A                          stab    <LastTpsVolts
  413:     96AB B6 1031                        ldaa    ADR1_A2DResults1
  414:     96AE BD E6DB                        jsr     sub_E6DB
  415:     96B1 97 50                          staa    <MapValue
  416:     96B3 5F                             clrb
  417:     96B4 DD 90                          std     <MapValue2
  418:     96B6 B7 64A9                        staa    MapValue_t3
  419:     96B9 13 05 08 0B                    brclr   <Ram_05 $08 loc_96C8
  420:     96BD 81 80                          cmpa    #$80
  421:     96BF 24 02                          bcc     loc_96C3
  422:     96C1 86 80                          ldaa    #$80
  423:                                 
  424:     96C3                        loc_96C3:
  425:     96C3 97 0D                          staa    <BaroPressure
  426:     96C5 15 05 08                       bclr    <Ram_05 $08
  427:                                 
  428:     96C8                        loc_96C8:
  429:     96C8 B6 1031                        ldaa    ADR1_A2DResults1
  430:     96CB 97 EA                          staa    <MapVolts_X
  431:     96CD 97 EB                          staa    <MapValue3
  432:     96CF 13 05 02 26                    brclr   <Ram_05 $02 loc_96F9
  433:     96D3 13 05 04 22                    brclr   <Ram_05 $04 loc_96F9
  434:     96D7 B1 8A67                        cmpa    byte_8A67
  435:     96DA 24 1D                          bcc     loc_96F9
  436:     96DC C6 02                          ldab    #$02
  437:                                 
  438:     96DE                        loc_96DE:
  439:     96DE 86 10                          ldaa    #$10
  440:     96E0 B7 1030                        staa    ADCTL_A2DControlReg
  441:                                 
  442:     96E3                        loc_96E3:
  443:     96E3 B6 1030                        ldaa    ADCTL_A2DControlReg
  444:     96E6 2A FB                          bpl     loc_96E3
  445:     96E8 B6 1031                        ldaa    ADR1_A2DResults1
  446:     96EB B1 8A67                        cmpa    byte_8A67
  447:     96EE 24 09                          bcc     loc_96F9
  448:     96F0 5A                             decb
  449:     96F1 26 EB                          bne     loc_96DE
  450:     96F3 14 D5 08                       bset    <b5C_IPL1_t3 $08
  451:     96F6 14 2E 80                       bset    <BitFlags2e $80
  452:                                 
  453:     96F9                        loc_96F9:
  454:     96F9 15 05 02                       bclr    <Ram_05 $02
  455:     96FC 96 05                          ldaa    <Ram_05
  456:     96FE 84 C0                          anda    #$C0
  457:     9700 81 80                          cmpa    #$80
  458:     9702 26 16                          bne     loc_971A
  459:     9704 CC 0AFF                        ldd     #$0AFF
  460:     9707 DD D8                          std     <DRBPointer1
  461:     9709 86 F1                          ldaa    #$F1
  462:     970B B7 64B2                        staa    LastCamFallingEdgeTime2
  463:     970E C6 FF                          ldab    #$FF
  464:     9710 96 27                          ldaa    <BitFlags27
  465:     9712 85 C0                          bita    #$C0
  466:     9714 27 1C                          beq     loc_9732
  467:     9716 C6 FB                          ldab    #$FB
  468:     9718 20 18                          bra     loc_9732
  469:                                 
  470:     971A                        loc_971A:
  471:     971A 96 05                          ldaa    <Ram_05
  472:     971C 8B 40                          adda    #$40
  473:     971E 97 05                          staa    <Ram_05
  474:     9720 B6 6402                        ldaa    PIA_Ctrl_1
  475:     9723 8A 04                          oraa    #$04
  476:     9725 B7 6402                        staa    PIA_Ctrl_1
  477:     9728 C6 EF                          ldab    #$EF
  478:     972A 96 27                          ldaa    <BitFlags27
  479:     972C 85 C0                          bita    #$C0
  480:     972E 27 02                          beq     loc_9732
  481:     9730 C6 EB                          ldab    #$EB
  482:                                 
  483:     9732                        loc_9732:
  484:     9732 D7 CE                          stab    <PIA2_Buffer_t3
  485:     9734 96 CF                          ldaa    <PIA3_Buffer_t3
  486:     9736 84 FB                          anda    #$FB
  487:     9738 B7 6440                        staa    PIA3_Buffer_2_t3
  488:     973B 97 CF                          staa    <PIA3_Buffer_t3
  489:     973D F1 1029                        cmpb    SPSR_SerialPeripheralStatus
  490:     9740 F7 102A                        stab    SPDR_SerialPeripheralDataIO
  491:     9743 3D                             mul
  492:     9744 3D                             mul
  493:     9745 01                             nop
  494:     9746 96 CF                          ldaa    <PIA3_Buffer_t3
  495:     9748 8A 04                          oraa    #$04
  496:     974A 97 CF                          staa    <PIA3_Buffer_t3
  497:     974C B7 6440                        staa    PIA3_Buffer_2_t3
  498:     974F F6 1028                        ldab    SPCR_SerialPeripheralControl
  499:     9752 C4 FC                          andb    #$FC
  500:     9754 F7 1028                        stab    SPCR_SerialPeripheralControl
  501:     9757 BD E7E0                        jsr     sub_E7E0
  502:     975A CE 0535                        ldx     #$0535
  503:                                 
  504:     975D                        loc_975D:
  505:     975D B6 6400                        ldaa    SwitchPortAccessReg1
  506:     9760 85 10                          bita    #$10
  507:     9762 26 03                          bne     loc_9767
  508:     9764 09                             dex
  509:     9765 26 F6                          bne     loc_975D
  510:                                 
  511:     9767                        loc_9767:
  512:     9767 BD E7E0                        jsr     sub_E7E0
  513:     976A B6 6402                        ldaa    PIA_Ctrl_1
  514:     976D 84 FB                          anda    #$FB
  515:     976F B7 6402                        staa    PIA_Ctrl_1
  516:     9772 B6 64A7                        ldaa    Timer_DelayBeforeUpdating_MINTHR
  517:     9775 8A 03                          oraa    #$03
  518:     9777 B7 64A7                        staa    Timer_DelayBeforeUpdating_MINTHR
  519:     977A 01                             nop
  520:     977B 01                             nop
  521:     977C 01                             nop
  522:     977D 14 24 10                       bset    <BitFlags24 $10
  523:     9780 14 62 FF                       bset    <ACClutchToggleVar $FF
  524:     9783 14 22 10                       bset    <BitFlags66_t3 $10
  525:     9786 14 25 44                       bset    <BitFlags68_t3 $44
  526:     9789 14 07 20                       bset    <BitFlags36_t3 $20
  527:     978C 15 07 10                       bclr    <BitFlags36_t3 $10
  528:     978F 14 31 A0                       bset    <CruiseStatus_1 $A0
  529:     9792 86 80                          ldaa    #$80
  530:     9794 97 33                          staa    <Counter_Cruise_1
  531:     9796 CC FFFF                        ldd     #$FFFF
  532:     9799 DD 36                          std     <DistributorFallingEdgePulsewidth_HB
  533:     979B DD 34                          std     <Counter_TimerPastHalfwayBetweenCamPulses
  534:     979D DD 3C                          std     <Counter_TimerRegHalfOverflowBetweenSpeedoPulses
  535:     979F DD 3E                          std     <SpeedoSensorPulsewidth_HB
  536:     97A1 97 4C                          staa    <Ram_4C
  537:     97A3 96 50                          ldaa    <MapValue
  538:     97A5 5F                             clrb
  539:     97A6 DD 8A                          std     <MapValueTemp1
  540:     97A8 DD 8C                          std     <MapValueTemp2
  541:     97AA DD 8E                          std     <MapValueTemp3
  542:     97AC 96 5A                          ldaa    <LastTpsVolts
  543:     97AE DD 95                          std     <TPSVoltsTemp_A
  544:     97B0 DD 97                          std     <TPSVoltsTemp_B
  545:     97B2 12 05 01 0B                    brset   <Ram_05 $01 loc_97C1
  546:     97B6 14 05 01                       bset    <Ram_05 $01
  547:     97B9 B6 842A                        ldaa    byte_842A
  548:     97BC 27 03                          beq     loc_97C1
  549:     97BE 14 EC A0                       bset    <Ram_EC $A0
  550:                                 
  551:     97C1                        loc_97C1:
  552:     97C1 CE B616                        ldx     #MCU_eeprom + $16
  553:     97C4 A6 00                          ldaa    $00,x
  554:     97C6 81 4A                          cmpa    #$4A
  555:     97C8 26 08                          bne     loc_97D2
  556:     97CA 43                             coma
  557:     97CB A1 01                          cmpa    $01,x
  558:     97CD 26 03                          bne     loc_97D2
  559:     97CF 14 2D 04                       bset    <BitFlags2d $04
  560:                                 
  561:     97D2                        loc_97D2:
  562:     97D2 CE B6E1                        ldx     #MCU_eeprom + $E1
  563:     97D5 A6 00                          ldaa    $00,x
  564:     97D7 81 4A                          cmpa    #$4A
  565:     97D9 26 08                          bne     loc_97E3
  566:     97DB 43                             coma
  567:     97DC A1 01                          cmpa    $01,x
  568:     97DE 26 03                          bne     loc_97E3
  569:     97E0 14 21 02                       bset    <BitFlags21 $02
  570:                                 
  571:     97E3                        loc_97E3:
  572:     97E3 CE B6E3                        ldx     #MCU_eeprom + $E3
  573:     97E6 A6 00                          ldaa    $00,x
  574:     97E8 81 4A                          cmpa    #$4A
  575:     97EA 26 08                          bne     loc_97F4
  576:     97EC 43                             coma
  577:     97ED A1 01                          cmpa    $01,x
  578:     97EF 26 03                          bne     loc_97F4
  579:     97F1 14 29 08                       bset    <BitFlags29 $08
  580:                                 
  581:     97F4                        loc_97F4:
  582:     97F4 96 59                          ldaa    <LastCoolantTempVolts
  583:     97F6 CE E537                        ldx     #unk_E537
  584:     97F9 13 CF 10 03                    brclr   <PIA3_Buffer_t3 $10 loc_9800
  585:     97FD CE E51C                        ldx     #unk_E51C
  586:                                 
  587:     9800                        loc_9800:
  588:     9800 BD E655                        jsr     Lookup4ByteTable
  589:     9803 97 54                          staa    <CoolantTemp
  590:     9805 96 59                          ldaa    <LastCoolantTempVolts
  591:     9807 B1 8A46                        cmpa    byte_8A46
  592:     980A 24 09                          bcc     loc_9815
  593:     980C B1 8A45                        cmpa    byte_8A45
  594:     980F 25 04                          bcs     loc_9815
  595:     9811 96 54                          ldaa    <CoolantTemp
  596:     9813 20 03                          bra     loc_9818
  597:                                 
  598:     9815                        loc_9815:
  599:     9815 B6 8A47                        ldaa    byte_8A47
  600:                                 
  601:     9818                        loc_9818:
  602:     9818 97 54                          staa    <CoolantTemp
  603:     981A CE E546                        ldx     #unk_E546
  604:     981D BD E655                        jsr     Lookup4ByteTable
  605:     9820 97 55                          staa    <CoolantTemp_fromTable_Scaled
  606:     9822 97 56                          staa    <PreviousCoolantTemp_fromTable_Scaled
  607:     9824 96 58                          ldaa    <LastChargeTempVolts
  608:     9826 CE E537                        ldx     #unk_E537
  609:     9829 13 CF 20 03                    brclr   <PIA3_Buffer_t3 $20 loc_9830
  610:     982D CE E51C                        ldx     #unk_E51C
  611:                                 
  612:     9830                        loc_9830:
  613:     9830 BD E655                        jsr     Lookup4ByteTable
  614:     9833 97 52                          staa    <ChargeTempVolts
  615:     9835 96 58                          ldaa    <LastChargeTempVolts
  616:     9837 B1 8A49                        cmpa    byte_8A49
  617:     983A 24 09                          bcc     loc_9845
  618:     983C B1 8A48                        cmpa    byte_8A48
  619:     983F 25 04                          bcs     loc_9845
  620:     9841 96 52                          ldaa    <ChargeTempVolts
  621:     9843 20 03                          bra     loc_9848
  622:                                 
  623:     9845                        loc_9845:
  624:     9845 B6 8A4A                        ldaa    byte_8A4A
  625:                                 
  626:     9848                        loc_9848:
  627:     9848 97 52                          staa    <ChargeTempVolts
  628:     984A CE E587                        ldx     #unk_E587
  629:     984D BD E655                        jsr     Lookup4ByteTable
  630:     9850 97 57                          staa    <IntakeTemp_fromTable_Scaled
  631:     9852 96 5A                          ldaa    <LastTpsVolts
  632:     9854 97 51                          staa    <TpsVolts
  633:     9856 D6 06                          ldab    <LowestSessionTpsVolts
  634:     9858 FB 8017                        addb    byte_8017
  635:     985B F1 801B                        cmpb    byte_801B
  636:     985E 25 09                          bcs     loc_9869
  637:     9860 8B 06                          adda    #$06
  638:     9862 F6 801B                        ldab    byte_801B
  639:     9865 11                             cba
  640:     9866 24 01                          bcc     loc_9869
  641:     9868 16                             tab
  642:                                 
  643:     9869                        loc_9869:
  644:     9869 D7 06                          stab    <LowestSessionTpsVolts
  645:     986B 96 54                          ldaa    <CoolantTemp
  646:     986D B1 8A3D                        cmpa    byte_8A3D
  647:     9870 25 05                          bcs     loc_9877
  648:     9872 B1 8A3E                        cmpa    byte_8A3E
  649:     9875 25 03                          bcs     loc_987A
  650:                                 
  651:     9877                        loc_9877:
  652:     9877 14 28 02                       bset    <BitFlags6d_t3 $02
  653:                                 
  654:     987A                        loc_987A:
  655:     987A BD C343                        jsr     sub_C343
  656:     987D BD BFD7                        jsr     sub_BFD7
  657:     9880 FC 100E                        ldd     TCNT_Counter_FreeRunning16bit
  658:     9883 C3 03E8                        addd    #$03E8
  659:     9886 FD 1016                        std     TOC1_Counter_OC1
  660:     9889 BD ED8B                        jsr     sub_ED8B
  661:     988C 96 CF                          ldaa    <PIA3_Buffer_t3
  662:     988E 8A 01                          oraa    #$01
  663:     9890 B7 6440                        staa    PIA3_Buffer_2_t3
  664:     9893 84 FE                          anda    #$FE
  665:     9895 97 CF                          staa    <PIA3_Buffer_t3
  666:     9897 B7 6440                        staa    PIA3_Buffer_2_t3
  667:     989A CE E518                        ldx     #unk_E518
  668:     989D D6 10                          ldab    <BitFlags_36_t3
  669:     989F 3A                             abx
  670:     98A0 E6 00                          ldab    $00,x
  671:     98A2 17                             tba
  672:     98A3 53                             comb
  673:     98A4 58                             aslb
  674:     98A5 58                             aslb
  675:     98A6 58                             aslb
  676:     98A7 58                             aslb
  677:     98A8 84 0F                          anda    #$0F
  678:     98AA 1B                             aba
  679:     98AB CE 1008                        ldx     #PORTD_PortD
  680:     98AE 1D 00 20                       bclr    $00,x $20
  681:     98B1 B1 1029                        cmpa    SPSR_SerialPeripheralStatus
  682:     98B4 B7 102A                        staa    SPDR_SerialPeripheralDataIO
  683:     98B7 96 CF                          ldaa    <PIA3_Buffer_t3
  684:     98B9 8A 01                          oraa    #$01
  685:     98BB 97 CF                          staa    <PIA3_Buffer_t3
  686:     98BD B7 6440                        staa    PIA3_Buffer_2_t3
  687:     98C0 3D                             mul
  688:     98C1 1C 00 20                       bset    $00,x $20
  689:     98C4 86 BF                          ldaa    #$BF
  690:     98C6 F6 8016                        ldab    byte_8016
  691:     98C9 C5 20                          bitb    #$20
  692:     98CB 27 09                          beq     loc_98D6
  693:     98CD F6 8015                        ldab    byte_8015
  694:     98D0 C5 01                          bitb    #$01
  695:     98D2 27 02                          beq     loc_98D6
  696:     98D4 84 DF                          anda    #$DF
  697:                                 
  698:     98D6                        loc_98D6:
  699:     98D6 97 CD                          staa    <PIA1_Buffer_t3
  700:     98D8 B6 6400                        ldaa    SwitchPortAccessReg1
  701:     98DB 8A 01                          oraa    #$01
  702:     98DD B7 6400                        staa    SwitchPortAccessReg1
  703:     98E0 CE 0238                        ldx     #$0238
  704:                                 
  705:     98E3                        loc_98E3:
  706:     98E3 09                             dex
  707:     98E4 26 FD                          bne     loc_98E3
  708:     98E6 BD D484                        jsr     sub_D484
  709:     98E9 0E                             cli
  710:     98EA FC 100E                        ldd     TCNT_Counter_FreeRunning16bit
  711:     98ED FD 64A1                        std     MinimumTimerCountBeforeMainloopCanContinue2
  712:     98F0 20 10                          bra     loc_9902
  713:                                 
  714:     98F2                        off_98F2:
  715:     98F2 99AD                           fdb loc_99AD
  716:     98F4 99B6                           fdb loc_99B6
  717:     98F6 9A1A                           fdb loc_9A1A
  718:     98F8 99CF                           fdb loc_99CF
  719:     98FA 9A1A                           fdb loc_9A1A
  720:     98FC 99EE                           fdb loc_99EE
  721:     98FE 9A07                           fdb loc_9A07
  722:     9900 9A1A                           fdb loc_9A1A
  723:                                 
  724:     9902                        loc_9902:
  725:     9902 BD E7CC                        jsr     sub_E7CC
  726:     9905 B6 8015                        ldaa    byte_8015
  727:     9908 97 27                          staa    <BitFlags27
  728:     990A 7C 00FE                        inc     Ram_FE
  729:     990D 0F                             sei
  730:     990E FC 100E                        ldd     TCNT_Counter_FreeRunning16bit
  731:     9911 FD 6499                        std     Temp0
  732:     9914 7C 0045                        inc     Counter_MainLoop
  733:     9917 26 0D                          bne     loc_9926
  734:     9919 15 05 C0                       bclr    <Ram_05 $C0
  735:     991C 14 26 04                       bset    <BitFlags6a_t3 $04
  736:     991F 96 44                          ldaa    <KeyOnOrEngineRunningTime
  737:     9921 4C                             inca
  738:     9922 27 02                          beq     loc_9926
  739:     9924 97 44                          staa    <KeyOnOrEngineRunningTime
  740:                                 
  741:     9926                        loc_9926:
  742:     9926 86 10                          ldaa    #$10
  743:     9928 B7 1030                        staa    ADCTL_A2DControlReg
  744:     992B FC 6499                        ldd     Temp0
  745:     992E CE 0034                        ldx     #Counter_TimerPastHalfwayBetweenCamPulses
  746:     9931 18CE 649E                      ldy     #Temp5
  747:     9935 BD E703                        jsr     sub_E703
  748:     9938 81 10                          cmpa    #$10
  749:     993A 25 1E                          bcs     loc_995A
  750:     993C 12 2E 10 1D                    brset   <BitFlags2e $10 loc_995D
  751:     9940 14 2E 10                       bset    <BitFlags2e $10
  752:     9943 C6 AA                          ldab    #$AA
  753:     9945 F7 1020                        stab    TCTL1_TimerControlReg1
  754:     9948 C6 78                          ldab    #$78
  755:     994A F7 100B                        stab    CFORC_TimerForceCompare
  756:     994D B6 64B9                        ldaa    UNe_64B9
  757:     9950 84 E0                          anda    #$E0
  758:     9952 B7 64B9                        staa    UNe_64B9
  759:     9955 15 2B C0                       bclr    <BitFlags2b $C0
  760:     9958 20 03                          bra     loc_995D
  761:                                 
  762:     995A                        loc_995A:
  763:     995A 15 2E 10                       bclr    <BitFlags2e $10
  764:                                 
  765:     995D                        loc_995D:
  766:     995D B6 1030                        ldaa    ADCTL_A2DControlReg
  767:     9960 2A FB                          bpl     loc_995D
  768:     9962 96 45                          ldaa    <Counter_MainLoop
  769:     9964 44                             lsra
  770:     9965 25 08                          bcs     loc_996F
  771:     9967 44                             lsra
  772:     9968 25 05                          bcs     loc_996F
  773:     996A BD BCDF                        jsr     sub_BCDF
  774:     996D 97 5B                          staa    <BatteryVolts
  775:                                 
  776:     996F                        loc_996F:
  777:     996F FC 1033                        ldd     ADR3_A2DResults3
  778:     9972 97 53                          staa    <O2SensorVolts
  779:     9974 D7 5A                          stab    <LastTpsVolts
  780:     9976 B6 1031                        ldaa    ADR1_A2DResults1
  781:     9979 0E                             cli
  782:     997A BD D7EB                        jsr     sub_D7EB
  783:     997D 86 14                          ldaa    #$14
  784:     997F 0F                             sei
  785:     9980 B7 1030                        staa    ADCTL_A2DControlReg
  786:     9983 FC 100E                        ldd     TCNT_Counter_FreeRunning16bit
  787:     9986 05                             lsld
  788:     9987 CE 003C                        ldx     #Counter_TimerRegHalfOverflowBetweenSpeedoPulses
  789:     998A 18CE 649E                      ldy     #Temp5
  790:     998E BD E703                        jsr     sub_E703
  791:                                 
  792:     9991                        loc_9991:
  793:     9991 B6 1030                        ldaa    ADCTL_A2DControlReg
  794:     9994 2A FB                          bpl     loc_9991
  795:     9996 CE 98F2                        ldx     #off_98F2
  796:     9999 D6 FE                          ldab    <Ram_FE
  797:     999B C5 07                          bitb    #$07
  798:     999D 27 0E                          beq     loc_99AD
  799:     999F CA 80                          orab    #$80
  800:     99A1 C1 F8                          cmpb    #$F8
  801:     99A3 25 75                          bcs     loc_9A1A
  802:     99A5 C4 07                          andb    #$07
  803:     99A7 58                             aslb
  804:     99A8 3A                             abx
  805:     99A9 EE 00                          ldx     $00,x
  806:     99AB 6E 00                          jmp     $00,x
  807:                                 
  808:     99AD                        loc_99AD:
  809:     99AD FC 1031                        ldd     ADR1_A2DResults1
  810:     99B0 97 59                          staa    <LastCoolantTempVolts
  811:     99B2 D7 58                          stab    <LastChargeTempVolts
  812:     99B4 20 64                          bra     loc_9A1A
  813:                                 
  814:     99B6                        loc_99B6:
  815:     99B6 96 CF                          ldaa    <PIA3_Buffer_t3
  816:     99B8 84 7F                          anda    #$7F
  817:     99BA 13 CF 10 05                    brclr   <PIA3_Buffer_t3 $10 loc_99C3
  818:     99BE 14 23 08                       bset    <BitFlags23 $08
  819:     99C1 20 03                          bra     loc_99C6
  820:                                 
  821:     99C3                        loc_99C3:
  822:     99C3 15 23 08                       bclr    <BitFlags23 $08
  823:                                 
  824:     99C6                        loc_99C6:
  825:     99C6 84 EF                          anda    #$EF
  826:     99C8 97 CF                          staa    <PIA3_Buffer_t3
  827:     99CA B7 6440                        staa    PIA3_Buffer_2_t3
  828:     99CD 20 4B                          bra     loc_9A1A
  829:                                 
  830:     99CF                        loc_99CF:
  831:     99CF B6 1031                        ldaa    ADR1_A2DResults1
  832:     99D2 0E                             cli
  833:     99D3 B1 64A8                        cmpa    CoolantVoltsTmp1
  834:     99D6 26 05                          bne     loc_99DD
  835:     99D8 14 23 20                       bset    <BitFlags23 $20
  836:     99DB 20 03                          bra     loc_99E0
  837:                                 
  838:     99DD                        loc_99DD:
  839:     99DD 15 23 20                       bclr    <BitFlags23 $20
  840:                                 
  841:     99E0                        loc_99E0:
  842:     99E0 B7 64A8                        staa    CoolantVoltsTmp1
  843:     99E3 96 CF                          ldaa    <PIA3_Buffer_t3
  844:     99E5 8A 80                          oraa    #$80
  845:     99E7 97 CF                          staa    <PIA3_Buffer_t3
  846:     99E9 B7 6440                        staa    PIA3_Buffer_2_t3
  847:     99EC 20 2C                          bra     loc_9A1A
  848:                                 
  849:     99EE                        loc_99EE:
  850:     99EE B6 1031                        ldaa    ADR1_A2DResults1
  851:     99F1 0E                             cli
  852:     99F2 B7 64AA                        staa    CoolantVoltsTmp2
  853:     99F5 13 23 20 21                    brclr   <BitFlags23 $20 loc_9A1A
  854:     99F9 D6 22                          ldab    <BitFlags66_t3
  855:     99FB C5 03                          bitb    #$03
  856:     99FD 26 1B                          bne     loc_9A1A
  857:     99FF BD BC57                        jsr     sub_BC57
  858:     9A02 BD BCBF                        jsr     sub_BCBF
  859:     9A05 20 13                          bra     loc_9A1A
  860:                                 
  861:     9A07                        loc_9A07:
  862:     9A07 96 CF                          ldaa    <PIA3_Buffer_t3
  863:     9A09 84 7F                          anda    #$7F
  864:     9A0B 13 23 08 04                    brclr   <BitFlags23 $08 loc_9A13
  865:     9A0F 8A 10                          oraa    #$10
  866:     9A11 20 02                          bra     loc_9A15
  867:                                 
  868:     9A13                        loc_9A13:
  869:     9A13 84 EF                          anda    #$EF
  870:                                 
  871:     9A15                        loc_9A15:
  872:     9A15 97 CF                          staa    <PIA3_Buffer_t3
  873:     9A17 B7 6440                        staa    PIA3_Buffer_2_t3
  874:                                 
  875:     9A1A                        loc_9A1A:
  876:     9A1A C6 10                          ldab    #$10
  877:     9A1C F7 1030                        stab    ADCTL_A2DControlReg
  878:     9A1F 0E                             cli
  879:     9A20 BD BA1C                        jsr     sub_BA1C
  880:     9A23 BD BC36                        jsr     sub_BC36
  881:     9A26 BD BBAA                        jsr     sub_BBAA
  882:     9A29 BD E721                        jsr     sub_E721
  883:     9A2C BD B914                        jsr     sub_B914
  884:     9A2F BD AE79                        jsr     sub_AE79
  885:     9A32 BD A802                        jsr     sub_A802
  886:     9A35 BD BBED                        jsr     sub_BBED
  887:     9A38 BD BF92                        jsr     sub_BF92
  888:     9A3B BD B88A                        jsr     sub_B88A
  889:     9A3E BD B800                        jsr     sub_B800
  890:     9A41 BD C343                        jsr     sub_C343
  891:     9A44 BD BFD7                        jsr     sub_BFD7
  892:     9A47 BD C147                        jsr     sub_C147
  893:     9A4A BD BC01                        jsr     sub_BC01
  894:     9A4D BD 9C2A                        jsr     sub_9C2A
  895:     9A50 BD 9CC9                        jsr     sub_9CC9
  896:     9A53 BD A327                        jsr     sub_A327
  897:     9A56 BD C6B5                        jsr     sub_C6B5
  898:     9A59 BD A65D                        jsr     sub_A65D
  899:     9A5C BD A7E2                        jsr     sub_A7E2
  900:     9A5F BD B9BA                        jsr     sub_B9BA
  901:     9A62 BD C6ED                        jsr     sub_C6ED
  902:     9A65 BD B9F1                        jsr     sub_B9F1
  903:     9A68 BD 9FED                        jsr     sub_9FED
  904:     9A6B BD E191                        jsr     sub_E191
  905:     9A6E 96 45                          ldaa    <Counter_MainLoop
  906:     9A70 26 06                          bne     loc_9A78
  907:     9A72 BD EDC9                        jsr     sub_EDC9
  908:     9A75 BD D733                        jsr     sub_D733
  909:                                 
  910:     9A78                        loc_9A78:
  911:     9A78 96 45                          ldaa    <Counter_MainLoop
  912:     9A7A 44                             lsra
  913:     9A7B 24 1C                          bcc     loc_9A99
  914:     9A7D 44                             lsra
  915:     9A7E 24 0E                          bcc     loc_9A8E
  916:     9A80 BD B976                        jsr     sub_B976
  917:     9A83 BD D978                        jsr     sub_D978
  918:     9A86 BD C2F8                        jsr     sub_C2F8
  919:     9A89 BD BCF2                        jsr     sub_BCF2
  920:     9A8C 20 23                          bra     loc_9AB1
  921:                                 
  922:     9A8E                        loc_9A8E:
  923:     9A8E BD A283                        jsr     sub_A283
  924:     9A91 BD A2A8                        jsr     sub_A2A8
  925:     9A94 BD D6E6                        jsr     sub_D6E6
  926:     9A97 20 18                          bra     loc_9AB1
  927:                                 
  928:     9A99                        loc_9A99:
  929:     9A99 BD 9BBE                        jsr     sub_9BBE
  930:     9A9C BD 9B32                        jsr     sub_9B32
  931:                                  IF NOEMR == 0
  932:     9A9F BD E95C                        jsr     sub_E95C
  937:                                  ENDIF
  938:     9AA2 BD A18C                        jsr     sub_A18C
  939:     9AA5 BD A2BB                        jsr     sub_A2BB
  940:     9AA8 BD DB43                        jsr     sub_DB43
  941:     9AAB BD DBFB                        jsr     sub_DBFB
  942:     9AAE BD DCB0                        jsr     sub_DCB0
  943:                                 
  944:     9AB1                        loc_9AB1:
  945:     9AB1 BD 9D4C                        jsr     sub_9D4C
  946:     9AB4 BD BD34                        jsr     sub_BD34
  947:     9AB7 BD C04E                        jsr     sub_C04E
  948:     9ABA BD C184                        jsr     sub_C184
  949:     9ABD BD C1F1                        jsr     sub_C1F1
  950:     9AC0 BD C2E6                        jsr     sub_C2E6
  951:     9AC3 BD D69A                        jsr     sub_D69A
  952:     9AC6 96 46                          ldaa    <EngineRpm_HB
  953:     9AC8 81 7D                          cmpa    #$7D
  954:     9ACA 24 1B                          bcc     loc_9AE7
  955:     9ACC BD D682                        jsr     sub_D682
  956:     9ACF BD DAD9                        jsr     sub_DAD9
  957:     9AD2 BD D93C                        jsr     sub_D93C
  958:     9AD5 BD DD3A                        jsr     sub_DD3A
  959:     9AD8 BD D842                        jsr     sub_D842
  960:     9ADB BD DB01                        jsr     sub_DB01
  961:     9ADE BD D88B                        jsr     sub_D88B
  962:     9AE1 BD EEB2                        jsr     sub_EEB2
  963:     9AE4 BD DA31                        jsr     sub_DA31
  964:                                 
  965:     9AE7                        loc_9AE7:
  966:                                  IF NOEMR == 0
  967:     9AE7 BD 9EDC                        jsr     sub_9EDC
  972:                                  ENDIF
  973:     9AEA BD CA29                        jsr     sub_CA29
  974:     9AED BD CC78                        jsr     sub_CC78
  975:     9AF0 BD CE70                        jsr     sub_CE70
  976:     9AF3 BD D484                        jsr     sub_D484
  977:     9AF6 BD D3E1                        jsr     sub_D3E1
  978:     9AF9 BD BF3E                        jsr     sub_BF3E
  979:     9AFC BD D75B                        jsr     sub_D75B
  980:     9AFF 12 26 40 16                    brset   <BitFlags6a_t3 $40 loc_9B19
  981:     9B03 0F                             sei
  982:     9B04 B6 6480                        ldaa    CountdownTimerFromKeyOn
  983:     9B07 26 10                          bne     loc_9B19
  984:     9B09 DC 03                          ldd     <MinimumTimerCountBeforeMainloopCanContinue
  985:     9B0B 0E                             cli
  986:     9B0C 43                             coma
  987:     9B0D 11                             cba
  988:     9B0E 27 09                          beq     loc_9B19
  989:     9B10 BD E9F1                        jsr     sub_E9F1
  990:     9B13 DC 0E                          ldd     <Counter_SpeedSensorInterrupt_HB
  991:     9B15 17                             tba
  992:     9B16 53                             comb
  993:     9B17 DD 03                          std     <MinimumTimerCountBeforeMainloopCanContinue
  994:                                 
  995:     9B19                        loc_9B19:
  996:     9B19 0E                             cli
  997:     9B1A BD E825                        jsr     sub_E825
  998:                                 
  999:     9B1D                        loc_9B1D:
 1000:     9B1D FC 100E                        ldd     TCNT_Counter_FreeRunning16bit
 1001:     9B20 B3 64A1                        subd    MinimumTimerCountBeforeMainloopCanContinue2
 1002:     9B23 1A83 0ABE                      cpd     #$0ABE
 1003:     9B27 25 F4                          bcs     loc_9B1D
 1004:     9B29 FC 100E                        ldd     TCNT_Counter_FreeRunning16bit
 1005:     9B2C FD 64A1                        std     MinimumTimerCountBeforeMainloopCanContinue2
 1006:     9B2F 7E 9902                        jmp     loc_9902
 1007:                                 
 1008:     9B32                        sub_9B32:
 1009:     9B32 F6 8845                        ldab    byte_8845
 1010:     9B35 96 CE                          ldaa    <PIA2_Buffer_t3
 1011:     9B37 85 01                          bita    #$01
 1012:     9B39 27 06                          beq     loc_9B41
 1013:     9B3B C0 03                          subb    #$03
 1014:     9B3D 24 02                          bcc     loc_9B41
 1015:     9B3F C6 00                          ldab    #$00
 1016:                                 
 1017:     9B41                        loc_9B41:
 1018:     9B41 D1 5C                          cmpb    <TpsVolts_Minus_LowestSessionTpsVolts
 1019:     9B43 24 16                          bcc     loc_9B5B
 1020:     9B45 F6 64AD                        ldab    UNe_64AD
 1021:     9B48 F1 8846                        cmpb    byte_8846
 1022:     9B4B 24 11                          bcc     loc_9B5E
 1023:     9B4D 96 45                          ldaa    <Counter_MainLoop
 1024:     9B4F 85 07                          bita    #$07
 1025:     9B51 26 06                          bne     loc_9B59
 1026:     9B53 5C                             incb
 1027:     9B54 27 03                          beq     loc_9B59
 1028:     9B56 F7 64AD                        stab    UNe_64AD
 1029:                                 
 1030:     9B59                        loc_9B59:
 1031:     9B59 20 53                          bra     loc_9BAE
 1032:                                 
 1033:     9B5B                        loc_9B5B:
 1034:     9B5B 7F 64AD                        clr     UNe_64AD
 1035:                                 
 1036:     9B5E                        loc_9B5E:
 1037:     9B5E 13 20 40 4C                    brclr   <IPL1 $40 loc_9BAE
 1038:     9B62 D6 44                          ldab    <KeyOnOrEngineRunningTime
 1039:     9B64 F1 884C                        cmpb    byte_884C
 1040:     9B67 25 45                          bcs     loc_9BAE
 1041:     9B69 13 2D 04 10                    brclr   <BitFlags2d $04 loc_9B7D
 1042:     9B6D 96 46                          ldaa    <EngineRpm_HB
 1043:     9B6F 81 20                          cmpa    #$20
 1044:     9B71 24 3B                          bcc     loc_9BAE
 1045:     9B73 12 61 80 37                    brset   <StartupSwitchMirror1 $80 loc_9BAE
 1046:     9B77 13 61 40 33                    brclr   <StartupSwitchMirror1 $40 loc_9BAE
 1047:     9B7B 20 38                          bra     loc_9BB5
 1048:                                 
 1049:     9B7D                        loc_9B7D:
 1050:     9B7D 12 25 08 2D                    brset   <BitFlags68_t3 $08 loc_9BAE
 1051:     9B81 D6 54                          ldab    <CoolantTemp
 1052:     9B83 F1 8847                        cmpb    byte_8847
 1053:     9B86 22 26                          bhi     loc_9BAE
 1054:     9B88 DE 46                          ldx     <EngineRpm_HB
 1055:     9B8A BC 8848                        cpx     word_8848
 1056:     9B8D 24 1F                          bcc     loc_9BAE
 1057:     9B8F BC 884A                        cpx     word_884A
 1058:     9B92 24 28                          bcc     loc_9BBC
 1059:     9B94 BC 8842                        cpx     word_8842
 1060:     9B97 24 06                          bcc     loc_9B9F
 1061:     9B99 F6 8844                        ldab    byte_8844
 1062:     9B9C F7 64AE                        stab    STe_64AE
 1063:                                 
 1064:     9B9F                        loc_9B9F:
 1065:     9B9F F6 64AE                        ldab    STe_64AE
 1066:     9BA2 27 11                          beq     loc_9BB5
 1067:     9BA4 96 45                          ldaa    <Counter_MainLoop
 1068:     9BA6 85 07                          bita    #$07
 1069:     9BA8 26 04                          bne     loc_9BAE
 1070:     9BAA 5A                             decb
 1071:     9BAB F7 64AE                        stab    STe_64AE
 1072:                                 
 1073:     9BAE                        loc_9BAE:
 1074:                                 
 1075:     9BAE 0F                             sei
 1076:     9BAF 96 CE                          ldaa    <PIA2_Buffer_t3
 1077:     9BB1 8A 01                          oraa    #$01
 1078:     9BB3 20 05                          bra     loc_9BBA
 1079:                                 
 1080:                                 
 1081:     9BB5                        loc_9BB5:
 1082:     9BB5 0F                             sei
 1083:     9BB6 96 CE                          ldaa    <PIA2_Buffer_t3
 1084:     9BB8 84 FE                          anda    #$FE
 1085:                                 
 1086:     9BBA                        loc_9BBA:
 1087:     9BBA 97 CE                          staa    <PIA2_Buffer_t3
 1088:                                 
 1089:     9BBC                        loc_9BBC:
 1090:     9BBC 0E                             cli
 1091:     9BBD 39                             rts
 1092:                                 
 1093:     9BBE                        sub_9BBE:
 1094:     9BBE 12 CE 01 19                    brset   <PIA2_Buffer_t3 $01 loc_9BDB
 1095:     9BC2 13 20 40 15                    brclr   <IPL1 $40 loc_9BDB
 1096:     9BC6 13 2D 04 11                    brclr   <BitFlags2d $04 loc_9BDB
 1097:     9BCA B6 64AF                        ldaa    Counter_ACControl1
 1098:     9BCD 4C                             inca
 1099:     9BCE 27 08                          beq     loc_9BD8
 1100:     9BD0 B7 64AF                        staa    Counter_ACControl1
 1101:     9BD3 B1 884D                        cmpa    byte_884D
 1102:     9BD6 25 03                          bcs     loc_9BDB
 1103:                                 
 1104:     9BD8                        loc_9BD8:
 1105:     9BD8 14 2D 02                       bset    <BitFlags2d $02
 1106:                                 
 1107:     9BDB                        loc_9BDB:
 1108:     9BDB D6 62                          ldab    <ACClutchToggleVar
 1109:     9BDD 96 25                          ldaa    <BitFlags68_t3
 1110:     9BDF 44                             lsra
 1111:     9BE0 98 25                          eora    <BitFlags68_t3
 1112:     9BE2 85 20                          bita    #$20
 1113:     9BE4 27 2E                          beq     loc_9C14
 1114:     9BE6 13 25 20 15                    brclr   <BitFlags68_t3 $20 loc_9BFF
 1115:     9BEA C1 30                          cmpb    #$30
 1116:     9BEC 25 06                          bcs     loc_9BF4
 1117:     9BEE 15 62 07                       bclr    <ACClutchToggleVar $07
 1118:     9BF1 14 25 40                       bset    <BitFlags68_t3 $40
 1119:                                 
 1120:     9BF4                        loc_9BF4:
 1121:     9BF4 96 45                          ldaa    <Counter_MainLoop
 1122:     9BF6 85 1F                          bita    #$1F
 1123:     9BF8 26 2F                          bne     locret_9C29
 1124:     9BFA CB 08                          addb    #$08
 1125:     9BFC 24 29                          bcc     loc_9C27
 1126:     9BFE 39                             rts
 1127:                                 
 1128:     9BFF                        loc_9BFF:
 1129:     9BFF 13 62 07 07                    brclr   <ACClutchToggleVar $07 loc_9C0A
 1130:     9C03 17                             tba
 1131:     9C04 84 07                          anda    #$07
 1132:     9C06 81 05                          cmpa    #$05
 1133:     9C08 23 07                          bls     loc_9C11
 1134:                                 
 1135:     9C0A                        loc_9C0A:
 1136:     9C0A C1 B8                          cmpb    #$B8
 1137:     9C0C 25 E6                          bcs     loc_9BF4
 1138:     9C0E 15 25 40                       bclr    <BitFlags68_t3 $40
 1139:                                 
 1140:     9C11                        loc_9C11:
 1141:     9C11 5F                             clrb
 1142:     9C12 20 13                          bra     loc_9C27
 1143:                                 
 1144:     9C14                        loc_9C14:
 1145:     9C14 12 62 07 03                    brset   <ACClutchToggleVar $07 loc_9C1B
 1146:     9C18 5C                             incb
 1147:     9C19 D7 62                          stab    <ACClutchToggleVar
 1148:                                 
 1149:     9C1B                        loc_9C1B:
 1150:     9C1B 12 25 40 D5                    brset   <BitFlags68_t3 $40 loc_9BF4
 1151:     9C1F C1 60                          cmpb    #$60
 1152:     9C21 25 D1                          bcs     loc_9BF4
 1153:     9C23 C4 07                          andb    #$07
 1154:     9C25 CA 60                          orab    #$60
 1155:                                 
 1156:     9C27                        loc_9C27:
 1157:     9C27 D7 62                          stab    <ACClutchToggleVar
 1158:                                 
 1159:     9C29                        locret_9C29:
 1160:     9C29 39                             rts
 1161:                                 
 1162:     9C2A                        sub_9C2A:
 1163:     9C2A 96 D8                          ldaa    <DRBPointer1
 1164:     9C2C 81 0A                          cmpa    #$0A
 1165:     9C2E 26 04                          bne     loc_9C34
 1166:     9C30 14 CE 10                       bset    <PIA2_Buffer_t3 $10
 1167:     9C33 39                             rts
 1168:                                 
 1169:     9C34                        loc_9C34:
 1170:     9C34 81 18                          cmpa    #$18
 1171:     9C36 26 49                          bne     loc_9C81
 1172:     9C38 96 DB                          ldaa    <DRBSerialMode
 1173:     9C3A 85 30                          bita    #$30
 1174:     9C3C 26 43                          bne     loc_9C81
 1175:     9C3E 96 35                          ldaa    <TimerOverflowsBetweenCamPulses
 1176:     9C40 81 50                          cmpa    #$50
 1177:     9C42 23 2F                          bls     loc_9C73
 1178:     9C44 96 D9                          ldaa    <DRBPointer2
 1179:     9C46 16                             tab
 1180:     9C47 84 0F                          anda    #$0F
 1181:     9C49 37                             pshb
 1182:     9C4A 54                             lsrb
 1183:     9C4B 54                             lsrb
 1184:     9C4C 54                             lsrb
 1185:     9C4D 54                             lsrb
 1186:     9C4E 53                             comb
 1187:     9C4F C4 0F                          andb    #$0F
 1188:     9C51 11                             cba
 1189:     9C52 33                             pulb
 1190:     9C53 26 1E                          bne     loc_9C73
 1191:     9C55 14 2D 10                       bset    <BitFlags2d $10
 1192:     9C58 7D 0045                        tst     Counter_MainLoop
 1193:     9C5B 26 0A                          bne     loc_9C67
 1194:     9C5D 4A                             deca
 1195:     9C5E 27 13                          beq     loc_9C73
 1196:     9C60 C4 F0                          andb    #$F0
 1197:     9C62 CB 10                          addb    #$10
 1198:     9C64 1B                             aba
 1199:     9C65 97 D9                          staa    <DRBPointer2
 1200:                                 
 1201:     9C67                        loc_9C67:
 1202:     9C67 86 E1                          ldaa    #$E1
 1203:     9C69 BD CD22                        jsr     sub_CD22
 1204:     9C6C 0F                             sei
 1205:     9C6D 96 CE                          ldaa    <PIA2_Buffer_t3
 1206:     9C6F 84 EF                          anda    #$EF
 1207:     9C71 20 45                          bra     loc_9CB8
 1208:                                 
 1209:     9C73                        loc_9C73:
 1210:     9C73 4F                             clra
 1211:     9C74 97 D8                          staa    <DRBPointer1
 1212:     9C76 97 E0                          staa    <ATMOffset
 1213:     9C78 15 2D 10                       bclr    <BitFlags2d $10
 1214:     9C7B 15 DB 30                       bclr    <DRBSerialMode $30
 1215:     9C7E BD CD22                        jsr     sub_CD22
 1216:                                 
 1217:     9C81                        loc_9C81:
 1218:     9C81 CE 005B                        ldx     #BatteryVolts
 1219:     9C84 96 54                          ldaa    <CoolantTemp
 1220:     9C86 81 8F                          cmpa    #$8F
 1221:     9C88 24 03                          bcc     loc_9C8D
 1222:     9C8A CE 005B                        ldx     #BatteryVolts
 1223:                                 
 1224:     9C8D                        loc_9C8D:
 1225:     9C8D C6 04                          ldab    #$04
 1226:     9C8F 96 5B                          ldaa    <BatteryVolts
 1227:     9C91 81 B2                          cmpa    #$B2
 1228:     9C93 12 23 04 0B                    brset   <BitFlags23 $04 loc_9CA2
 1229:     9C97 24 0D                          bcc     loc_9CA6
 1230:     9C99 8C 005B                        cpx     #$005B
 1231:     9C9C 26 08                          bne     loc_9CA6
 1232:     9C9E C6 0B                          ldab    #$0B
 1233:     9CA0 20 04                          bra     loc_9CA6
 1234:                                 
 1235:     9CA2                        loc_9CA2:
 1236:     9CA2 25 02                          bcs     loc_9CA6
 1237:     9CA4 C6 03                          ldab    #$03
 1238:                                 
 1239:     9CA6                        loc_9CA6:
 1240:     9CA6 0F                             sei
 1241:     9CA7 96 CE                          ldaa    <PIA2_Buffer_t3
 1242:     9CA9 84 EF                          anda    #$EF
 1243:     9CAB D1 34                          cmpb    <Counter_TimerPastHalfwayBetweenCamPulses
 1244:     9CAD 22 09                          bhi     loc_9CB8
 1245:     9CAF 9C 44                          cpx     <KeyOnOrEngineRunningTime
 1246:     9CB1 22 05                          bhi     loc_9CB8
 1247:     9CB3 8A 10                          oraa    #$10
 1248:     9CB5 15 80 FF                       bclr    <Ram_80 $FF
 1249:                                 
 1250:     9CB8                        loc_9CB8:
 1251:     9CB8 97 CE                          staa    <PIA2_Buffer_t3
 1252:     9CBA 0E                             cli
 1253:     9CBB 13 20 40 09                    brclr   <IPL1 $40 locret_9CC8
 1254:     9CBF D6 44                          ldab    <KeyOnOrEngineRunningTime
 1255:     9CC1 C1 04                          cmpb    #$04
 1256:     9CC3 25 03                          bcs     locret_9CC8
 1257:     9CC5 14 23 04                       bset    <BitFlags23 $04
 1258:                                 
 1259:     9CC8                        locret_9CC8:
 1260:     9CC8 39                             rts
 1261:                                 
 1262:     9CC9                        sub_9CC9:
 1263:     9CC9 13 20 40 72                    brclr   <IPL1 $40 loc_9D3F
 1264:                                 
 1265:     9CCD                        loc_9CCD:
 1266:     9CCD B6 8016                        ldaa    byte_8016
 1267:                                 
 1268:     9CD0                        ATM_SerialOut:
 1269:     9CD0 85 02                          bita    #$02
 1270:     9CD2 27 77                          beq     locret_9D4B
 1271:     9CD4 96 6F                          ldaa    <InjectorPulsewidth_HB
 1272:     9CD6 D6 46                          ldab    <EngineRpm_HB
 1273:     9CD8 3D                             mul
 1274:     9CD9 FD 6499                        std     Temp0
 1275:     9CDC 96 5B                          ldaa    <BatteryVolts
 1276:     9CDE F6 8863                        ldab    byte_8863
 1277:     9CE1 3D                             mul
 1278:     9CE2 B3 885F                        subd    word_885F
 1279:     9CE5 24 03                          bcc     loc_9CEA
 1280:     9CE7 CC 0000                        ldd     #$0000
 1281:                                 
 1282:     9CEA                        loc_9CEA:
 1283:     9CEA 13 27 08 06                    brclr   <BitFlags27 $08 loc_9CF4
 1284:     9CEE 13 CD 80 40                    brclr   <PIA1_Buffer_t3 $80 loc_9D32
 1285:     9CF2 20 0C                          bra     loc_9D00
 1286:                                 
 1287:     9CF4                        loc_9CF4:
 1288:     9CF4 13 CE 08 3A                    brclr   <PIA2_Buffer_t3 $08 loc_9D32
 1289:     9CF8 B3 8861                        subd    word_8861
 1290:     9CFB 24 03                          bcc     loc_9D00
 1291:     9CFD CC 0000                        ldd     #$0000
 1292:                                 
 1293:     9D00                        loc_9D00:
 1294:     9D00 1AB3 6499                      cpd     Temp0
 1295:     9D04 23 45                          bls     locret_9D4B
 1296:     9D06 12 2D 40 0C                    brset   <BitFlags2d $40 loc_9D16
 1297:     9D0A 96 5B                          ldaa    <BatteryVolts
 1298:     9D0C B1 8864                        cmpa    byte_8864
 1299:     9D0F 23 3A                          bls     locret_9D4B
 1300:     9D11 14 2D 40                       bset    <BitFlags2d $40
 1301:     9D14 20 0E                          bra     loc_9D24
 1302:                                 
 1303:     9D16                        loc_9D16:
 1304:     9D16 96 5B                          ldaa    <BatteryVolts
 1305:     9D18 F6 8864                        ldab    byte_8864
 1306:     9D1B CB 03                          addb    #$03
 1307:     9D1D 24 02                          bcc     loc_9D21
 1308:     9D1F C6 FF                          ldab    #$FF
 1309:                                 
 1310:     9D21                        loc_9D21:
 1311:     9D21 11                             cba
 1312:     9D22 23 27                          bls     locret_9D4B
 1313:                                 
 1314:     9D24                        loc_9D24:
 1315:     9D24 13 27 08 05                    brclr   <BitFlags27 $08 loc_9D2D
 1316:     9D28 15 CD 80                       bclr    <PIA1_Buffer_t3 $80
 1317:     9D2B 20 1E                          bra     locret_9D4B
 1318:                                 
 1319:     9D2D                        loc_9D2D:
 1320:     9D2D 15 CE 08                       bclr    <PIA2_Buffer_t3 $08
 1321:     9D30 20 19                          bra     locret_9D4B
 1322:                                 
 1323:     9D32                        loc_9D32:
 1324:     9D32 1AB3 6499                      cpd     Temp0
 1325:     9D36 23 07                          bls     loc_9D3F
 1326:     9D38 96 5B                          ldaa    <BatteryVolts
 1327:     9D3A B1 8864                        cmpa    byte_8864
 1328:     9D3D 22 0C                          bhi     locret_9D4B
 1329:                                 
 1330:     9D3F                        loc_9D3F:
 1331:     9D3F 13 27 08 05                    brclr   <BitFlags27 $08 loc_9D48
 1332:     9D43 14 CD 80                       bset    <PIA1_Buffer_t3 $80
 1333:     9D46 20 03                          bra     locret_9D4B
 1334:                                 
 1335:     9D48                        loc_9D48:
 1336:     9D48 14 CE 08                       bset    <PIA2_Buffer_t3 $08
 1337:                                 
 1338:     9D4B                        locret_9D4B:
 1339:     9D4B 39                             rts
 1340:                                 
 1341:     9D4C                        sub_9D4C:
 1342:     9D4C B6 8A3B                        ldaa    byte_8A3B
 1343:     9D4F 85 08                          bita    #$08
 1344:     9D51 26 03                          bne     loc_9D56
 1345:     9D53 7E 9E32                        jmp     loc_9E32
 1346:                                 
 1347:     9D56                        loc_9D56:
 1348:     9D56 12 20 40 0C                    brset   <IPL1 $40 loc_9D66
 1349:     9D5A 96 54                          ldaa    <CoolantTemp
 1350:     9D5C B1 8A9D                        cmpa    byte_8A9D
 1351:     9D5F 24 14                          bcc     loc_9D75
 1352:     9D61 14 28 80                       bset    <BitFlags6d_t3 $80
 1353:     9D64 20 0F                          bra     loc_9D75
 1354:                                 
 1355:     9D66                        loc_9D66:
 1356:     9D66 96 44                          ldaa    <KeyOnOrEngineRunningTime
 1357:     9D68 B1 8A9E                        cmpa    byte_8A9E
 1358:     9D6B 25 08                          bcs     loc_9D75
 1359:     9D6D 12 28 80 04                    brset   <BitFlags6d_t3 $80 loc_9D75
 1360:     9D71 12 29 40 03                    brset   <BitFlags29 $40 loc_9D78
 1361:                                 
 1362:     9D75                        loc_9D75:
 1363:     9D75 7E 9DD7                        jmp loc_9DD7
 1364:                                 
 1365:     9D78                        loc_9D78:
 1366:     9D78 96 D5                          ldaa    <b5C_IPL1_t3
 1367:     9D7A 26 5B                          bne     loc_9DD7
 1368:     9D7C 96 4F                          ldaa    <MapVolts
 1369:     9D7E B1 8A9F                        cmpa    byte_8A9F
 1370:     9D81 25 54                          bcs     loc_9DD7
 1371:     9D83 DE E4                          ldx     <EGRVar3_ErrorCodeBufferHB
 1372:     9D85 12 28 40 6C                    brset   <BitFlags6d_t3 $40 loc_9DF5
 1373:     9D89 BC 8AA7                        cpx     word_8AA7
 1374:     9D8C 24 58                          bcc     loc_9DE6
 1375:     9D8E 96 50                          ldaa    <MapValue
 1376:     9D90 B1 8AA3                        cmpa    byte_8AA3
 1377:     9D93 25 42                          bcs     loc_9DD7
 1378:     9D95 B1 8AA2                        cmpa    byte_8AA2
 1379:     9D98 24 3D                          bcc     loc_9DD7
 1380:     9D9A 96 5C                          ldaa    <TpsVolts_Minus_LowestSessionTpsVolts
 1381:     9D9C B1 8AA1                        cmpa    byte_8AA1
 1382:     9D9F 25 36                          bcs     loc_9DD7
 1383:     9DA1 B1 8AA0                        cmpa    byte_8AA0
 1384:     9DA4 24 31                          bcc     loc_9DD7
 1385:     9DA6 96 46                          ldaa    <EngineRpm_HB
 1386:     9DA8 B1 8AA5                        cmpa    byte_8AA5
 1387:     9DAB 25 2A                          bcs     loc_9DD7
 1388:     9DAD B1 8AA4                        cmpa    byte_8AA4
 1389:     9DB0 24 25                          bcc     loc_9DD7
 1390:     9DB2 96 83                          ldaa    <Counter_O2SensorFeedbackCount_Signed
 1391:     9DB4 B1 8AA6                        cmpa    byte_8AA6
 1392:     9DB7 24 1E                          bcc     loc_9DD7
 1393:     9DB9 08                             inx
 1394:     9DBA DF E4                          stx     <EGRVar3_ErrorCodeBufferHB
 1395:     9DBC 14 28 10                       bset    <BitFlags6d_t3 $10
 1396:     9DBF F6 8AAF                        ldab    byte_8AAF
 1397:     9DC2 90 E3                          suba    <EGRVar5_EGR_Temp_1
 1398:     9DC4 25 05                          bcs     loc_9DCB
 1399:     9DC6 3D                             mul
 1400:     9DC7 89 00                          adca    #$00
 1401:     9DC9 20 05                          bra     loc_9DD0
 1402:                                 
 1403:     9DCB                        loc_9DCB:
 1404:     9DCB 40                             nega
 1405:     9DCC 3D                             mul
 1406:     9DCD 89 00                          adca    #$00
 1407:     9DCF 40                             nega
 1408:                                 
 1409:     9DD0                        loc_9DD0:
 1410:     9DD0 9B E3                          adda    <EGRVar5_EGR_Temp_1
 1411:     9DD2 97 E3                          staa    <EGRVar5_EGR_Temp_1
 1412:     9DD4 7E 9E6D                        jmp     loc_9E6D
 1413:                                 
 1414:     9DD7                        loc_9DD7:
 1415:     9DD7 CE 0000                        ldx     #Ram_00
 1416:     9DDA DF E4                          stx     <EGRVar3_ErrorCodeBufferHB
 1417:     9DDC 15 28 50                       bclr    <BitFlags6d_t3 $50
 1418:     9DDF 96 83                          ldaa    <Counter_O2SensorFeedbackCount_Signed
 1419:     9DE1 97 E3                          staa    <EGRVar5_EGR_Temp_1
 1420:     9DE3 7E 9E6D                        jmp     loc_9E6D
 1421:                                 
 1422:     9DE6                        loc_9DE6:
 1423:     9DE6 CE 0000                        ldx     #Ram_00
 1424:     9DE9 14 28 40                       bset    <BitFlags6d_t3 $40
 1425:     9DEC 15 28 10                       bclr    <BitFlags6d_t3 $10
 1426:     9DEF 96 E3                          ldaa    <EGRVar5_EGR_Temp_1
 1427:     9DF1 97 E6                          staa    <EGRVar6
 1428:     9DF3 20 05                          bra     loc_9DFA
 1429:                                 
 1430:     9DF5                        loc_9DF5:
 1431:     9DF5 BC 8AB1                        cpx     word_8AB1
 1432:     9DF8 24 43                          bcc     loc_9E3D
 1433:                                 
 1434:     9DFA                        loc_9DFA:
 1435:     9DFA 08                             inx
 1436:     9DFB DF E4                          stx     <EGRVar3_ErrorCodeBufferHB
 1437:     9DFD 96 50                          ldaa    <MapValue
 1438:     9DFF B1 8AAD                        cmpa    byte_8AAD
 1439:     9E02 25 D3                          bcs     loc_9DD7
 1440:     9E04 B1 8AAE                        cmpa    byte_8AAE
 1441:     9E07 24 CE                          bcc     loc_9DD7
 1442:     9E09 96 5C                          ldaa    <TpsVolts_Minus_LowestSessionTpsVolts
 1443:     9E0B B1 8AAB                        cmpa    byte_8AAB
 1444:     9E0E 25 C7                          bcs     loc_9DD7
 1445:     9E10 B1 8AAC                        cmpa    byte_8AAC
 1446:     9E13 24 C2                          bcc     loc_9DD7
 1447:     9E15 96 46                          ldaa    <EngineRpm_HB
 1448:     9E17 B1 8AA9                        cmpa    byte_8AA9
 1449:     9E1A 25 BB                          bcs     loc_9DD7
 1450:     9E1C B1 8AAA                        cmpa    byte_8AAA
 1451:     9E1F 24 B6                          bcc     loc_9DD7
 1452:     9E21 96 83                          ldaa    <Counter_O2SensorFeedbackCount_Signed
 1453:     9E23 91 E6                          cmpa    <EGRVar6
 1454:     9E25 25 46                          bcs     loc_9E6D
 1455:     9E27 97 E6                          staa    <EGRVar6
 1456:     9E29 90 E3                          suba    <EGRVar5_EGR_Temp_1
 1457:     9E2B 97 E8                          staa    <EGRVar7
 1458:     9E2D B1 8AB0                        cmpa    byte_8AB0
 1459:     9E30 25 3B                          bcs     loc_9E6D
 1460:                                 
 1461:     9E32                        loc_9E32:
 1462:     9E32 7F 00E7                        clr     EGRVar1_ErrorCodeCounter
 1463:     9E35 14 28 80                       bset    <BitFlags6d_t3 $80
 1464:     9E38 15 28 70                       bclr    <BitFlags6d_t3 $70
 1465:     9E3B 20 30                          bra     loc_9E6D
 1466:                                 
 1467:     9E3D                        loc_9E3D:
 1468:     9E3D CE 0000                        ldx     #$0000
 1469:     9E40 DF E4                          stx     <EGRVar3_ErrorCodeBufferHB
 1470:     9E42 D6 28                          ldab    <BitFlags6d_t3
 1471:     9E44 C4 AF                          andb    #$AF
 1472:     9E46 96 E7                          ldaa    <EGRVar1_ErrorCodeCounter
 1473:     9E48 4C                             inca
 1474:     9E49 97 E7                          staa    <EGRVar1_ErrorCodeCounter
 1475:     9E4B B1 8AB3                        cmpa    byte_8AB3
 1476:     9E4E 25 0F                          bcs     loc_9E5F
 1477:     9E50 CA 20                          orab    #$20
 1478:     9E52 37                             pshb
 1479:     9E53 CC 2E81                        ldd     #$2E81
 1480:     9E56 BD D2C9                        jsr     ThrowNonCriticalError
 1481:     9E59 24 03                          bcc     loc_9E5E
 1482:     9E5B 14 D6 08                       bset    <b5D_IPL2_t3 $08
 1483:                                 
 1484:     9E5E                        loc_9E5E:
 1485:     9E5E 33                             pulb
 1486:                                 
 1487:     9E5F                        loc_9E5F:
 1488:     9E5F 96 E9                          ldaa    <EGRVar8
 1489:     9E61 4C                             inca
 1490:     9E62 97 E9                          staa    <EGRVar8
 1491:     9E64 B1 8A9C                        cmpa    byte_8A9C
 1492:     9E67 25 02                          bcs     loc_9E6B
 1493:     9E69 CA 80                          orab    #$80
 1494:                                 
 1495:     9E6B                        loc_9E6B:
 1496:     9E6B D7 28                          stab    <BitFlags6d_t3
 1497:                                 
 1498:     9E6D                        loc_9E6D:
 1499:     9E6D 12 28 40 5A                    brset   <BitFlags6d_t3 $40 loc_9ECB
 1500:     9E71 96 CC                          ldaa    <Ram_CC
 1501:     9E73 27 03                          beq     loc_9E78
 1502:     9E75 7A 00CC                        dec     Ram_CC
 1503:                                 
 1504:     9E78                        loc_9E78:
 1505:     9E78 13 22 80 46                    brclr   <BitFlags66_t3 $80 loc_9EC2
 1506:     9E7C 12 22 40 42                    brset   <BitFlags66_t3 $40 loc_9EC2
 1507:     9E80 B6 8855                        ldaa    byte_8855
 1508:     9E83 12 CE 02 07                    brset   <PIA2_Buffer_t3 $02 loc_9E8E
 1509:     9E87 B0 8856                        suba    byte_8856
 1510:     9E8A 24 02                          bcc     loc_9E8E
 1511:     9E8C 86 00                          ldaa    #$00
 1512:                                 
 1513:     9E8E                        loc_9E8E:
 1514:     9E8E 91 46                          cmpa    <EngineRpm_HB
 1515:     9E90 25 30                          bcs     loc_9EC2
 1516:     9E92 96 54                          ldaa    <CoolantTemp
 1517:     9E94 B1 8851                        cmpa    byte_8851
 1518:     9E97 25 29                          bcs     loc_9EC2
 1519:     9E99 96 50                          ldaa    <MapValue
 1520:     9E9B 12 CE 02 06                    brset   <PIA2_Buffer_t3 $02 loc_9EA5
 1521:     9E9F B0 884F                        suba    byte_884F
 1522:     9EA2 24 01                          bcc     loc_9EA5
 1523:     9EA4 4F                             clra
 1524:                                 
 1525:     9EA5                        loc_9EA5:
 1526:     9EA5 B1 8850                        cmpa    byte_8850
 1527:     9EA8 25 18                          bcs     loc_9EC2
 1528:     9EAA 96 0D                          ldaa    <BaroPressure
 1529:     9EAC B0 8852                        suba    byte_8852
 1530:     9EAF 24 01                          bcc     loc_9EB2
 1531:     9EB1 4F                             clra
 1532:                                 
 1533:     9EB2                        loc_9EB2:
 1534:     9EB2 91 50                          cmpa    <MapValue
 1535:     9EB4 24 19                          bcc     loc_9ECF
 1536:     9EB6 96 0D                          ldaa    <BaroPressure
 1537:     9EB8 B0 8854                        suba    byte_8854
 1538:     9EBB 24 01                          bcc     loc_9EBE
 1539:     9EBD 4F                             clra
 1540:                                 
 1541:     9EBE                        loc_9EBE:
 1542:     9EBE 91 50                          cmpa    <MapValue
 1543:     9EC0 24 19                          bcc     locret_9EDB
 1544:                                 
 1545:     9EC2                        loc_9EC2:
 1546:     9EC2 13 CE 02 05                    brclr   <PIA2_Buffer_t3 $02 loc_9ECB
 1547:     9EC6 B6 8853                        ldaa    byte_8853
 1548:     9EC9 97 CC                          staa    <Ram_CC
 1549:                                 
 1550:     9ECB                        loc_9ECB:
 1551:     9ECB 15 CE 02                       bclr    <PIA2_Buffer_t3 $02
 1552:     9ECE 39                             rts
 1553:                                 
 1554:     9ECF                        loc_9ECF:
 1555:     9ECF 12 CE 02 05                    brset   <PIA2_Buffer_t3 $02 loc_9ED8
 1556:     9ED3 B6 8853                        ldaa    byte_8853
 1557:     9ED6 97 CC                          staa    <Ram_CC
 1558:                                 
 1559:     9ED8                        loc_9ED8:
 1560:     9ED8 14 CE 02                       bset    <PIA2_Buffer_t3 $02
 1561:                                 
 1562:     9EDB                        locret_9EDB:
 1563:     9EDB 39                             rts
 1564:                                 
 1565:                                  IF NOEMR == 0
 1566:                                 
 1567:     9EDC                        sub_9EDC:
 1568:     9EDC 12 20 40 06                    brset   <IPL1 $40 loc_9EE6
 1569:     9EE0 12 26 04 0F                    brset   <BitFlags6a_t3 $04 loc_9EF3
 1570:     9EE4 20 12                          bra     loc_9EF8
 1571:                                 
 1572:     9EE6                        loc_9EE6:
 1573:     9EE6 12 26 40 46                    brset   <BitFlags6a_t3 $40 locret_9F30
 1574:     9EEA FC B610                        ldd     MCU_eeprom + $10
 1575:     9EED 1A83 5AA5                      cpd     #$5AA5
 1576:     9EF1 27 05                          beq     loc_9EF8
 1577:                                 
 1578:     9EF3                        loc_9EF3:
 1579:     9EF3 15 CD 08                       bclr    <PIA1_Buffer_t3 $08
 1580:     9EF6 20 03                          bra     loc_9EFB
 1581:                                 
 1582:                                 
 1583:     9EF8                        loc_9EF8:
 1584:     9EF8 14 CD 08                       bset    <PIA1_Buffer_t3 $08
 1585:                                 
 1586:     9EFB                        loc_9EFB:
 1587:     9EFB 12 20 80 03                    brset   <IPL1 $80 loc_9F02
 1588:     9EFF 7E 9FB2                        jmp     loc_9FB2
 1589:                                 
 1590:     9F02                        loc_9F02:
 1591:     9F02 12 26 40 2A                    brset   <BitFlags6a_t3 $40 locret_9F30
 1592:     9F06 13 26 20 27                    brclr   <BitFlags6a_t3 $20 loc_9F31
 1593:     9F0A BD 9FD5                        jsr     sub_9FD5
 1594:     9F0D F7 64B1                        stab    DRBOffsetStored_LB
 1595:     9F10 7C 64B0                        inc     DRBOffsetStored_HB
 1596:     9F13 14 26 40                       bset    <BitFlags6a_t3 $40
 1597:     9F16 15 26 20                       bclr    <BitFlags6a_t3 $20
 1598:     9F19 0F                             sei
 1599:     9F1A 15 20 80                       bclr    <IPL1 $80
 1600:     9F1D 0E                             cli
 1601:     9F1E 1AB3 8B56                      cpd     word_8B56
 1602:     9F22 25 03                          bcs     loc_9F27
 1603:     9F24 14 2F 40                       bset    <BitFlags2f $40
 1604:                                 
 1605:     9F27                        loc_9F27:
 1606:     9F27 1AB3 8AB4                      cpd     word_8AB4
 1607:     9F2B 26 03                          bne     locret_9F30
 1608:     9F2D 14 26 10                       bset    <BitFlags6a_t3 $10
 1609:                                 
 1610:     9F30                        locret_9F30:
 1611:     9F30 39                             rts
 1612:                                 
 1613:     9F31                        loc_9F31:
 1614:     9F31 CE 001C                        ldx     #ErrorBitRegisterStored3
 1615:     9F34 86 30                          ldaa    #$30
 1616:                                 
 1617:     9F36                        loc_9F36:
 1618:     9F36 1F 00 FF 0A                    brclr   $00,x $FF loc_9F44
 1619:     9F3A A1 00                          cmpa    $00,x
 1620:     9F3C 27 56                          beq     loc_9F94
 1621:     9F3E 09                             dex
 1622:     9F3F 8C 0015                        cpx     #$0015
 1623:     9F42 24 F2                          bcc     loc_9F36
 1624:                                 
 1625:     9F44                        loc_9F44:
 1626:     9F44 CC 0000                        ldd     #$0000
 1627:     9F47 FD 649D                        std     Temp4
 1628:     9F4A B7 64B0                        staa    DRBOffsetStored_HB
 1629:     9F4D CE B600                        ldx     #MCU_eeprom
 1630:     9F50 18CE B60E                      ldy     #MCU_eeprom + $0E
 1631:                                 
 1632:     9F54                        loc_9F54:
 1633:     9F54 EC 00                          ldd     $00,x
 1634:     9F56 18A3 00                        subd    $00,y
 1635:     9F59 1A83 0001                      cpd     #$0001
 1636:     9F5D 26 11                          bne     loc_9F70
 1637:     9F5F EC 00                          ldd     $00,x
 1638:     9F61 1AB3 649D                      cpd     Temp4
 1639:     9F65 25 09                          bcs     loc_9F70
 1640:     9F67 FD 649D                        std     Temp4
 1641:     9F6A 3C                             pshx
 1642:     9F6B 32                             pula
 1643:     9F6C 32                             pula
 1644:     9F6D B7 64B0                        staa    DRBOffsetStored_HB
 1645:                                 
 1646:     9F70                        loc_9F70:
 1647:     9F70 8C B60E                        cpx     #MCU_eeprom + $0E
 1648:     9F73 27 12                          beq     loc_9F87
 1649:     9F75 08                             inx
 1650:     9F76 08                             inx
 1651:     9F77 188C B60E                      cpy     #MCU_eeprom + $0E
 1652:     9F7B 26 04                          bne     loc_9F81
 1653:     9F7D 18CE B5FE                      ldy     #MCU_eeprom - $02
 1654:                                 
 1655:     9F81                        loc_9F81:
 1656:     9F81 1808                           iny
 1657:     9F83 1808                           iny
 1658:     9F85 20 CD                          bra     loc_9F54
 1659:                                 
 1660:     9F87                        loc_9F87:
 1661:     9F87 FC 649D                        ldd     Temp4
 1662:     9F8A 26 0E                          bne     loc_9F9A
 1663:     9F8C CC 3003                        ldd     #$3003
 1664:     9F8F BD D2C9                        jsr     ThrowNonCriticalError
 1665:     9F92 24 05                          bcc     locret_9F99
 1666:                                 
 1667:     9F94                        loc_9F94:
 1668:     9F94 0F                             sei
 1669:     9F95 15 20 80                       bclr    <IPL1 $80
 1670:     9F98 0E                             cli
 1671:                                 
 1672:     9F99                        locret_9F99:
 1673:     9F99 39                             rts
 1674:                                 
 1675:     9F9A                        loc_9F9A:
 1676:     9F9A B6 64B0                        ldaa    DRBOffsetStored_HB
 1677:     9F9D 8B 02                          adda    #$02
 1678:     9F9F 81 10                          cmpa    #$10
 1679:     9FA1 26 02                          bne     loc_9FA5
 1680:     9FA3 86 00                          ldaa    #$00
 1681:                                 
 1682:     9FA5                        loc_9FA5:
 1683:     9FA5 B7 64B0                        staa    DRBOffsetStored_HB
 1684:     9FA8 BD 9FD5                        jsr     sub_9FD5
 1685:     9FAB B7 64B1                        staa    DRBOffsetStored_LB
 1686:     9FAE 14 26 60                       bset    <BitFlags6a_t3 $60
 1687:                                 
 1688:     9FB1                        locret_9FB1:
 1689:     9FB1 39                             rts
 1690:                                 
 1691:     9FB2                        loc_9FB2:
 1692:     9FB2 13 26 10 FB                    brclr   <BitFlags6a_t3 $10 locret_9FB1
 1693:     9FB6 12 26 40 F7                    brset   <BitFlags6a_t3 $40 locret_9FB1
 1694:     9FBA CC 105A                        ldd     #$105A
 1695:     9FBD 13 26 20 0A                    brclr   <BitFlags6a_t3 $20 loc_9FCB
 1696:     9FC1 4C                             inca
 1697:     9FC2 53                             comb
 1698:     9FC3 15 26 30                       bclr    <BitFlags6a_t3 $30
 1699:     9FC6 14 26 40                       bset    <BitFlags6a_t3 $40
 1700:     9FC9 20 03                          bra     loc_9FCE
 1701:                                 
 1702:     9FCB                        loc_9FCB:
 1703:     9FCB 14 26 60                       bset    <BitFlags6a_t3 $60
 1704:                                 
 1705:     9FCE                        loc_9FCE:
 1706:     9FCE B7 64B0                        staa    DRBOffsetStored_HB
 1707:     9FD1 F7 64B1                        stab    DRBOffsetStored_LB
 1708:     9FD4 39                             rts
 1709:                                 
 1710:     9FD5                        sub_9FD5:
 1711:     9FD5 CE B600                        ldx     #MCU_eeprom
 1712:     9FD8 F6 64B0                        ldab    DRBOffsetStored_HB
 1713:     9FDB C0 02                          subb    #$02
 1714:     9FDD 2A 02                          bpl     loc_9FE1
 1715:     9FDF C6 0E                          ldab    #$0E
 1716:                                 
 1717:     9FE1                        loc_9FE1:
 1718:     9FE1 3A                             abx
 1719:     9FE2 EC 00                          ldd     $00,x
 1720:     9FE4 C3 0001                        addd    #$0001
 1721:     9FE7 24 03                          bcc     locret_9FEC
 1722:     9FE9 CC FFFF                        ldd     #$FFFF
 1723:                                 
 1724:     9FEC                        locret_9FEC:
 1725:     9FEC 39                             rts
 1726:                                 
 1727:                                  ENDIF
 1728:                                 
 1729:     9FED                        sub_9FED:
 1730:     9FED B6 8016                        ldaa    byte_8016
 1731:     9FF0 85 80                          bita    #$80
 1732:     9FF2 26 03                          bne     loc_9FF7
 1733:                                 
 1734:     9FF4                        loc_9FF4:
 1735:     9FF4 7E A09B                        jmp     loc_A09B
 1736:                                 
 1737:     9FF7                        loc_9FF7:
 1738:     9FF7 12 61 01 7D                    brset   <StartupSwitchMirror1 1 loc_A078
 1739:     9FFB D6 D7                          ldab    <b5d_IPL2
 1740:     9FFD C5 80                          bitb    #$80
 1741:     9FFF 27 06                          beq     loc_A007
 1742:     A001 85 20                          bita    #$20
 1743:     A003 26 73                          bne     loc_A078
 1744:     A005 20 ED                          bra     loc_9FF4
 1745:                                 
 1746:     A007                        loc_A007:
 1747:     A007 B6 8868                        ldaa    byte_8868
 1748:     A00A 12 2A 40 03                    brset   <BitFlags2a $40 loc_A011
 1749:     A00E BB 8869                        adda    byte_8869
 1750:                                 
 1751:     A011                        loc_A011:
 1752:     A011 91 5F                          cmpa    <VehicleSpeedx8_Scaled
 1753:     A013 24 60                          bcc     loc_A075
 1754:     A015 14 2A 40                       bset    <BitFlags2a $40
 1755:     A018 96 54                          ldaa    <CoolantTemp
 1756:     A01A B1 8865                        cmpa    byte_8865
 1757:     A01D 25 59                          bcs     loc_A078
 1758:     A01F B6 886B                        ldaa    byte_886B
 1759:     A022 12 CD 10 02                    brset   <PIA1_Buffer_t3 $10 loc_A028
 1760:     A026 8B 04                          adda    #$04
 1761:                                 
 1762:     A028                        loc_A028:
 1763:     A028 91 63                          cmpa    <ScaledDistPWForCruiseControl
 1764:     A02A 25 4C                          bcs     loc_A078
 1765:     A02C 13 25 10 48                    brclr   <BitFlags68_t3 $10 loc_A078
 1766:     A030 96 46                          ldaa    <EngineRpm_HB
 1767:     A032 B1 8867                        cmpa    byte_8867
 1768:     A035 25 14                          bcs     loc_A04B
 1769:     A037 13 D0 FF 10                    brclr   <Ram_D0 $FF loc_A04B
 1770:     A03B 96 45                          ldaa    <Counter_MainLoop
 1771:     A03D 85 07                          bita    #$07
 1772:     A03F 26 05                          bne     loc_A046
 1773:     A041 7A 00D0                        dec     Ram_D0
 1774:     A044 27 05                          beq     loc_A04B
 1775:                                 
 1776:     A046                        loc_A046:
 1777:     A046 CE 889A                        ldx     #unk_889A
 1778:     A049 20 06                          bra     loc_A051
 1779:                                 
 1780:     A04B                        loc_A04B:
 1781:     A04B CE 8883                        ldx     #unk_8883
 1782:     A04E 7F 00D0                        clr     Ram_D0
 1783:                                 
 1784:     A051                        loc_A051:
 1785:     A051 96 46                          ldaa    <EngineRpm_HB
 1786:     A053 BD E655                        jsr     Lookup4ByteTable
 1787:     A056 96 5C                          ldaa    <TpsVolts_Minus_LowestSessionTpsVolts
 1788:     A058 11                             cba
 1789:     A059 25 2E                          bcs     loc_A089
 1790:     A05B CE 886C                        ldx     #unk_886C
 1791:     A05E 96 46                          ldaa    <EngineRpm_HB
 1792:     A060 BD E655                        jsr     Lookup4ByteTable
 1793:     A063 96 5C                          ldaa    <TpsVolts_Minus_LowestSessionTpsVolts
 1794:     A065 11                             cba
 1795:     A066 24 06                          bcc     loc_A06E
 1796:     A068 13 CD 10 2F                    brclr   <PIA1_Buffer_t3 $10 loc_A09B
 1797:     A06C 20 0D                          bra     loc_A07B
 1798:                                 
 1799:     A06E                        loc_A06E:
 1800:     A06E B6 8866                        ldaa    byte_8866
 1801:     A071 97 D0                          staa    <Ram_D0
 1802:     A073 20 06                          bra     loc_A07B
 1803:                                 
 1804:     A075                        loc_A075:
 1805:     A075 15 2A 40                       bclr    <BitFlags2a $40
 1806:                                 
 1807:     A078                        loc_A078:
 1808:     A078 7F 00D0                        clr     Ram_D0
 1809:                                 
 1810:     A07B                        loc_A07B:
 1811:     A07B B6 886A                        ldaa    byte_886A
 1812:     A07E 97 D1                          staa    <Ram_D1
 1813:                                 
 1814:     A080                        loc_A080:
 1815:     A080 14 CD 10                       bset    <PIA1_Buffer_t3 $10
 1816:     A083 7F 00D3                        clr     Ram_D3
 1817:                                 
 1818:     A086                        loc_A086:
 1819:     A086 7E A178                        jmp     loc_A178
 1820:                                 
 1821:                                 
 1822:     A089                        loc_A089:
 1823:     A089 96 D1                          ldaa    <Ram_D1
 1824:     A08B 27 0B                          beq     loc_A098
 1825:     A08D D6 45                          ldab    <Counter_MainLoop
 1826:     A08F C5 07                          bitb    #$07
 1827:     A091 26 ED                          bne     loc_A080
 1828:     A093 4A                             deca
 1829:     A094 97 D1                          staa    <Ram_D1
 1830:     A096 26 E8                          bne     loc_A080
 1831:                                 
 1832:     A098                        loc_A098:
 1833:     A098 15 CD 10                       bclr    <PIA1_Buffer_t3 $10
 1834:                                 
 1835:     A09B                        loc_A09B:
 1836:     A09B B6 8016                        ldaa    byte_8016
 1837:     A09E 85 40                          bita    #$40
 1838:     A0A0 26 03                          bne     loc_A0A5
 1839:     A0A2 7E A136                        jmp     locret_A136
 1840:                                 
 1841:     A0A5                        loc_A0A5:
 1842:     A0A5 96 45                          ldaa    <Counter_MainLoop
 1843:     A0A7 85 01                          bita    #$01
 1844:     A0A9 26 0A                          bne     loc_A0B5
 1845:     A0AB 96 D3                          ldaa    <Ram_D3
 1846:     A0AD B1 88BA                        cmpa    byte_88BA
 1847:     A0B0 27 03                          beq     loc_A0B5
 1848:     A0B2 4C                             inca
 1849:     A0B3 97 D3                          staa    <Ram_D3
 1850:                                 
 1851:     A0B5                        loc_A0B5:
 1852:     A0B5 96 D2                          ldaa    <PTU_MapTemp
 1853:     A0B7 B7 649E                        staa    Temp5
 1854:     A0BA 96 45                          ldaa    <Counter_MainLoop
 1855:     A0BC B4 88B2                        anda    byte_88B2
 1856:     A0BF 26 04                          bne     loc_A0C5
 1857:     A0C1 96 50                          ldaa    <MapValue
 1858:     A0C3 97 D2                          staa    <PTU_MapTemp
 1859:                                 
 1860:     A0C5                        loc_A0C5:
 1861:     A0C5 96 5C                          ldaa    <TpsVolts_Minus_LowestSessionTpsVolts
 1862:     A0C7 27 BD                          beq     loc_A086
 1863:     A0C9 B7 649C                        staa    Temp3
 1864:     A0CC 96 54                          ldaa    <CoolantTemp
 1865:                                 
 1866:     A0CE                        loc_A0CE:
 1867:     A0CE B1 88B1                        cmpa    byte_88B1
 1868:     A0D1 25 B3                          bcs     loc_A086
 1869:     A0D3 13 25 10 AF                    brclr   <BitFlags68_t3 $10 loc_A086
 1870:     A0D7 13 22 80 AB                    brclr   <BitFlags66_t3 $80 loc_A086
 1871:     A0DB 12 61 20 A7                    brset   <StartupSwitchMirror1 $20 loc_A086
 1872:     A0DF 96 5F                          ldaa    <VehicleSpeedx8_Scaled
 1873:     A0E1 B1 88B3                        cmpa    byte_88B3
 1874:     A0E4 24 0F                          bcc     loc_A0F5
 1875:     A0E6 96 50                          ldaa    <MapValue
 1876:     A0E8 B0 649E                        suba    Temp5
 1877:     A0EB 25 08                          bcs     loc_A0F5
 1878:     A0ED B1 88B4                        cmpa    byte_88B4
 1879:     A0F0 25 32                          bcs     loc_A124
 1880:     A0F2 7E A178                        jmp     loc_A178
 1881:                                 
 1882:     A0F5                        loc_A0F5:
 1883:     A0F5 B6 649E                        ldaa    Temp5
 1884:     A0F8 90 50                          suba    <MapValue
 1885:     A0FA 25 28                          bcs     loc_A124
 1886:     A0FC B7 649E                        staa    Temp5
 1887:     A0FF CE 88B6                        ldx     #unk_88B6
 1888:     A102 12 2A 20 15                    brset   <BitFlags2a $20 loc_A11B
 1889:     A106 12 2A 10 10                    brset   <BitFlags2a $10 loc_A11A
 1890:     A10A B6 649C                        ldaa    Temp3
 1891:     A10D B1 88B5                        cmpa    byte_88B5
 1892:     A110 25 05                          bcs     loc_A117
 1893:     A112 14 2A 20                       bset    <BitFlags2a $20
 1894:     A115 20 04                          bra     loc_A11B
 1895:                                 
 1896:     A117                        loc_A117:
 1897:     A117 14 2A 10                       bset    <BitFlags2a $10
 1898:                                 
 1899:     A11A                        loc_A11A:
 1900:     A11A 08                             inx
 1901:                                 
 1902:     A11B                        loc_A11B:
 1903:     A11B F6 649E                        ldab    Temp5
 1904:     A11E E1 00                          cmpb    $00,x
 1905:     A120 24 56                          bcc     loc_A178
 1906:     A122 20 03                          bra     loc_A127
 1907:                                 
 1908:     A124                        loc_A124:
 1909:     A124 15 2A 30                       bclr    <BitFlags2a $30
 1910:                                 
 1911:     A127                        loc_A127:
 1912:     A127 96 D4                          ldaa    <Counter_PartThrottleUnlock
 1913:     A129 81 01                          cmpa    #$01
 1914:     A12B 23 0A                          bls     loc_A137
 1915:     A12D D6 45                          ldab    <Counter_MainLoop
 1916:     A12F C5 07                          bitb    #$07
 1917:     A131 26 03                          bne     locret_A136
 1918:     A133 4A                             deca
 1919:     A134 97 D4                          staa    <Counter_PartThrottleUnlock
 1920:                                 
 1921:     A136                        locret_A136:
 1922:     A136 39                             rts
 1923:                                 
 1924:     A137                        loc_A137:
 1925:     A137 CE 88D9                        ldx     #unk_88D9
 1926:     A13A 13 CD 20 03                    brclr   <PIA1_Buffer_t3 $20 loc_A141
 1927:     A13E CE 88BB                        ldx     #unk_88BB
 1928:                                 
 1929:     A141                        loc_A141:
 1930:     A141 FF 649D                        stx     Temp4
 1931:     A144 8D 3C                          bsr     sub_A182
 1932:     A146 24 30                          bcc     loc_A178
 1933:     A148 FE 649D                        ldx     Temp4
 1934:     A14B C6 0F                          ldab    #$0F
 1935:     A14D 3A                             abx
 1936:     A14E 8D 32                          bsr     sub_A182
 1937:     A150 25 26                          bcs     loc_A178
 1938:     A152 96 D4                          ldaa    <Counter_PartThrottleUnlock
 1939:     A154 27 12                          beq     loc_A168
 1940:     A156 B6 8016                        ldaa    byte_8016
 1941:     A159 85 80                          bita    #$80
 1942:     A15B 27 07                          beq     loc_A164
 1943:     A15D 96 D3                          ldaa    <Ram_D3
 1944:     A15F B1 88BA                        cmpa    byte_88BA
 1945:     A162 25 D2                          bcs     locret_A136
 1946:                                 
 1947:     A164                        loc_A164:
 1948:     A164 15 CD 20                       bclr    <PIA1_Buffer_t3 $20
 1949:     A167 39                             rts
 1950:                                 
 1951:     A168                        loc_A168:
 1952:     A168 96 5F                          ldaa    <VehicleSpeedx8_Scaled
 1953:     A16A F6 88B8                        ldab    byte_88B8
 1954:     A16D B1 88B3                        cmpa    byte_88B3
 1955:     A170 24 03                          bcc     loc_A175
 1956:     A172 F6 88B9                        ldab    byte_88B9
 1957:                                 
 1958:     A175                        loc_A175:
 1959:     A175 D7 D4                          stab    <Counter_PartThrottleUnlock
 1960:     A177 39                             rts
 1961:                                 
 1962:     A178                        loc_A178:
 1963:     A178 7F 00D4                        clr     Counter_PartThrottleUnlock
 1964:     A17B 14 CD 20                       bset    <PIA1_Buffer_t3 $20
 1965:     A17E 15 2A 30                       bclr    <BitFlags2a $30
 1966:     A181 39                             rts
 1967:                                 
 1968:     A182                        sub_A182:
 1969:     A182 96 5F                          ldaa    <VehicleSpeedx8_Scaled
 1970:     A184 BD E655                        jsr     Lookup4ByteTable
 1971:     A187 B6 649C                        ldaa    Temp3
 1972:     A18A 11                             cba
 1973:     A18B 39                             rts
 1974:                                 
 1975:     A18C                        sub_A18C:
 1976:     A18C B6 8016                        ldaa    byte_8016
 1977:     A18F 85 20                          bita    #$20
 1978:     A191 27 0B                          beq     locret_A19E
 1979:     A193 B6 8015                        ldaa    byte_8015
 1980:     A196 85 01                          bita    #$01
 1981:     A198 27 04                          beq     locret_A19E
 1982:     A19A 13 45 02 01                    brclr   <Counter_MainLoop $02 loc_A19F
 1983:                                 
 1984:     A19E                        locret_A19E:
 1985:     A19E 39                             rts
 1986:                                 
 1987:     A19F                        loc_A19F:
 1988:     A19F 96 5F                          ldaa    <VehicleSpeedx8_Scaled
 1989:     A1A1 81 82                          cmpa    #$82
 1990:     A1A3 24 2B                          bcc     loc_A1D0
 1991:     A1A5 B1 88F7                        cmpa    byte_88F7
 1992:     A1A8 25 26                          bcs     loc_A1D0
 1993:     A1AA 12 2A 04 22                    brset   <BitFlags2a $04 loc_A1D0
 1994:     A1AE 96 63                          ldaa    <ScaledDistPWForCruiseControl
 1995:     A1B0 B1 88F8                        cmpa    byte_88F8
 1996:     A1B3 24 1B                          bcc     loc_A1D0
 1997:     A1B5 B1 88F9                        cmpa    byte_88F9
 1998:     A1B8 25 16                          bcs     loc_A1D0
 1999:     A1BA D6 45                          ldab    <Counter_MainLoop
 2000:     A1BC 26 15                          bne     loc_A1D3
 2001:     A1BE D6 D0                          ldab    <Ram_D0
 2002:     A1C0 5C                             incb
 2003:     A1C1 27 07                          beq     loc_A1CA
 2004:     A1C3 D7 D0                          stab    <Ram_D0
 2005:     A1C5 F1 88FA                        cmpb    byte_88FA
 2006:     A1C8 25 09                          bcs     loc_A1D3
 2007:                                 
 2008:     A1CA                        loc_A1CA:
 2009:     A1CA 91 0C                          cmpa    <Ram_0C
 2010:     A1CC 24 02                          bcc     loc_A1D0
 2011:     A1CE 97 0C                          staa    <Ram_0C
 2012:                                 
 2013:     A1D0                        loc_A1D0:
 2014:     A1D0 7F 00D0                        clr     Ram_D0
 2015:                                 
 2016:     A1D3                        loc_A1D3:
 2017:     A1D3 96 46                          ldaa    <EngineRpm_HB
 2018:     A1D5 81 0F                          cmpa    #$0F
 2019:     A1D7 25 29                          bcs     loc_A202
 2020:     A1D9 D6 63                          ldab    <ScaledDistPWForCruiseControl
 2021:     A1DB D0 D2                          subb    <PTU_MapTemp
 2022:     A1DD 24 01                          bcc     loc_A1E0
 2023:     A1DF 50                             negb
 2024:                                 
 2025:     A1E0                        loc_A1E0:
 2026:     A1E0 F1 88FB                        cmpb    byte_88FB
 2027:     A1E3 25 08                          bcs     loc_A1ED
 2028:     A1E5 14 2A 04                       bset    <BitFlags2a $04
 2029:     A1E8 7F 00D1                        clr     Ram_D1
 2030:     A1EB 20 24                          bra     loc_A211
 2031:                                 
 2032:     A1ED                        loc_A1ED:
 2033:     A1ED 13 2A 04 14                    brclr   <BitFlags2a $04 loc_A205
 2034:     A1F1 F1 88FC                        cmpb    byte_88FC
 2035:     A1F4 24 0F                          bcc     loc_A205
 2036:     A1F6 96 D1                          ldaa    <Ram_D1
 2037:     A1F8 4C                             inca
 2038:     A1F9 27 07                          beq     loc_A202
 2039:     A1FB 97 D1                          staa    <Ram_D1
 2040:     A1FD B1 88FD                        cmpa    byte_88FD
 2041:     A200 25 06                          bcs     loc_A208
 2042:                                 
 2043:     A202                        loc_A202:
 2044:     A202 15 2A 04                       bclr    <BitFlags2a $04
 2045:                                 
 2046:     A205                        loc_A205:
 2047:     A205 7F 00D1                        clr     Ram_D1
 2048:                                 
 2049:     A208                        loc_A208:
 2050:     A208 96 45                          ldaa    <Counter_MainLoop
 2051:     A20A 44                             lsra
 2052:     A20B 44                             lsra
 2053:     A20C B5 88FE                        bita    byte_88FE
 2054:     A20F 26 04                          bne     loc_A215
 2055:                                 
 2056:     A211                        loc_A211:
 2057:     A211 96 63                          ldaa    <ScaledDistPWForCruiseControl
 2058:     A213 97 D2                          staa    <PTU_MapTemp
 2059:                                 
 2060:     A215                        loc_A215:
 2061:     A215 12 20 40 06                    brset   <IPL1 $40 loc_A21F
 2062:     A219 12 26 04 02                    brset   <BitFlags6a_t3 $04 loc_A21F
 2063:     A21D 20 5D                          bra     loc_A27C
 2064:                                 
 2065:     A21F                        loc_A21F:
 2066:     A21F 13 22 80 4D                    brclr   <BitFlags66_t3 $80 loc_A270
 2067:     A223 13 22 40 07                    brclr   <BitFlags66_t3 $40 loc_A22E
 2068:     A227 96 46                          ldaa    <EngineRpm_HB
 2069:     A229 B1 88FF                        cmpa    byte_88FF
 2070:     A22C 24 42                          bcc     loc_A270
 2071:                                 
 2072:     A22E                        loc_A22E:
 2073:     A22E 96 63                          ldaa    <ScaledDistPWForCruiseControl
 2074:     A230 90 0C                          suba    <Ram_0C
 2075:     A232 25 3C                          bcs     loc_A270
 2076:     A234 B1 8900                        cmpa    byte_8900
 2077:     A237 25 37                          bcs     loc_A270
 2078:     A239 CE 8901                        ldx     #unk_8901
 2079:     A23C 96 50                          ldaa    <MapValue
 2080:     A23E BD E68D                        jsr     sub_E68D
 2081:     A241 96 46                          ldaa    <EngineRpm_HB
 2082:     A243 11                             cba
 2083:     A244 24 10                          bcc     loc_A256
 2084:     A246 12 CD 20 26                    brset   <PIA1_Buffer_t3 $20 loc_A270
 2085:     A24A F0 890A                        subb    byte_890A
 2086:     A24D 24 02                          bcc     loc_A251
 2087:     A24F C6 00                          ldab    #$00
 2088:                                 
 2089:     A251                        loc_A251:
 2090:     A251 11                             cba
 2091:     A252 24 0E                          bcc     loc_A262
 2092:     A254 20 1A                          bra     loc_A270
 2093:                                 
 2094:     A256                        loc_A256:
 2095:     A256 96 D3                          ldaa    <Ram_D3
 2096:     A258 4C                             inca
 2097:     A259 27 07                          beq     loc_A262
 2098:     A25B 97 D3                          staa    <Ram_D3
 2099:     A25D B1 890B                        cmpa    byte_890B
 2100:     A260 25 14                          bcs     loc_A276
 2101:                                 
 2102:     A262                        loc_A262:
 2103:     A262 96 D4                          ldaa    <Counter_PartThrottleUnlock
 2104:     A264 4C                             inca
 2105:     A265 27 0F                          beq     loc_A276
 2106:     A267 97 D4                          staa    <Counter_PartThrottleUnlock
 2107:     A269 B1 890C                        cmpa    byte_890C
 2108:     A26C 22 08                          bhi     loc_A276
 2109:     A26E 20 0C                          bra     loc_A27C
 2110:                                 
 2111:     A270                        loc_A270:
 2112:     A270 7F 00D3                        clr     Ram_D3
 2113:     A273 7F 00D4                        clr     Counter_PartThrottleUnlock
 2114:                                 
 2115:     A276                        loc_A276:
 2116:     A276 D6 CD                          ldab    <PIA1_Buffer_t3
 2117:     A278 CA 20                          orab    #$20
 2118:     A27A 20 04                          bra     loc_A280
 2119:                                 
 2120:     A27C                        loc_A27C:
 2121:     A27C D6 CD                          ldab    <PIA1_Buffer_t3
 2122:     A27E C4 DF                          andb    #$DF
 2123:                                 
 2124:     A280                        loc_A280:
 2125:     A280 D7 CD                          stab    <PIA1_Buffer_t3
 2126:     A282 39                             rts
 2127:                                 
 2128:     A283                        sub_A283:
 2129:     A283 B6 8016                        ldaa    byte_8016
 2130:     A286 85 08                          bita    #$08
 2131:     A288 27 1D                          beq     locret_A2A7
 2132:     A28A 96 54                          ldaa    <CoolantTemp
 2133:     A28C B1 8858                        cmpa    byte_8858
 2134:     A28F 24 10                          bcc     loc_A2A1
 2135:     A291 B1 8857                        cmpa    byte_8857
 2136:     A294 25 04                          bcs     loc_A29A
 2137:     A296 12 2A 80 07                    brset   <BitFlags2a $80 loc_A2A1
 2138:                                 
 2139:     A29A                        loc_A29A:
 2140:     A29A 15 2A 80                       bclr    <BitFlags2a $80
 2141:     A29D 15 CE 20                       bclr    <PIA2_Buffer_t3 $20
 2142:     A2A0 39                             rts
 2143:                                 
 2144:     A2A1                        loc_A2A1:
 2145:     A2A1 14 2A 80                       bset    <BitFlags2a $80
 2146:     A2A4 14 CE 20                       bset    <PIA2_Buffer_t3 $20
 2147:                                 
 2148:     A2A7                        locret_A2A7:
 2149:     A2A7 39                             rts
 2150:                                 
 2151:     A2A8                        sub_A2A8:
 2152:     A2A8 B6 8016                        ldaa    byte_8016
 2153:     A2AB 85 10                          bita    #$10
 2154:     A2AD 27 0B                          beq     locret_A2BA
 2155:     A2AF 12 29 40 04                    brset   <BitFlags29 $40 loc_A2B7
 2156:     A2B3 15 CE 04                       bclr    <PIA2_Buffer_t3 $04
 2157:     A2B6 39                             rts
 2158:                                 
 2159:     A2B7                        loc_A2B7:
 2160:     A2B7 14 CE 04                       bset    <PIA2_Buffer_t3 $04
 2161:                                 
 2162:     A2BA                        locret_A2BA:
 2163:     A2BA 39                             rts
 2164:                                 
 2165:     A2BB                        sub_A2BB:
 2166:     A2BB B6 8015                        ldaa    byte_8015
 2167:     A2BE 85 08                          bita    #$08
 2168:     A2C0 26 64                          bne     locret_A326
 2169:     A2C2 B6 8016                        ldaa    byte_8016
 2170:     A2C5 85 04                          bita    #$04
 2171:     A2C7 27 5D                          beq     locret_A326
 2172:     A2C9 13 20 40 49                    brclr   <IPL1 $40 loc_A316
 2173:     A2CD 96 45                          ldaa    <Counter_MainLoop
 2174:     A2CF 84 7F                          anda    #$7F
 2175:     A2D1 26 53                          bne     locret_A326
 2176:     A2D3 12 D5 02 32                    brset   <b5C_IPL1_t3 $02 loc_A309
 2177:     A2D7 96 27                          ldaa    <BitFlags27
 2178:     A2D9 85 C0                          bita    #$C0
 2179:     A2DB 27 04                          beq     loc_A2E1
 2180:     A2DD 13 CE 01 28                    brclr   <PIA2_Buffer_t3 $01 loc_A309
 2181:                                 
 2182:     A2E1                        loc_A2E1:
 2183:     A2E1 CE 885B                        ldx     #unk_885B
 2184:     A2E4 96 5F                          ldaa    <VehicleSpeedx8_Scaled
 2185:     A2E6 B1 8859                        cmpa    byte_8859
 2186:     A2E9 24 10                          bcc     loc_A2FB
 2187:     A2EB B1 885A                        cmpa    byte_885A
 2188:     A2EE 25 04                          bcs     loc_A2F4
 2189:     A2F0 12 2A 08 07                    brset   <BitFlags2a $08 loc_A2FB
 2190:                                 
 2191:     A2F4                        loc_A2F4:
 2192:     A2F4 08                             inx
 2193:     A2F5 08                             inx
 2194:     A2F6 15 2A 08                       bclr    <BitFlags2a $08
 2195:     A2F9 20 03                          bra     loc_A2FE
 2196:                                 
 2197:     A2FB                        loc_A2FB:
 2198:     A2FB 14 2A 08                       bset    <BitFlags2a $08
 2199:                                 
 2200:     A2FE                        loc_A2FE:
 2201:     A2FE 12 CD 80 01                    brset   <PIA1_Buffer_t3 $80 loc_A303
 2202:     A302 08                             inx
 2203:                                 
 2204:     A303                        loc_A303:
 2205:     A303 E6 00                          ldab    $00,x
 2206:     A305 D1 54                          cmpb    <CoolantTemp
 2207:     A307 24 0D                          bcc     loc_A316
 2208:                                 
 2209:     A309                        loc_A309:
 2210:     A309 13 CD 80 12                    brclr   <PIA1_Buffer_t3 $80 loc_A31F
 2211:     A30D 86 07                          ldaa    #$07
 2212:     A30F 97 FF                          staa    <Timer_MinimumFanRun
 2213:     A311 15 CD 80                       bclr    <PIA1_Buffer_t3 $80
 2214:     A314 20 10                          bra     locret_A326
 2215:                                 
 2216:     A316                        loc_A316:
 2217:     A316 96 FF                          ldaa    <Timer_MinimumFanRun
 2218:     A318 26 05                          bne     loc_A31F
 2219:     A31A 14 CD 80                       bset    <PIA1_Buffer_t3 $80
 2220:     A31D 20 07                          bra     locret_A326
 2221:                                 
 2222:     A31F                        loc_A31F:
 2223:     A31F 96 FF                          ldaa    <Timer_MinimumFanRun
 2224:     A321 27 03                          beq     locret_A326
 2225:     A323 4A                             deca
 2226:     A324 97 FF                          staa    <Timer_MinimumFanRun
 2227:                                 
 2228:     A326                        locret_A326:
 2229:     A326 39                             rts
 2230:                                 
 2231:     A327                        sub_A327:
 2232:     A327 13 20 40 09                    brclr   <IPL1 $40 loc_A334
 2233:     A32B 96 68                          ldaa    <Timer_AisChanges
 2234:     A32D 4C                             inca
 2235:     A32E 27 07                          beq     loc_A337
 2236:     A330 97 68                          staa    <Timer_AisChanges
 2237:     A332 20 03                          bra     loc_A337
 2238:                                 
 2239:     A334                        loc_A334:
 2240:     A334 7F 0068                        clr     Timer_AisChanges
 2241:                                 
 2242:     A337                        loc_A337:
 2243:     A337 13 27 02 07                    brclr   <BitFlags27 $02 loc_A342
 2244:     A33B 12 61 01 03                    brset   <StartupSwitchMirror1 $01 loc_A342
 2245:     A33F 15 25 80                       bclr    <BitFlags68_t3 $80
 2246:                                 
 2247:     A342                        loc_A342:
 2248:     A342 12 25 80 09                    brset   <BitFlags68_t3 $80 loc_A34F
 2249:     A346 13 28 08 08                    brclr   <BitFlags6d_t3 $08 loc_A352
 2250:     A34A 86 30                          ldaa    #$30
 2251:     A34C 7E A3DF                        jmp     loc_A3DF
 2252:                                 
 2253:     A34F                        loc_A34F:
 2254:     A34F 7E A3E4                        jmp     loc_A3E4
 2255:                                 
 2256:     A352                        loc_A352:
 2257:     A352 CE 874B                        ldx     #unk_874B
 2258:     A355 12 25 10 5D                    brset   <BitFlags68_t3 $10 loc_A3B6
 2259:     A359 96 D8                          ldaa    <DRBPointer1
 2260:     A35B 81 19                          cmpa    #$19
 2261:     A35D 27 12                          beq     loc_A371
 2262:     A35F 13 28 01 1E                    brclr   <BitFlags6d_t3 $01 loc_A381
 2263:     A363 DC 6D                          ldd     <TargetIdleSpeedHB
 2264:     A365 83 0001                        subd    #$01
 2265:     A368 C5 3F                          bitb    #$3F
 2266:     A36A 26 76                          bne     loc_A3E2
 2267:     A36C 15 28 01                       bclr    <BitFlags6d_t3 $01
 2268:     A36F 20 71                          bra     loc_A3E2
 2269:                                 
 2270:     A371                        loc_A371:
 2271:     A371 12 DB 20 6F                    brset   <DRBSerialMode $20 loc_A3E4
 2272:     A375 7F 00D8                        clr     DRBPointer1
 2273:     A378 96 D9                          ldaa    <DRBPointer2
 2274:     A37A C6 FF                          ldab    #$FF
 2275:     A37C 14 28 01                       bset    <BitFlags6d_t3 $01
 2276:     A37F 20 5F                          bra     loc_A3E0
 2277:                                 
 2278:     A381                        loc_A381:
 2279:     A381 13 2D 04 0E                    brclr   <BitFlags2d $04 loc_A393
 2280:     A385 13 20 40 0A                    brclr   <IPL1 $40 loc_A393
 2281:     A389 96 44                          ldaa    <KeyOnOrEngineRunningTime
 2282:     A38B 81 08                          cmpa    #$08
 2283:     A38D 25 04                          bcs     loc_A393
 2284:     A38F 86 70                          ldaa    #$70
 2285:     A391 20 4C                          bra     loc_A3DF
 2286:                                 
 2287:     A393                        loc_A393:
 2288:     A393 B6 876A                        ldaa    byte_876A
 2289:     A396 12 2A 01 45                    brset   <BitFlags2a $01 loc_A3DF
 2290:     A39A 12 D5 02 41                    brset   <b5C_IPL1_t3 $02 loc_A3DF
 2291:     A39E 13 27 02 11                    brclr   <BitFlags27 $02 loc_A3B3
 2292:     A3A2 12 61 01 0D                    brset   <StartupSwitchMirror1 $01 loc_A3B3
 2293:     A3A6 96 5F                          ldaa    <VehicleSpeedx8_Scaled
 2294:     A3A8 B1 8841                        cmpa    byte_8841
 2295:     A3AB 24 06                          bcc     loc_A3B3
 2296:     A3AD B6 8840                        ldaa    byte_8840
 2297:     A3B0 7E A3DF                        jmp     loc_A3DF
 2298:                                 
 2299:     A3B3                        loc_A3B3:
 2300:     A3B3 CE 8738                        ldx     #unk_8738
 2301:                                 
 2302:     A3B6                        loc_A3B6:
 2303:     A3B6 96 54                          ldaa    <CoolantTemp
 2304:     A3B8 BD E655                        jsr     Lookup4ByteTable
 2305:     A3BB 12 44 FF 0F                    brset   <KeyOnOrEngineRunningTime $FF loc_A3CE
 2306:     A3BF 36                             psha
 2307:     A3C0 96 44                          ldaa    <KeyOnOrEngineRunningTime
 2308:     A3C2 CE 875E                        ldx     #unk_875E
 2309:     A3C5 BD E655                        jsr     lookup4ByteTable
 2310:     A3C8 33                             pulb
 2311:     A3C9 1B                             aba
 2312:     A3CA 24 02                          bcc     loc_A3CE
 2313:     A3CC 86 FF                          ldaa    #$FF
 2314:                                 
 2315:     A3CE                        loc_A3CE:
 2316:     A3CE D6 27                          ldab    <BitFlags27
 2317:     A3D0 C5 C0                          bitb    #$C0
 2318:     A3D2 27 0B                          beq     loc_A3DF
 2319:     A3D4 13 61 40 07                    brclr   <StartupSwitchMirror1 $40 loc_A3DF
 2320:     A3D8 F6 8769                        ldab    byte_8769
 2321:     A3DB 11                             cba
 2322:     A3DC 24 01                          bcc     loc_A3DF
 2323:     A3DE 17                             tba
 2324:                                 
 2325:     A3DF                        loc_A3DF:
 2326:     A3DF 5F                             clrb
 2327:                                 
 2328:     A3E0                        loc_A3E0:
 2329:     A3E0 04                             lsrd
 2330:     A3E1 04                             lsrd
 2331:                                 
 2332:     A3E2                        loc_A3E2:
 2333:     A3E2 DD 6D                          std     <TargetIdleSpeedHB
 2334:                                 
 2335:     A3E4                        loc_A3E4:
 2336:     A3E4 96 E0                          ldaa    <ATMOffset
 2337:     A3E6 81 07                          cmpa    #$07
 2338:     A3E8 27 44                          beq     locret_A42E
 2339:     A3EA 81 14                          cmpa    #$14
 2340:     A3EC 27 40                          beq     locret_A42E
 2341:     A3EE 12 07 20 04                    brset   <BitFlags36_t3 $20 loc_A3F6
 2342:     A3F2 12 20 40 28                    brset   <IPL1 $40 loc_A41E
 2343:                                 
 2344:     A3F6                        loc_A3F6:
 2345:     A3F6 96 69                          ldaa    <DesiredNewAisPosition
 2346:     A3F8 91 08                          cmpa    <CurrentAisPosition
 2347:     A3FA 26 07                          bne     loc_A403
 2348:     A3FC 12 07 40 03                    brset   <BitFlags36_t3 $40 loc_A403
 2349:     A400 15 07 20                       bclr    <BitFlags36_t3 $20
 2350:                                 
 2351:     A403                        loc_A403:
 2352:     A403 96 54                          ldaa    <CoolantTemp
 2353:     A405 CE 86C2                        ldx     #unk_86C2
 2354:     A408 BD E655                        jsr     lookup4ByteTable
 2355:     A40B 36                             psha
 2356:     A40C 96 0D                          ldaa    <BaroPressure
 2357:     A40E CE 86D5                        ldx     #unk_86D5
 2358:     A411 BD E655                        jsr     lookup4ByteTable
 2359:     A414 33                             pulb
 2360:     A415 1B                             aba
 2361:     A416 24 03                          bcc     loc_A41B
 2362:     A418 7E A59C                        jmp     loc_A59C
 2363:                                 
 2364:     A41B                        loc_A41B:
 2365:     A41B 7E A58E                        jmp     loc_A58E
 2366:                                 
 2367:     A41E                        loc_A41E:
 2368:     A41E 13 D5 88 11                    brclr   <b5C_IPL1_t3 $88 loc_A433
 2369:     A422 B6 8A9B                        ldaa    byte_8A9B
 2370:     A425 97 69                          staa    <DesiredNewAisPosition
 2371:     A427 13 25 40 04                    brclr   <BitFlags68_t3 $40 loc_A42F
 2372:     A42B 14 25 0C                       bset    <BitFlags68_t3 $0C
 2373:                                 
 2374:     A42E                        locret_A42E:
 2375:     A42E 39                             rts
 2376:                                 
 2377:     A42F                        loc_A42F:
 2378:     A42F 15 25 0C                       bclr    <BitFlags68_t3 $0C
 2379:     A432 39                             rts
 2380:                                 
 2381:     A433                        loc_A433:
 2382:     A433 BD A5D4                        jsr     sub_A5D4
 2383:     A436 09                             dex
 2384:     A437 26 01                          bne     loc_A43A
 2385:     A439 39                             rts
 2386:                                 
 2387:     A43A                        loc_A43A:
 2388:     A43A 13 25 02 32                    brclr   <BitFlags68_t3 $02 loc_A470
 2389:     A43E CE 8794                        ldx     #unk_8794
 2390:     A441 96 0D                          ldaa    <BaroPressure
 2391:     A443 13 61 01 03                    brclr   <StartupSwitchMirror1 $01 loc_A44A
 2392:     A447 CE 879E                        ldx     #unk_879E
 2393:                                 
 2394:     A44A                        loc_A44A:
 2395:     A44A BD E68D                        jsr     sub_E68D
 2396:     A44D 17                             tba
 2397:     A44E 13 61 01 0A                    brclr   <StartupSwitchMirror1 $01 loc_A45C
 2398:     A452 40                             nega
 2399:     A453 13 2D 20 15                    brclr   <BitFlags2d $20 loc_A46C
 2400:     A457 15 2D 20                       bclr    <BitFlags2d $20
 2401:     A45A 20 0A                          bra     loc_A466
 2402:                                 
 2403:     A45C                        loc_A45C:
 2404:     A45C D6 46                          ldab    <EngineRpm_HB
 2405:     A45E F1 879D                        cmpb    byte_879D
 2406:     A461 24 09                          bcc     loc_A46C
 2407:     A463 14 2D 20                       bset    <BitFlags2d $20
 2408:                                 
 2409:     A466                        loc_A466:
 2410:     A466 BD A5BA                        jsr     sub_A5BA
 2411:     A469 4F                             clra
 2412:     A46A 97 68                          staa    <Timer_AisChanges
 2413:                                 
 2414:     A46C                        loc_A46C:
 2415:                                 
 2416:     A46C 15 25 02                       bclr    <BitFlags68_t3 $02
 2417:     A46F 39                             rts
 2418:                                 
 2419:     A470                        loc_A470:
 2420:     A470 13 22 80 17                    brclr   <BitFlags66_t3 $80 loc_A48B
 2421:     A474 12 27 01 03                    brset   <BitFlags27 $01 loc_A47B
 2422:     A478 15 25 80                       bclr    <BitFlags68_t3 $80
 2423:                                 
 2424:     A47B                        loc_A47B:
 2425:     A47B 13 61 20 10                    brclr   <StartupSwitchMirror1 $20 loc_A48F
 2426:     A47F CE 86B7                        ldx     #unk_86B7
 2427:     A482 96 5C                          ldaa    <TpsVolts_Minus_LowestSessionTpsVolts
 2428:     A484 BD E655                        jsr     Lookup4ByteTable
 2429:     A487 91 46                          cmpa    <EngineRpm_HB
 2430:     A489 24 04                          bcc     loc_A48F
 2431:                                 
 2432:     A48B                        loc_A48B:
 2433:     A48B 13 22 20 03                    brclr   <BitFlags66_t3 $20 loc_A492
 2434:                                 
 2435:     A48F                        loc_A48F:
 2436:     A48F 7E A4FF                        jmp     loc_A4FF
 2437:                                 
 2438:     A492                        loc_A492:
 2439:     A492 12 22 04 98                    brset   <BitFlags66_t3 $04 locret_A42E
 2440:     A496 D6 6A                          ldab    <Timer_CountdownFromStartRunForAisFeedback
 2441:     A498 26 94                          bne     locret_A42E
 2442:     A49A 96 69                          ldaa    <DesiredNewAisPosition
 2443:     A49C 81 04                          cmpa    #$04
 2444:     A49E 25 03                          bcs     loc_A4A3
 2445:     A4A0 15 07 10                       bclr    <BitFlags36_t3 $10
 2446:                                 
 2447:     A4A3                        loc_A4A3:
 2448:     A4A3 13 27 02 04                    brclr   <BitFlags27 $02 loc_A4AB
 2449:     A4A7 13 61 01 1C                    brclr   <StartupSwitchMirror1 $01 loc_A4C7
 2450:                                 
 2451:     A4AB                        loc_A4AB:
 2452:     A4AB 13 25 80 18                    brclr   <BitFlags68_t3 $80 loc_A4C7
 2453:     A4AF CE 87AE                        ldx     #unk_87AE
 2454:     A4B2 13 61 10 03                    brclr   <StartupSwitchMirror1 $10 loc_A4B9
 2455:     A4B6 CE 87B9                        ldx     #unk_87B9
 2456:                                 
 2457:     A4B9                        loc_A4B9:
 2458:     A4B9 96 54                          ldaa    <CoolantTemp
 2459:     A4BB BD E655                        jsr     Lookup4ByteTable
 2460:     A4BE BD A5BA                        jsr     sub_A5BA
 2461:     A4C1 4F                             clra
 2462:     A4C2 97 68                          staa    <Timer_AisChanges
 2463:     A4C4 15 25 80                       bclr    <BitFlags68_t3 $80
 2464:                                 
 2465:     A4C7                        loc_A4C7:
 2466:     A4C7 F6 87A7                        ldab    byte_87A7
 2467:     A4CA D1 68                          cmpb    <Timer_AisChanges
 2468:     A4CC 24 30                          bcc     locret_A4FE
 2469:     A4CE CE 876B                        ldx     #unk_876B
 2470:     A4D1 DC 6D                          ldd     <TargetIdleSpeedHB
 2471:     A4D3 93 46                          subd    <EngineRpm_HB
 2472:     A4D5 24 07                          bcc     loc_A4DE
 2473:     A4D7 CE 877E                        ldx     #unk_877E
 2474:     A4DA DC 46                          ldd     <EngineRpm_HB
 2475:     A4DC 93 6D                          subd    <TargetIdleSpeedHB
 2476:                                 
 2477:     A4DE                        loc_A4DE:
 2478:     A4DE 04                             lsrd
 2479:     A4DF 04                             lsrd
 2480:     A4E0 12 27 01 04                    brset   <BitFlags27 $01 loc_A4E8
 2481:     A4E4 12 25 10 01                    brset   <BitFlags68_t3 $10 loc_A4E9
 2482:                                 
 2483:     A4E8                        loc_A4E8:
 2484:     A4E8 04                             lsrd
 2485:                                 
 2486:     A4E9                        loc_A4E9:
 2487:     A4E9 4D                             tsta
 2488:     A4EA 27 02                          beq     loc_A4EE
 2489:     A4EC C6 FF                          ldab    #$FF
 2490:                                 
 2491:     A4EE                        loc_A4EE:
 2492:     A4EE 17                             tba
 2493:     A4EF A1 01                          cmpa    $01,x
 2494:     A4F1 25 0B                          bcs     locret_A4FE
 2495:     A4F3 BD E655                        jsr     Lookup4ByteTable
 2496:     A4F6 27 06                          beq     locret_A4FE
 2497:     A4F8 BD A5BA                        jsr     sub_A5BA
 2498:     A4FB 4F                             clra
 2499:     A4FC 97 68                          staa    <Timer_AisChanges
 2500:                                 
 2501:     A4FE                        locret_A4FE:
 2502:     A4FE 39                             rts
 2503:                                 
 2504:     A4FF                        loc_A4FF:
 2505:     A4FF 96 54                          ldaa    <CoolantTemp
 2506:     A501 CE 86F5                        ldx     #unk_86F5
 2507:     A504 BD E655                        jsr     Lookup4ByteTable
 2508:     A507 B7 649E                        staa    Temp5
 2509:     A50A 96 44                          ldaa    <KeyOnOrEngineRunningTime
 2510:     A50C CE 8704                        ldx     #unk_8704
 2511:     A50F BD E655                        jsr     Lookup4ByteTable
 2512:     A512 BB 649E                        adda    Temp5
 2513:     A515 24 03                          bcc     loc_A51A
 2514:     A517 7E A59C                        jmp     loc_A59C
 2515:                                 
 2516:     A51A                        loc_A51A:
 2517:     A51A B7 649E                        staa    Temp5
 2518:     A51D 96 0D                          ldaa    <BaroPressure
 2519:     A51F CE 872D                        ldx     #unk_872D
 2520:     A522 BD E655                        jsr     Lookup4ByteTable
 2521:     A525 B6 649E                        ldaa    Temp5
 2522:     A528 3D                             mul
 2523:     A529 05                             lsld
 2524:     A52A 25 70                          bcs     loc_A59C
 2525:     A52C 05                             lsld
 2526:     A52D 25 6D                          bcs     loc_A59C
 2527:     A52F B7 649E                        staa    Temp5
 2528:     A532 CE 871E                        ldx     #unk_871E
 2529:     A535 96 46                          ldaa    <EngineRpm_HB
 2530:     A537 BD E655                        jsr     Lookup4ByteTable
 2531:     A53A B1 649E                        cmpa    Temp5
 2532:     A53D 25 03                          bcs     loc_A542
 2533:     A53F B7 649E                        staa    Temp5
 2534:                                 
 2535:     A542                        loc_A542:
 2536:     A542 96 5C                          ldaa    <TpsVolts_Minus_LowestSessionTpsVolts
 2537:     A544 CE 870F                        ldx     #unk_870F
 2538:     A547 BD E655                        jsr     Lookup4ByteTable
 2539:     A54A B1 649E                        cmpa    Temp5
 2540:     A54D 24 03                          bcc     loc_A552
 2541:     A54F B6 649E                        ldaa    Temp5
 2542:                                 
 2543:     A552                        loc_A552:
 2544:     A552 12 25 04 26                    brset   <BitFlags68_t3 $04 loc_A57C
 2545:     A556 F6 86E0                        ldab    byte_86E0
 2546:     A559 12 22 20 1C                    brset   <BitFlags66_t3 $20 loc_A579
 2547:     A55D 36                             psha
 2548:     A55E 96 54                          ldaa    <CoolantTemp
 2549:     A560 B1 86E1                        cmpa    byte_86E1
 2550:     A563 25 13                          bcs     loc_A578
 2551:     A565 CE 86E5                        ldx     #unk_86E5
 2552:     A568 96 5F                          ldaa    <VehicleSpeedx8_Scaled
 2553:     A56A BD E655                        jsr     Lookup4ByteTable
 2554:     A56D 13 25 08 07                    brclr   <BitFlags68_t3 $08 loc_A578
 2555:     A571 B6 86E3                        ldaa    byte_86E3
 2556:     A574 3D                             mul
 2557:     A575 89 00                          adca    #$00
 2558:     A577 16                             tab
 2559:                                 
 2560:     A578                        loc_A578:
 2561:     A578 32                             pula
 2562:                                 
 2563:     A579                        loc_A579:
 2564:     A579 1B                             aba
 2565:     A57A 25 20                          bcs     loc_A59C
 2566:                                 
 2567:     A57C                        loc_A57C:
 2568:     A57C 12 25 10 05                    brset   <BitFlags68_t3 $10 loc_A585
 2569:     A580 BB 86F4                        adda    byte_86F4
 2570:     A583 25 17                          bcs     loc_A59C
 2571:                                 
 2572:     A585                        loc_A585:
 2573:     A585 13 61 40 05                    brclr   <StartupSwitchMirror1 $40 loc_A58E
 2574:     A589 BB 87AD                        adda    byte_87AD
 2575:     A58C 25 0E                          bcs     loc_A59C
 2576:                                 
 2577:     A58E                        loc_A58E:
 2578:     A58E 12 07 10 05                    brset   <BitFlags36_t3 $10 loc_A597
 2579:     A592 BB 87AC                        adda    byte_87AC
 2580:     A595 25 05                          bcs     loc_A59C
 2581:                                 
 2582:     A597                        loc_A597:
 2583:     A597 B1 87A8                        cmpa    byte_87A8
 2584:     A59A 25 03                          bcs     loc_A59F
 2585:                                 
 2586:     A59C                        loc_A59C:
 2587:     A59C B6 87A8                        ldaa    byte_87A8
 2588:                                 
 2589:     A59F                        loc_A59F:
 2590:     A59F 12 22 20 11                    brset   <BitFlags66_t3 $20 loc_A5B4
 2591:     A5A3 91 69                          cmpa    <DesiredNewAisPosition
 2592:     A5A5 24 0A                          bcc     loc_A5B1
 2593:     A5A7 D6 45                          ldab    <Counter_MainLoop
 2594:     A5A9 F5 87AB                        bitb    byte_87AB
 2595:     A5AC 26 05                          bne     locret_A5B3
 2596:     A5AE 96 69                          ldaa    <DesiredNewAisPosition
 2597:     A5B0 4A                             deca
 2598:                                 
 2599:     A5B1                        loc_A5B1:
 2600:     A5B1 97 69                          staa    <DesiredNewAisPosition
 2601:                                 
 2602:     A5B3                        locret_A5B3:
 2603:     A5B3 39                             rts
 2604:                                 
 2605:     A5B4                        loc_A5B4:
 2606:     A5B4 15 22 20                       bclr    <BitFlags66_t3 $20
 2607:     A5B7 97 69                          staa    <DesiredNewAisPosition
 2608:     A5B9 39                             rts
 2609:                                 
 2610:     A5BA                        sub_A5BA:
 2611:     A5BA 08                             inx
 2612:     A5BB 4D                             tsta
 2613:     A5BC 2B 0E                          bmi     loc_A5CC
 2614:     A5BE 9B 69                          adda    <DesiredNewAisPosition
 2615:     A5C0 F6 87A8                        ldab    byte_87A8
 2616:     A5C3 25 03                          bcs     loc_A5C8
 2617:     A5C5 11                             cba
 2618:     A5C6 25 01                          bcs     loc_A5C9
 2619:                                 
 2620:     A5C8                        loc_A5C8:
 2621:     A5C8 17                             tba
 2622:                                 
 2623:     A5C9                        loc_A5C9:
 2624:     A5C9 97 69                          staa    <DesiredNewAisPosition
 2625:     A5CB 39                             rts
 2626:                                 
 2627:     A5CC                        loc_A5CC:
 2628:     A5CC 9B 69                          adda    <DesiredNewAisPosition
 2629:     A5CE 25 01                          bcs     loc_A5D1
 2630:     A5D0 4F                             clra
 2631:                                 
 2632:     A5D1                        loc_A5D1:
 2633:     A5D1 97 69                          staa    <DesiredNewAisPosition
 2634:     A5D3 39                             rts
 2635:                                 
 2636:     A5D4                        sub_A5D4:
 2637:     A5D4 CE 0000                        ldx     #Ram_00
 2638:     A5D7 D6 25                          ldab    <BitFlags68_t3
 2639:     A5D9 C4 04                          andb    #$04
 2640:     A5DB F7 649D                        stab    Temp4
 2641:     A5DE D6 25                          ldab    <BitFlags68_t3
 2642:     A5E0 C4 40                          andb    #$40
 2643:     A5E2 54                             lsrb
 2644:     A5E3 54                             lsrb
 2645:     A5E4 54                             lsrb
 2646:     A5E5 54                             lsrb
 2647:     A5E6 F8 649D                        eorb    Temp4
 2648:     A5E9 26 1D                          bne     loc_A608
 2649:     A5EB 12 25 04 6A                    brset   <BitFlags68_t3 $04 loc_A659
 2650:     A5EF 96 6C                          ldaa    <Timer_AisOrO2Sensor
 2651:     A5F1 27 11                          beq     loc_A604
 2652:     A5F3 5F                             clrb
 2653:     A5F4 D7 68                          stab    <Timer_AisChanges
 2654:     A5F6 4A                             deca
 2655:     A5F7 97 6C                          staa    <Timer_AisOrO2Sensor
 2656:     A5F9 26 5E                          bne     loc_A659
 2657:     A5FB 12 22 80 05                    brset   <BitFlags66_t3 $80 loc_A604
 2658:     A5FF B6 8792                        ldaa    byte_8792
 2659:     A602 8D B6                          bsr     sub_A5BA
 2660:                                 
 2661:     A604                        loc_A604:
 2662:     A604 15 25 08                       bclr    <BitFlags68_t3 $08
 2663:     A607 39                             rts
 2664:                                 
 2665:     A608                        loc_A608:
 2666:     A608 96 44                          ldaa    <KeyOnOrEngineRunningTime
 2667:     A60A B1 884C                        cmpa    byte_884C
 2668:     A60D 25 4A                          bcs     loc_A659
 2669:     A60F D8 25                          eorb    <BitFlags68_t3
 2670:     A611 D7 25                          stab    <BitFlags68_t3
 2671:     A613 C5 04                          bitb    #$04
 2672:     A615 26 1B                          bne     loc_A632
 2673:     A617 B6 86E2                        ldaa    byte_86E2
 2674:     A61A 97 6C                          staa    <Timer_AisOrO2Sensor
 2675:     A61C 12 22 80 09                    brset   <BitFlags66_t3 $80 loc_A629
 2676:     A620 B6 8791                        ldaa    byte_8791
 2677:     A623 BD A5BA                        jsr     sub_A5BA
 2678:     A626 14 2F 08                       bset    <BitFlags2f $08
 2679:                                 
 2680:     A629                        loc_A629:
 2681:     A629 96 6C                          ldaa    <Timer_AisOrO2Sensor
 2682:     A62B 27 29                          beq     loc_A656
 2683:     A62D 4A                             deca
 2684:     A62E 97 6C                          staa    <Timer_AisOrO2Sensor
 2685:     A630 20 24                          bra     loc_A656
 2686:                                 
 2687:     A632                        loc_A632:
 2688:     A632 12 22 80 08                    brset   <BitFlags66_t3 $80 loc_A63E
 2689:     A636 B6 8793                        ldaa    byte_8793
 2690:     A639 BD A5BA                        jsr     sub_A5BA
 2691:     A63C 20 15                          bra     loc_A653
 2692:                                 
 2693:     A63E                        loc_A63E:
 2694:     A63E CE 86E5                        ldx     #unk_86E5
 2695:     A641 96 5F                          ldaa    <VehicleSpeedx8_Scaled
 2696:     A643 BD E655                        jsr     Lookup4ByteTable
 2697:     A646 F6 86E4                        ldab    byte_86E4
 2698:     A649 3D                             mul
 2699:     A64A 16                             tab
 2700:     A64B 96 69                          ldaa    <DesiredNewAisPosition
 2701:     A64D 10                             sba
 2702:     A64E 24 01                          bcc     loc_A651
 2703:     A650 4F                             clra
 2704:                                 
 2705:     A651                        loc_A651:
 2706:     A651 97 69                          staa    <DesiredNewAisPosition
 2707:                                 
 2708:     A653                        loc_A653:
 2709:     A653 4F                             clra
 2710:     A654 97 6C                          staa    <Timer_AisOrO2Sensor
 2711:                                 
 2712:     A656                        loc_A656:
 2713:     A656 4F                             clra
 2714:     A657 97 68                          staa    <Timer_AisChanges
 2715:                                 
 2716:     A659                        loc_A659:
 2717:     A659 14 25 08                       bset    <BitFlags68_t3 $08
 2718:     A65C 39                             rts
 2719:                                 
 2720:     A65D                        sub_A65D:
 2721:     A65D 13 20 40 12                    brclr   <IPL1 $40 locret_A673
 2722:     A661 12 07 20 0E                    brset   <BitFlags36_t3 $20 locret_A673
 2723:     A665 12 22 80 0A                    brset   <BitFlags66_t3 $80 locret_A673
 2724:     A669 96 D5                          ldaa    <b5C_IPL1_t3
 2725:     A66B 85 88                          bita    #$88
 2726:     A66D 26 04                          bne     locret_A673
 2727:     A66F 96 35                          ldaa    <TimerOverflowsBetweenCamPulses
 2728:     A671 27 01                          beq     loc_A674
 2729:                                 
 2730:     A673                        locret_A673:
 2731:     A673 39                             rts
 2732:                                 
 2733:     A674                        loc_A674:
 2734:     A674 96 09                          ldaa    <Timer_DacalCountdown
 2735:     A676 44                             lsra
 2736:     A677 44                             lsra
 2737:     A678 13 61 40 12                    brclr   <StartupSwitchMirror1 $40 loc_A68E
 2738:     A67C 7D 883D                        tst     byte_883D
 2739:     A67F 2B 07                          bmi     loc_A688
 2740:     A681 BB 883D                        adda    byte_883D
 2741:     A684 25 43                          bcs     loc_A6C9
 2742:     A686 20 06                          bra     loc_A68E
 2743:                                 
 2744:     A688                        loc_A688:
 2745:     A688 BB 883D                        adda    byte_883D
 2746:     A68B 25 01                          bcs     loc_A68E
 2747:     A68D 4F                             clra
 2748:                                 
 2749:     A68E                        loc_A68E:
 2750:     A68E BB 883C                        adda    byte_883C
 2751:     A691 25 36                          bcs     loc_A6C9
 2752:     A693 36                             psha
 2753:     A694 CE 87C4                        ldx     #unk_87C4
 2754:     A697 96 0D                          ldaa    <BaroPressure
 2755:     A699 BD E655                        jsr     Lookup4ByteTable
 2756:     A69C 32                             pula
 2757:     A69D 50                             negb
 2758:     A69E 10                             sba
 2759:     A69F 24 01                          bcc     loc_A6A2
 2760:     A6A1 4F                             clra
 2761:                                 
 2762:     A6A2                        loc_A6A2:
 2763:     A6A2 13 22 04 25                    brclr   <BitFlags66_t3 $04 loc_A6CB
 2764:     A6A6 36                             psha
 2765:     A6A7 CE 87D7                        ldx     #unk_87D7
 2766:     A6AA 96 44                          ldaa    <KeyOnOrEngineRunningTime
 2767:     A6AC BD E655                        jsr     Lookup4ByteTable
 2768:     A6AF 32                             pula
 2769:     A6B0 1B                             aba
 2770:     A6B1 25 16                          bcs     loc_A6C9
 2771:     A6B3 36                             psha
 2772:     A6B4 CE 87E2                        ldx     #unk_87E2
 2773:     A6B7 96 54                          ldaa    <CoolantTemp
 2774:     A6B9 BD E655                        jsr     Lookup4ByteTable
 2775:     A6BC 33                             pulb
 2776:     A6BD 1B                             aba
 2777:     A6BE 25 09                          bcs     loc_A6C9
 2778:     A6C0 12 CE 01 07                    brset   <PIA2_Buffer_t3 $01 loc_A6CB
 2779:     A6C4 BB 883B                        adda    byte_883B
 2780:     A6C7 24 02                          bcc     loc_A6CB
 2781:                                 
 2782:     A6C9                        loc_A6C9:
 2783:     A6C9 86 FF                          ldaa    #$FF
 2784:                                 
 2785:     A6CB                        loc_A6CB:
 2786:                                 
 2787:     A6CB D6 36                          ldab    <DistributorFallingEdgePulsewidth_HB
 2788:     A6CD 58                             aslb
 2789:     A6CE 25 03                          bcs     loc_A6D3
 2790:     A6D0 58                             aslb
 2791:     A6D1 24 02                          bcc     loc_A6D5
 2792:                                 
 2793:     A6D3                        loc_A6D3:
 2794:     A6D3 C6 FF                          ldab    #$FF
 2795:                                 
 2796:     A6D5                        loc_A6D5:
 2797:     A6D5 3D                             mul
 2798:     A6D6 05                             lsld
 2799:     A6D7 25 2B                          bcs     loc_A704
 2800:     A6D9 B7 649E                        staa    Temp5
 2801:     A6DC CE 87F5                        ldx     #unk_87F5
 2802:     A6DF 96 46                          ldaa    <EngineRpm_HB
 2803:     A6E1 BD E655                        jsr     Lookup4ByteTable
 2804:     A6E4 36                             psha
 2805:     A6E5 CE 880F                        ldx     #unk_880F
 2806:     A6E8 96 54                          ldaa    <CoolantTemp
 2807:     A6EA BD E655                        jsr     Lookup4ByteTable
 2808:     A6ED 33                             pulb
 2809:     A6EE 3D                             mul
 2810:     A6EF B9 649E                        adca    Temp5
 2811:     A6F2 25 10                          bcs     loc_A704
 2812:     A6F4 B7 649E                        staa    Temp5
 2813:     A6F7 CE 8804                        ldx     #unk_8804
 2814:     A6FA 96 0D                          ldaa    <BaroPressure
 2815:     A6FC BD E655                        jsr     Lookup4ByteTable
 2816:     A6FF BB 649E                        adda    Temp5
 2817:     A702 24 02                          bcc     loc_A706
 2818:                                 
 2819:     A704                        loc_A704:
 2820:     A704 86 FF                          ldaa    #$FF
 2821:                                 
 2822:     A706                        loc_A706:
 2823:     A706 97 6B                          staa    <MAPOffsetForCylTrim
 2824:     A708 12 22 04 44                    brset   <BitFlags66_t3 $04 loc_A750
 2825:     A70C 12 27 01 04                    brset   <BitFlags27 $01 loc_A714
 2826:     A710 13 61 10 3A                    brclr   <StartupSwitchMirror1 $10 loc_A74E
 2827:                                 
 2828:     A714                        loc_A714:
 2829:     A714 D6 45                          ldab    <Counter_MainLoop
 2830:     A716 F5 883F                        bitb    byte_883F
 2831:     A719 26 33                          bne     loc_A74E
 2832:     A71B D6 44                          ldab    <KeyOnOrEngineRunningTime
 2833:     A71D F1 883E                        cmpb    byte_883E
 2834:     A720 25 2C                          bcs     loc_A74E
 2835:     A722 13 CE 01 28                    brclr   <PIA2_Buffer_t3 $01 loc_A74E
 2836:     A726 D6 6A                          ldab    <Timer_CountdownFromStartRunForAisFeedback
 2837:     A728 26 24                          bne     loc_A74E
 2838:     A72A D6 54                          ldab    <CoolantTemp
 2839:     A72C F1 8839                        cmpb    byte_8839
 2840:     A72F 25 1D                          bcs     loc_A74E
 2841:     A731 D6 6D                          ldab    <TargetIdleSpeedHB
 2842:     A733 D0 46                          subb    <EngineRpm_HB
 2843:     A735 24 01                          bcc     loc_A738
 2844:     A737 50                             negb
 2845:                                 
 2846:     A738                        loc_A738:
 2847:     A738 F1 883A                        cmpb    byte_883A
 2848:     A73B 22 11                          bhi     loc_A74E
 2849:     A73D D6 09                          ldab    <Timer_DacalCountdown
 2850:     A73F 91 50                          cmpa    <MapValue
 2851:     A741 22 03                          bhi     loc_A746
 2852:     A743 5C                             incb
 2853:     A744 26 04                          bne     loc_A74A
 2854:                                 
 2855:     A746                        loc_A746:
 2856:     A746 5D                             tstb
 2857:     A747 27 09                          beq     loc_A752
 2858:     A749 5A                             decb
 2859:                                 
 2860:     A74A                        loc_A74A:
 2861:     A74A D7 09                          stab    <Timer_DacalCountdown
 2862:     A74C 20 04                          bra     loc_A752
 2863:                                 
 2864:     A74E                        loc_A74E:
 2865:     A74E 20 6B                          bra     locret_A7BB
 2866:                                 
 2867:     A750                        loc_A750:
 2868:     A750 20 6A                          bra     loc_A7BC
 2869:                                 
 2870:     A752                        loc_A752:
 2871:     A752 12 27 01 04                    brset   <BitFlags27 $01 loc_A75A
 2872:     A756 13 25 10 61                    brclr   <BitFlags68_t3 $10 locret_A7BB
 2873:                                 
 2874:     A75A                        loc_A75A:
 2875:     A75A 96 68                          ldaa    <Timer_AisChanges
 2876:     A75C B1 87A7                        cmpa    byte_87A7
 2877:     A75F 25 5A                          bcs     locret_A7BB
 2878:     A761 12 61 40 21                    brset   <StartupSwitchMirror1 $40 loc_A786
 2879:     A765 13 2F 20 0C                    brclr   <BitFlags2f $20 loc_A775
 2880:     A769 B6 87AC                        ldaa    byte_87AC
 2881:     A76C 97 08                          staa    <CurrentAisPosition
 2882:     A76E 97 69                          staa    <DesiredNewAisPosition
 2883:     A770 15 2F 20                       bclr    <BitFlags2f $20
 2884:     A773 20 46                          bra     locret_A7BB
 2885:                                 
 2886:     A775                        loc_A775:
 2887:     A775 96 08                          ldaa    <CurrentAisPosition
 2888:     A777 91 69                          cmpa    <DesiredNewAisPosition
 2889:     A779 26 40                          bne     locret_A7BB
 2890:     A77B 96 69                          ldaa    <DesiredNewAisPosition
 2891:     A77D B1 87AC                        cmpa    byte_87AC
 2892:     A780 27 39                          beq     locret_A7BB
 2893:     A782 22 32                          bhi     loc_A7B6
 2894:     A784 20 2E                          bra     loc_A7B4
 2895:                                 
 2896:     A786                        loc_A786:
 2897:     A786 13 2F 20 13                    brclr   <BitFlags2f $20 loc_A79D
 2898:     A78A B6 87AC                        ldaa    byte_87AC
 2899:     A78D BB 87AD                        adda    byte_87AD
 2900:     A790 24 02                          bcc     loc_A794
 2901:     A792 86 FF                          ldaa    #$FF
 2902:                                 
 2903:     A794                        loc_A794:
 2904:     A794 97 08                          staa    <CurrentAisPosition
 2905:     A796 97 69                          staa    <DesiredNewAisPosition
 2906:     A798 15 2F 20                       bclr    <BitFlags2f $20
 2907:     A79B 20 1E                          bra     locret_A7BB
 2908:                                 
 2909:     A79D                        loc_A79D:
 2910:     A79D 96 08                          ldaa    <CurrentAisPosition
 2911:     A79F 91 69                          cmpa    <DesiredNewAisPosition
 2912:     A7A1 26 18                          bne     locret_A7BB
 2913:     A7A3 96 69                          ldaa    <DesiredNewAisPosition
 2914:     A7A5 F6 87AC                        ldab    byte_87AC
 2915:     A7A8 FB 87AD                        addb    byte_87AD
 2916:     A7AB 24 02                          bcc     loc_A7AF
 2917:     A7AD C6 FF                          ldab    #$FF
 2918:                                 
 2919:     A7AF                        loc_A7AF:
 2920:     A7AF 11                             cba
 2921:     A7B0 27 09                          beq     locret_A7BB
 2922:     A7B2 22 02                          bhi     loc_A7B6
 2923:                                 
 2924:     A7B4                        loc_A7B4:
 2925:     A7B4 4C                             inca
 2926:     A7B5 4C                             inca
 2927:                                 
 2928:     A7B6                        loc_A7B6:
 2929:     A7B6 4A                             deca
 2930:     A7B7 97 69                          staa    <DesiredNewAisPosition
 2931:     A7B9 97 08                          staa    <CurrentAisPosition
 2932:                                 
 2933:     A7BB                        locret_A7BB:
 2934:     A7BB 39                             rts
 2935:                                 
 2936:     A7BC                        loc_A7BC:
 2937:     A7BC D6 6A                          ldab    <Timer_CountdownFromStartRunForAisFeedback
 2938:     A7BE 26 FB                          bne     locret_A7BB
 2939:     A7C0 D6 68                          ldab    <Timer_AisChanges
 2940:     A7C2 F1 8838                        cmpb    byte_8838
 2941:     A7C5 25 F4                          bcs     locret_A7BB
 2942:     A7C7 CE 881A                        ldx     #unk_881A
 2943:     A7CA 90 50                          suba    <MapValue
 2944:     A7CC 24 04                          bcc     loc_A7D2
 2945:     A7CE 40                             nega
 2946:     A7CF CE 8829                        ldx     #unk_8829
 2947:                                 
 2948:     A7D2                        loc_A7D2:
 2949:     A7D2 BD E655                        jsr     Lookup4ByteTable
 2950:     A7D5 BD A5BA                        jsr     sub_A5BA
 2951:     A7D8 97 69                          staa    <DesiredNewAisPosition
 2952:     A7DA 91 08                          cmpa    <CurrentAisPosition
 2953:     A7DC 27 DD                          beq     locret_A7BB
 2954:     A7DE 7F 0068                        clr     Timer_AisChanges
 2955:     A7E1 39                             rts
 2956:                                 
 2957:     A7E2                        sub_A7E2:
 2958:     A7E2 12 22 04 1B                    brset   <BitFlags66_t3 $04 locret_A801
 2959:     A7E6 96 D5                          ldaa    <b5C_IPL1_t3
 2960:     A7E8 85 88                          bita    #$88
 2961:     A7EA 26 15                          bne     locret_A801
 2962:     A7EC 96 69                          ldaa    <DesiredNewAisPosition
 2963:     A7EE 9A 08                          oraa    <CurrentAisPosition
 2964:     A7F0 26 0F                          bne     locret_A801
 2965:     A7F2 D6 45                          ldab    <Counter_MainLoop
 2966:     A7F4 C5 7F                          bitb    #$7F
 2967:     A7F6 26 09                          bne     locret_A801
 2968:     A7F8 8B 02                          adda    #$02
 2969:     A7FA 97 08                          staa    <CurrentAisPosition
 2970:     A7FC 97 69                          staa    <DesiredNewAisPosition
 2971:     A7FE 14 07 10                       bset    <BitFlags36_t3 $10
 2972:                                 
 2973:     A801                        locret_A801:
 2974:     A801 39                             rts
 2975:                                 
 2976:     A802                        sub_A802:
 2977:     A802 13 D5 40 08                    brclr   <b5C_IPL1_t3 $40 loc_A80E
 2978:     A806 15 33 0F                       bclr    <Counter_Cruise_1 $0F
 2979:     A809 14 33 0E                       bset    <Counter_Cruise_1 $0E
 2980:     A80C 20 6E                          bra     loc_A87C
 2981:                                 
 2982:     A80E                        loc_A80E:
 2983:     A80E 15 33 0F                       bclr    <Counter_Cruise_1 $0F
 2984:     A811 12 61 04 05                    brset   <StartupSwitchMirror1 $04 loc_A81A
 2985:     A815 5F                             clrb
 2986:     A816 D7 C4                          stab    <CruiseSpeedSetpoint
 2987:     A818 20 6B                          bra     loc_A885
 2988:                                 
 2989:     A81A                        loc_A81A:
 2990:     A81A 7C 0033                        inc     Counter_Cruise_1
 2991:     A81D DC 5D                          ldd     <VehicleSpeed_HB
 2992:     A81F 05                             lsld
 2993:     A820 05                             lsld
 2994:     A821 05                             lsld
 2995:     A822 58                             aslb
 2996:     A823 89 00                          adca    #$00
 2997:     A825 B7 6499                        staa    Temp0
 2998:     A828 B1 8918                        cmpa    byte_8918
 2999:     A82B 25 4F                          bcs     loc_A87C
 3000:     A82D 7C 0033                        inc     Counter_Cruise_1
 3001:     A830 96 46                          ldaa    <EngineRpm_HB
 3002:     A832 B1 8919                        cmpa    byte_8919
 3003:     A835 24 45                          bcc     loc_A87C
 3004:     A837 7C 0033                        inc     Counter_Cruise_1
 3005:     A83A 12 61 20 3E                    brset   <StartupSwitchMirror1 $20 loc_A87C
 3006:     A83E 7C 0033                        inc     Counter_Cruise_1
 3007:     A841 12 27 01 0C                    brset   <BitFlags27 $01 loc_A851
 3008:     A845 13 61 10 33                    brclr   <StartupSwitchMirror1 $10 loc_A87C
 3009:     A849 7C 0033                        inc     Counter_Cruise_1
 3010:     A84C 7C 0033                        inc     Counter_Cruise_1
 3011:     A84F 20 5D                          bra     loc_A8AE
 3012:                                 
 3013:     A851                        loc_A851:
 3014:     A851 7C 0033                        inc     Counter_Cruise_1
 3015:     A854 96 35                          ldaa    <TimerOverflowsBetweenCamPulses
 3016:     A856 26 19                          bne     loc_A871
 3017:     A858 13 2F 02 09                    brclr   <BitFlags2f $02 loc_A865
 3018:     A85C 12 31 80 1C                    brset   <CruiseStatus_1 $80 loc_A87C
 3019:     A860 14 2F 04                       bset    <BitFlags2f $04
 3020:     A863 20 17                          bra     loc_A87C
 3021:                                 
 3022:     A865                        loc_A865:
 3023:     A865 D6 63                          ldab    <ScaledDistPWForCruiseControl
 3024:     A867 F1 8916                        cmpb    byte_8916
 3025:     A86A 24 10                          bcc     loc_A87C
 3026:     A86C F1 8917                        cmpb    byte_8917
 3027:     A86F 25 0B                          bcs     loc_A87C
 3028:                                 
 3029:     A871                        loc_A871:
 3030:     A871 7C 0033                        inc     Counter_Cruise_1
 3031:     A874 12 31 80 36                    brset   <CruiseStatus_1 $80 loc_A8AE
 3032:     A878 13 24 08 32                    brclr   <BitFlags24 $08 loc_A8AE
 3033:                                 
 3034:     A87C                        loc_A87C:
 3035:     A87C 13 31 18 05                    brclr   <CruiseStatus_1 $18 loc_A885
 3036:     A880 B6 6499                        ldaa    Temp0
 3037:     A883 97 C4                          staa    <CruiseSpeedSetpoint
 3038:                                 
 3039:     A885                        loc_A885:
 3040:                                 
 3041:     A885 12 31 80 09                    brset   <CruiseStatus_1 $80 loc_A892
 3042:     A889 D6 33                          ldab    <Counter_Cruise_1
 3043:     A88B C4 0F                          andb    #$0F
 3044:     A88D 86 11                          ldaa    #$11
 3045:     A88F 3D                             mul
 3046:     A890 D7 33                          stab    <Counter_Cruise_1
 3047:                                 
 3048:     A892                        loc_A892:
 3049:     A892 5F                             clrb
 3050:     A893 D7 C5                          stab    <Timer_CruiseDecelerate
 3051:     A895 D7 CA                          stab    <Counter_Cruise_4
 3052:     A897 D7 CB                          stab    <CruiseControlVar0
 3053:     A899 D7 C3                          stab    <Counter_Cruise_2
 3054:     A89B D7 C9                          stab    <CruiseControlVar6
 3055:     A89D D7 C6                          stab    <CruiseControlVar1
 3056:     A89F 15 31 1F                       bclr    <CruiseStatus_1 $1F
 3057:     A8A2 14 31 A0                       bset    <CruiseStatus_1 $A0
 3058:     A8A5 15 32 0F                       bclr    <CruiseStatus_2 $0F
 3059:     A8A8 14 C5 80                       bset    <Timer_CruiseDecelerate $80
 3060:     A8AB 7E AA64                        jmp     loc_AA64
 3061:                                 
 3062:     A8AE                        loc_A8AE:
 3063:     A8AE 7C 0033                        inc     Counter_Cruise_1
 3064:     A8B1 B6 64B6                        ldaa    Temp1_t3
 3065:     A8B4 16                             tab
 3066:     A8B5 B8 64B7                        eora    PIA2_Buffer_t3_Temp
 3067:     A8B8 84 C0                          anda    #$C0
 3068:     A8BA 27 57                          beq     loc_A913
 3069:     A8BC 12 26 01 53                    brset   <BitFlags6a_t3 $01 loc_A913
 3070:     A8C0 85 40                          bita    #$40
 3071:     A8C2 26 01                          bne     loc_A8C5
 3072:     A8C4 54                             lsrb
 3073:                                 
 3074:     A8C5                        loc_A8C5:
 3075:     A8C5 86 00                          ldaa    #$00
 3076:     A8C7 C5 40                          bitb    #$40
 3077:     A8C9 26 36                          bne     loc_A901
 3078:     A8CB 12 31 80 27                    brset   <CruiseStatus_1 $80 loc_A8F6
 3079:     A8CF B6 6499                        ldaa    Temp0
 3080:     A8D2 36                             psha
 3081:     A8D3 CC 0F89                        ldd     #$0F89
 3082:     A8D6 BD D2C9                        jsr     ThrowNonCriticalError
 3083:     A8D9 32                             pula
 3084:     A8DA B7 6499                        staa    Temp0
 3085:     A8DD CC 0F08                        ldd     #$0F08
 3086:     A8E0 CE 00DC                        ldx     #ErrorBitsAssociatedWithPIA1AndReg1eTo25_HB
 3087:     A8E3 A1 00                          cmpa    $00,x
 3088:     A8E5 27 05                          beq     loc_A8EC
 3089:     A8E7 08                             inx
 3090:     A8E8 A1 00                          cmpa    $00,x
 3091:     A8EA 26 27                          bne     loc_A913
 3092:                                 
 3093:     A8EC                        loc_A8EC:
 3094:     A8EC E1 02                          cmpb    $02,x
 3095:     A8EE 26 23                          bne     loc_A913
 3096:     A8F0 6F 00                          clr     $00,x
 3097:     A8F2 6F 02                          clr     $02,x
 3098:     A8F4 20 86                          bra     loc_A87C
 3099:                                 
 3100:     A8F6                        loc_A8F6:
 3101:     A8F6 86 07                          ldaa    #$07
 3102:     A8F8 F6 64B6                        ldab    Temp1_t3
 3103:     A8FB C5 C0                          bitb    #$C0
 3104:     A8FD 26 02                          bne     loc_A901
 3105:     A8FF 86 7F                          ldaa    #$7F
 3106:                                 
 3107:     A901                        loc_A901:
 3108:     A901 95 45                          bita    <Counter_MainLoop
 3109:     A903 26 0E                          bne     loc_A913
 3110:     A905 B6 6499                        ldaa    Temp0
 3111:     A908 36                             psha
 3112:     A909 CC 0F10                        ldd     #$0F10
 3113:     A90C BD D2C9                        jsr     ThrowNonCriticalError
 3114:     A90F 32                             pula
 3115:     A910 B7 6499                        staa    Temp0
 3116:                                 
 3117:     A913                        loc_A913:
 3118:     A913 7C 0033                        inc     Counter_Cruise_1
 3119:     A916 12 61 02 54                    brset   <StartupSwitchMirror1 2 loc_A96E
 3120:     A91A D6 C5                          ldab    <Timer_CruiseDecelerate
 3121:     A91C 5C                             incb
 3122:     A91D 26 01                          bne     loc_A920
 3123:     A91F 5A                             decb
 3124:                                 
 3125:     A920                        loc_A920:
 3126:     A920 D7 C5                          stab    <Timer_CruiseDecelerate
 3127:     A922 12 31 01 19                    brset   <CruiseStatus_1 $01 loc_A93F
 3128:     A926 12 C5 80 1F                    brset   <Timer_CruiseDecelerate $80 loc_A949
 3129:     A92A C1 04                          cmpb    #$04
 3130:     A92C 23 1B                          bls     loc_A949
 3131:     A92E 14 31 21                       bset    <CruiseStatus_1 $21
 3132:     A931 15 31 0A                       bclr    <CruiseStatus_1 $0A
 3133:     A934 14 32 04                       bset    <CruiseStatus_2 $04
 3134:     A937 4F                             clra
 3135:     A938 97 CA                          staa    <Counter_Cruise_4
 3136:     A93A 97 CB                          staa    <CruiseControlVar0
 3137:     A93C 15 31 04                       bclr    <CruiseStatus_1 $04
 3138:                                 
 3139:     A93F                        loc_A93F:
 3140:     A93F 12 31 80 06                    brset   <CruiseStatus_1 $80 loc_A949
 3141:     A943 12 31 10 15                    brset   <CruiseStatus_1 $10 loc_A95C
 3142:     A947 20 03                          bra     loc_A94C
 3143:                                 
 3144:     A949                        loc_A949:
 3145:     A949 7E AB74                        jmp     loc_AB74
 3146:                                 
 3147:     A94C                        loc_A94C:
 3148:     A94C F1 890F                        cmpb    byte_890F
 3149:     A94F 23 F8                          bls     loc_A949
 3150:     A951 14 31 10                       bset    <CruiseStatus_1 $10
 3151:     A954 15 32 03                       bclr    <CruiseStatus_2 $03
 3152:     A957 B6 6499                        ldaa    Temp0
 3153:     A95A 97 CB                          staa    <CruiseControlVar0
 3154:                                 
 3155:     A95C                        loc_A95C:
 3156:     A95C D6 32                          ldab    <CruiseStatus_2
 3157:     A95E C1 A0                          cmpb    #$A0
 3158:     A960 25 E7                          bcs     loc_A949
 3159:     A962 D6 CB                          ldab    <CruiseControlVar0
 3160:     A964 F0 8925                        subb    byte_8925
 3161:     A967 24 01                          bcc     loc_A96A
 3162:     A969 5F                             clrb
 3163:                                 
 3164:     A96A                        loc_A96A:
 3165:     A96A D7 CB                          stab    <CruiseControlVar0
 3166:     A96C 20 DB                          bra     loc_A949
 3167:                                 
 3168:     A96E                        loc_A96E:
 3169:     A96E 13 31 01 63                    brclr   <CruiseStatus_1 $01 loc_A9D5
 3170:     A972 86 7F                          ldaa    #$7F
 3171:     A974 12 31 80 30                    brset   <CruiseStatus_1 $80 loc_A9A8
 3172:     A978 12 32 08 0B                    brset   <CruiseStatus_2 $08 loc_A987
 3173:     A97C D6 C4                          ldab    <CruiseSpeedSetpoint
 3174:     A97E F0 6499                        subb    Temp0
 3175:     A981 24 04                          bcc     loc_A987
 3176:     A983 C1 FC                          cmpb    #$FC
 3177:     A985 25 21                          bcs     loc_A9A8
 3178:                                 
 3179:     A987                        loc_A987:
 3180:     A987 12 31 10 02                    brset   <CruiseStatus_1 $10 loc_A98D
 3181:     A98B 20 21                          bra     loc_A9AE
 3182:                                 
 3183:     A98D                        loc_A98D:
 3184:     A98D 96 CA                          ldaa    <Counter_Cruise_4
 3185:     A98F F6 8924                        ldab    byte_8924
 3186:     A992 CB 80                          addb    #$80
 3187:     A994 2B 07                          bmi     loc_A99D
 3188:     A996 3D                             mul
 3189:     A997 99 CA                          adca    <Counter_Cruise_4
 3190:     A999 25 09                          bcs     loc_A9A4
 3191:     A99B 20 03                          bra     loc_A9A0
 3192:                                 
 3193:     A99D                        loc_A99D:
 3194:     A99D 3D                             mul
 3195:     A99E 89 00                          adca    #$00
 3196:                                 
 3197:     A9A0                        loc_A9A0:
 3198:     A9A0 81 7F                          cmpa    #$7F
 3199:     A9A2 23 0A                          bls     loc_A9AE
 3200:                                 
 3201:     A9A4                        loc_A9A4:
 3202:     A9A4 86 7F                          ldaa    #$7F
 3203:     A9A6 20 06                          bra     loc_A9AE
 3204:                                 
 3205:                                 
 3206:     A9A8                        loc_A9A8:
 3207:     A9A8 14 32 01                       bset    <CruiseStatus_2 $01
 3208:     A9AB 5F                             clrb
 3209:     A9AC D7 C9                          stab    <CruiseControlVar6
 3210:                                 
 3211:     A9AE                        loc_A9AE:
 3212:     A9AE F6 6499                        ldab    Temp0
 3213:     A9B1 D7 C4                          stab    <CruiseSpeedSetpoint
 3214:     A9B3 B7 649B                        staa    Temp2
 3215:     A9B6 BD AB3C                        jsr     sub_AB3C
 3216:     A9B9 F6 649B                        ldab    Temp2
 3217:     A9BC 11                             cba
 3218:     A9BD 22 01                          bhi     loc_A9C0
 3219:     A9BF 16                             tab
 3220:                                 
 3221:     A9C0                        loc_A9C0:
 3222:     A9C0 15 31 91                       bclr    <CruiseStatus_1 $91
 3223:     A9C3 15 32 08                       bclr    <CruiseStatus_2 $08
 3224:     A9C6 15 24 08                       bclr    <BitFlags24 $08
 3225:     A9C9 4F                             clra
 3226:     A9CA 97 CA                          staa    <Counter_Cruise_4
 3227:     A9CC 97 C5                          staa    <Timer_CruiseDecelerate
 3228:     A9CE 97 CB                          staa    <CruiseControlVar0
 3229:     A9D0 97 C3                          staa    <Counter_Cruise_2
 3230:     A9D2 7E AA64                        jmp     loc_AA64
 3231:                                 
 3232:                                 
 3233:     A9D5                        loc_A9D5:
 3234:     A9D5 5F                             clrb
 3235:     A9D6 D7 C5                          stab    <Timer_CruiseDecelerate
 3236:     A9D8 12 61 08 03                    brset   <StartupSwitchMirror1 $08 loc_A9DF
 3237:     A9DC 7E AAD6                        jmp     loc_AAD6
 3238:                                 
 3239:                                 
 3240:     A9DF                        loc_A9DF:
 3241:     A9DF D6 CA                          ldab    <Counter_Cruise_4
 3242:     A9E1 5C                             incb
 3243:     A9E2 26 01                          bne     loc_A9E5
 3244:     A9E4 5A                             decb
 3245:                                 
 3246:     A9E5                        loc_A9E5:
 3247:     A9E5 D7 CA                          stab    <Counter_Cruise_4
 3248:     A9E7 13 31 02 03                    brclr   <CruiseStatus_1 $02 loc_A9EE
 3249:     A9EB 7E AA80                        jmp     loc_AA80
 3250:                                 
 3251:     A9EE                        loc_A9EE:
 3252:     A9EE 13 31 20 03                    brclr   <CruiseStatus_1 $20 loc_A9F5
 3253:     A9F2 7E AB1D                        jmp     loc_AB1D
 3254:                                 
 3255:     A9F5                        loc_A9F5:
 3256:     A9F5 C1 04                          cmpb    #$04
 3257:     A9F7 22 03                          bhi     loc_A9FC
 3258:     A9F9 7E AB74                        jmp     loc_AB74
 3259:                                 
 3260:     A9FC                        loc_A9FC:
 3261:     A9FC 14 31 06                       bset    <CruiseStatus_1 $06
 3262:     A9FF 14 32 04                       bset    <CruiseStatus_2 $04
 3263:     AA02 4F                             clra
 3264:     AA03 97 C3                          staa    <Counter_Cruise_2
 3265:     AA05 13 31 80 38                    brclr   <CruiseStatus_1 $80 loc_AA41
 3266:     AA09 14 31 20                       bset    <CruiseStatus_1 $20
 3267:     AA0C 15 31 80                       bclr    <CruiseStatus_1 $80
 3268:     AA0F 15 24 08                       bclr    <BitFlags24 $08
 3269:     AA12 BD AB3C                        jsr     sub_AB3C
 3270:     AA15 B7 649B                        staa    Temp2
 3271:     AA18 96 C4                          ldaa    <CruiseSpeedSetpoint
 3272:     AA1A B0 6499                        suba    Temp0
 3273:     AA1D 24 03                          bcc     loc_AA22
 3274:     AA1F 16                             tab
 3275:     AA20 C8 80                          eorb    #$80
 3276:                                 
 3277:     AA22                        loc_AA22:
 3278:     AA22 2A 05                          bpl     loc_AA29
 3279:     AA24 48                             asla
 3280:     AA25 86 80                          ldaa    #$80
 3281:     AA27 82 00                          sbca    #$00
 3282:                                 
 3283:     AA29                        loc_AA29:
 3284:     AA29 8B 80                          adda    #$80
 3285:     AA2B CE 898F                        ldx     #unk_898F
 3286:     AA2E BD E655                        jsr     Lookup4ByteTable
 3287:     AA31 CB 80                          addb    #$80
 3288:     AA33 FB 649B                        addb    Temp2
 3289:     AA36 2A 43                          bpl     loc_AA7B
 3290:     AA38 28 04                          bvc     loc_AA3E
 3291:     AA3A C6 7F                          ldab    #$7F
 3292:     AA3C 20 3D                          bra     loc_AA7B
 3293:                                 
 3294:     AA3E                        loc_AA3E:
 3295:     AA3E 5F                             clrb
 3296:     AA3F 20 3A                          bra     loc_AA7B
 3297:                                 
 3298:     AA41                        loc_AA41:
 3299:     AA41 15 32 03                       bclr    <CruiseStatus_2 $03
 3300:     AA44 96 C4                          ldaa    <CruiseSpeedSetpoint
 3301:     AA46 8B 04                          adda    #$04
 3302:     AA48 97 C4                          staa    <CruiseSpeedSetpoint
 3303:     AA4A D6 C7                          ldab    <CruiseControlVar2
 3304:     AA4C 80 03                          suba    #$03
 3305:     AA4E B1 8914                        cmpa    byte_8914
 3306:     AA51 22 11                          bhi     loc_AA64
 3307:     AA53 F6 891A                        ldab    byte_891A
 3308:     AA56 96 C7                          ldaa    <CruiseControlVar2
 3309:     AA58 2B 0A                          bmi     loc_AA64
 3310:     AA5A 1B                             aba
 3311:     AA5B 25 04                          bcs     loc_AA61
 3312:     AA5D 81 7F                          cmpa    #$7F
 3313:     AA5F 23 02                          bls     loc_AA63
 3314:                                 
 3315:     AA61                        loc_AA61:
 3316:     AA61 86 7F                          ldaa    #$7F
 3317:                                 
 3318:     AA63                        loc_AA63:
 3319:     AA63 16                             tab
 3320:                                 
 3321:     AA64                        loc_AA64:
 3322:     AA64 96 C4                          ldaa    <CruiseSpeedSetpoint
 3323:     AA66 B1 8914                        cmpa    byte_8914
 3324:     AA69 23 08                          bls     loc_AA73
 3325:     AA6B 15 32 03                       bclr    <CruiseStatus_2 $03
 3326:     AA6E B6 8914                        ldaa    byte_8914
 3327:     AA71 20 06                          bra     loc_AA79
 3328:                                 
 3329:     AA73                        loc_AA73:
 3330:     AA73 B1 8915                        cmpa    byte_8915
 3331:     AA76 24 03                          bcc     loc_AA7B
 3332:     AA78 4F                             clra
 3333:                                 
 3334:     AA79                        loc_AA79:
 3335:     AA79 97 C4                          staa    <CruiseSpeedSetpoint
 3336:                                 
 3337:     AA7B                        loc_AA7B:
 3338:     AA7B D7 C7                          stab    <CruiseControlVar2
 3339:                                 
 3340:     AA7D                        loc_AA7D:
 3341:     AA7D 7E AB74                        jmp     loc_AB74
 3342:                                 
 3343:     AA80                        loc_AA80:
 3344:     AA80 12 31 20 F9                    brset   <CruiseStatus_1 $20 loc_AA7D
 3345:     AA84 12 31 08 17                    brset   <CruiseStatus_1 $08 loc_AA9F
 3346:     AA88 F1 8910                        cmpb    byte_8910
 3347:     AA8B 23 F0                          bls     loc_AA7D
 3348:     AA8D 14 31 08                       bset    <CruiseStatus_1 $08
 3349:     AA90 14 32 08                       bset    <CruiseStatus_2 $08
 3350:     AA93 B6 6499                        ldaa    Temp0
 3351:     AA96 BB 8927                        adda    byte_8927
 3352:     AA99 24 02                          bcc     loc_AA9D
 3353:     AA9B 86 FF                          ldaa    #$FF
 3354:                                 
 3355:     AA9D                        loc_AA9D:
 3356:     AA9D 97 CB                          staa    <CruiseControlVar0
 3357:                                 
 3358:     AA9F                        loc_AA9F:
 3359:     AA9F B6 6499                        ldaa    Temp0
 3360:     AAA2 B1 8914                        cmpa    byte_8914
 3361:     AAA5 25 07                          bcs     loc_AAAE
 3362:     AAA7 14 31 20                       bset    <CruiseStatus_1 $20
 3363:                                 
 3364:     AAAA                        loc_AAAA:
 3365:     AAAA D6 C7                          ldab    <CruiseControlVar2
 3366:     AAAC 20 58                          bra     loc_AB06
 3367:                                 
 3368:     AAAE                        loc_AAAE:
 3369:     AAAE D6 32                          ldab    <CruiseStatus_2
 3370:     AAB0 C1 A0                          cmpb    #$A0
 3371:     AAB2 25 C9                          bcs     loc_AA7D
 3372:     AAB4 D6 CB                          ldab    <CruiseControlVar0
 3373:     AAB6 F0 8926                        subb    byte_8926
 3374:     AAB9 24 01                          bcc     loc_AABC
 3375:     AABB 5F                             clrb
 3376:                                 
 3377:     AABC                        loc_AABC:
 3378:     AABC F1 8914                        cmpb    byte_8914
 3379:     AABF 24 11                          bcc     loc_AAD2
 3380:     AAC1 BB 8928                        adda    byte_8928
 3381:     AAC4 25 09                          bcs     loc_AACF
 3382:     AAC6 11                             cba
 3383:     AAC7 23 09                          bls     loc_AAD2
 3384:     AAC9 16                             tab
 3385:     AACA F1 8914                        cmpb    byte_8914
 3386:     AACD 23 03                          bls     loc_AAD2
 3387:                                 
 3388:     AACF                        loc_AACF:
 3389:     AACF F6 8914                        ldab    byte_8914
 3390:                                 
 3391:     AAD2                        loc_AAD2:
 3392:     AAD2 D7 CB                          stab    <CruiseControlVar0
 3393:     AAD4 20 A7                          bra     loc_AA7D
 3394:                                 
 3395:     AAD6                        loc_AAD6:
 3396:     AAD6 15 31 02                       bclr    <CruiseStatus_1 $02
 3397:     AAD9 96 C4                          ldaa    <CruiseSpeedSetpoint
 3398:     AADB 27 03                          beq     loc_AAE0
 3399:     AADD 15 31 20                       bclr    <CruiseStatus_1 $20
 3400:                                 
 3401:     AAE0                        loc_AAE0:
 3402:     AAE0 13 31 08 39                    brclr   <CruiseStatus_1 $08 loc_AB1D
 3403:     AAE4 96 CA                          ldaa    <Counter_Cruise_4
 3404:     AAE6 81 5D                          cmpa    #$5D
 3405:     AAE8 22 0A                          bhi     loc_AAF4
 3406:     AAEA 15 31 08                       bclr    <CruiseStatus_1 $08
 3407:     AAED 15 32 08                       bclr    <CruiseStatus_2 $08
 3408:     AAF0 D7 CB                          stab    <CruiseControlVar0
 3409:     AAF2 20 29                          bra     loc_AB1D
 3410:                                 
 3411:     AAF4                        loc_AAF4:
 3412:     AAF4 B6 6499                        ldaa    Temp0
 3413:     AAF7 8B 04                          adda    #$04
 3414:     AAF9 90 C4                          suba    <CruiseSpeedSetpoint
 3415:     AAFB 24 01                          bcc     loc_AAFE
 3416:     AAFD 4F                             clra
 3417:                                 
 3418:     AAFE                        loc_AAFE:
 3419:     AAFE CE 89CC                        ldx     #unk_89CC
 3420:     AB01 BD E655                        jsr     Lookup4ByteTable
 3421:     AB04 CA 80                          orab    #$80
 3422:                                 
 3423:     AB06                        loc_AB06:
 3424:     AB06 B6 6499                        ldaa    Temp0
 3425:     AB09 97 C4                          staa    <CruiseSpeedSetpoint
 3426:     AB0B 15 31 0C                       bclr    <CruiseStatus_1 $0C
 3427:     AB0E 15 32 08                       bclr    <CruiseStatus_2 $08
 3428:     AB11 4F                             clra
 3429:     AB12 97 CB                          staa    <CruiseControlVar0
 3430:     AB14 97 CA                          staa    <Counter_Cruise_4
 3431:     AB16 5D                             tstb
 3432:     AB17 2B 01                          bmi     loc_AB1A
 3433:     AB19 5F                             clrb
 3434:                                 
 3435:     AB1A                        loc_AB1A:
 3436:     AB1A 7E AA64                        jmp     loc_AA64
 3437:                                 
 3438:     AB1D                        loc_AB1D:
 3439:     AB1D 5F                             clrb
 3440:     AB1E D7 CA                          stab    <Counter_Cruise_4
 3441:     AB20 96 32                          ldaa    <CruiseStatus_2
 3442:     AB22 88 04                          eora    #$04
 3443:     AB24 85 07                          bita    #$07
 3444:     AB26 26 4C                          bne     loc_AB74
 3445:     AB28 96 45                          ldaa    <Counter_MainLoop
 3446:     AB2A 26 48                          bne     loc_AB74
 3447:     AB2C D6 C3                          ldab    <Counter_Cruise_2
 3448:     AB2E 5C                             incb
 3449:     AB2F F1 891F                        cmpb    byte_891F
 3450:     AB32 25 04                          bcs     loc_AB38
 3451:     AB34 15 32 04                       bclr    <CruiseStatus_2 $04
 3452:     AB37 5F                             clrb
 3453:                                 
 3454:     AB38                        loc_AB38:
 3455:     AB38 D7 C3                          stab    <Counter_Cruise_2
 3456:     AB3A 20 38                          bra     loc_AB74
 3457:                                 
 3458:     AB3C                        sub_AB3C:
 3459:     AB3C 96 C4                          ldaa    <CruiseSpeedSetpoint
 3460:     AB3E CE 8969                        ldx     #unk_8969
 3461:     AB41 BD E655                        jsr     Lookup4ByteTable
 3462:     AB44 2A 02                          bpl     loc_AB48
 3463:     AB46 C6 7F                          ldab    #$7F
 3464:                                 
 3465:     AB48                        loc_AB48:
 3466:     AB48 F7 649A                        stab    Temp1
 3467:     AB4B 96 4F                          ldaa    <MapVolts
 3468:     AB4D CE 8978                        ldx     #unk_8978
 3469:     AB50 BD E655                        jsr     Lookup4ByteTable
 3470:     AB53 F6 649A                        ldab    Temp1
 3471:     AB56 58                             aslb
 3472:     AB57 3D                             mul
 3473:     AB58 89 00                          adca    #$00
 3474:     AB5A 2A 02                          bpl     loc_AB5E
 3475:     AB5C 86 7F                          ldaa    #$7F
 3476:                                 
 3477:     AB5E                        loc_AB5E:
 3478:     AB5E CE 0012                        ldx     #L002F_t3
 3479:     AB61 D6 C4                          ldab    <CruiseSpeedSetpoint
 3480:     AB63 F1 8929                        cmpb    byte_8929
 3481:     AB66 23 01                          bls     loc_AB69
 3482:     AB68 09                             dex
 3483:                                 
 3484:     AB69                        loc_AB69:
 3485:     AB69 AB 00                          adda    $00,x
 3486:     AB6B 2A 03                          bpl     locret_AB70
 3487:     AB6D 29 02                          bvs     loc_AB71
 3488:     AB6F 4F                             clra
 3489:                                 
 3490:     AB70                        locret_AB70:
 3491:     AB70 39                             rts
 3492:                                 
 3493:     AB71                        loc_AB71:
 3494:     AB71 86 7F                          ldaa    #$7F
 3495:     AB73 39                             rts
 3496:                                 
 3497:     AB74                        loc_AB74:
 3498:     AB74 12 31 80 11                    brset   <CruiseStatus_1 $80 loc_AB89
 3499:     AB78 7C 0033                        inc     Counter_Cruise_1
 3500:     AB7B 13 31 18 0A                    brclr   <CruiseStatus_1 $18 loc_AB89
 3501:     AB7F 7C 0033                        inc     Counter_Cruise_1
 3502:     AB82 12 31 08 03                    brset   <CruiseStatus_1 $08 loc_AB89
 3503:     AB86 7C 0033                        inc     Counter_Cruise_1
 3504:                                 
 3505:     AB89                        loc_AB89:
 3506:     AB89 96 32                          ldaa    <CruiseStatus_2
 3507:     AB8B 8B 10                          adda    #$10
 3508:     AB8D 81 B0                          cmpa    #$B0
 3509:     AB8F 25 02                          bcs     loc_AB93
 3510:     AB91 84 0F                          anda    #$0F
 3511:                                 
 3512:     AB93                        loc_AB93:
 3513:     AB93 97 32                          staa    <CruiseStatus_2
 3514:     AB95 84 F0                          anda    #$F0
 3515:     AB97 27 03                          beq     loc_AB9C
 3516:     AB99 7E AE35                        jmp     loc_AE35
 3517:                                 
 3518:     AB9C                        loc_AB9C:
 3519:     AB9C 5F                             clrb
 3520:     AB9D 13 24 10 03                    brclr   <BitFlags24 $10 loc_ABA4
 3521:     ABA1 7E AC80                        jmp     loc_AC80
 3522:                                 
 3523:     ABA4                        loc_ABA4:
 3524:     ABA4 18CE 003E                      ldy     #$003E
 3525:     ABA8 CE D000                        ldx     #$D000
 3526:     ABAB CC 06DD                        ldd     #$06DD
 3527:     ABAE 13 3D FF 0D                    brclr   <TimerOverflowsBetweenSpeedoPulses $FF loc_ABBF
 3528:     ABB2 5F                             clrb
 3529:     ABB3 4F                             clra
 3530:     ABB4 12 3D 40 0C                    brset   <TimerOverflowsBetweenSpeedoPulses $40 loc_ABC4
 3531:     ABB8 C6 06                          ldab    #$06
 3532:     ABBA 1809                           dey
 3533:     ABBC CE DDD0                        ldx     #$DDD0
 3534:                                 
 3535:     ABBF                        loc_ABBF:
 3536:     ABBF 0F                             sei
 3537:     ABC0 BD E6C0                        jsr     sub_E6C0
 3538:     ABC3 0E                             cli
 3539:                                 
 3540:     ABC4                        loc_ABC4:
 3541:     ABC4 DE 5D                          ldx     <VehicleSpeed_HB
 3542:     ABC6 FF 6499                        stx     Temp0
 3543:     ABC9 DD 5D                          std     <VehicleSpeed_HB
 3544:     ABCB 13 32 02 6B                    brclr   <CruiseStatus_2 $02 loc_AC3A
 3545:     ABCF 96 C3                          ldaa    <Counter_Cruise_2
 3546:     ABD1 13 32 01 10                    brclr   <CruiseStatus_2 $01 loc_ABE5
 3547:     ABD5 B1 8933                        cmpa    byte_8933
 3548:     ABD8 24 05                          bcc     loc_ABDF
 3549:     ABDA 4C                             inca
 3550:     ABDB 97 C3                          staa    <Counter_Cruise_2
 3551:     ABDD 20 5B                          bra     loc_AC3A
 3552:                                 
 3553:     ABDF                        loc_ABDF:
 3554:     ABDF 15 32 01                       bclr    <CruiseStatus_2 $01
 3555:     ABE2 4F                             clra
 3556:     ABE3 97 C3                          staa    <Counter_Cruise_2
 3557:                                 
 3558:     ABE5                        loc_ABE5:
 3559:     ABE5 B1 8932                        cmpa    byte_8932
 3560:     ABE8 25 52                          bcs     loc_AC3C
 3561:     ABEA D6 C9                          ldab    <CruiseControlVar6
 3562:     ABEC 17                             tba
 3563:     ABED 2A 01                          bpl     loc_ABF0
 3564:     ABEF 50                             negb
 3565:                                 
 3566:     ABF0                        loc_ABF0:
 3567:     ABF0 F1 892B                        cmpb    byte_892B
 3568:     ABF3 25 3F                          bcs     loc_AC34
 3569:     ABF5 CE 0012                        ldx     #L002F_t3
 3570:     ABF8 D6 C4                          ldab    <CruiseSpeedSetpoint
 3571:     ABFA F1 8929                        cmpb    byte_8929
 3572:     ABFD 23 01                          bls     loc_AC00
 3573:     ABFF 09                             dex
 3574:                                 
 3575:     AC00                        loc_AC00:
 3576:     AC00 E6 00                          ldab    $00,x
 3577:     AC02 AB 02                          adda    $02,x
 3578:     AC04 28 05                          bvc     loc_AC0B
 3579:     AC06 48                             asla
 3580:     AC07 86 80                          ldaa    #$80
 3581:     AC09 82 00                          sbca    #$00
 3582:                                 
 3583:     AC0B                        loc_AC0B:
 3584:     AC0B A7 02                          staa    $02,x
 3585:     AC0D B1 892C                        cmpa    byte_892C
 3586:     AC10 2E 12                          bgt     loc_AC24
 3587:     AC12 B1 892D                        cmpa    byte_892D
 3588:     AC15 2C 1D                          bge     loc_AC34
 3589:     AC17 F0 892F                        subb    byte_892F
 3590:     AC1A F1 8931                        cmpb    byte_8931
 3591:     AC1D 2C 10                          bge     loc_AC2F
 3592:     AC1F F6 8931                        ldab    byte_8931
 3593:     AC22 20 0B                          bra     loc_AC2F
 3594:                                 
 3595:                                 
 3596:     AC24                        loc_AC24:
 3597:     AC24 FB 892E                        addb    byte_892E
 3598:     AC27 F1 8930                        cmpb    byte_8930
 3599:     AC2A 2F 03                          ble     loc_AC2F
 3600:     AC2C F6 8930                        ldab    byte_8930
 3601:                                 
 3602:     AC2F                        loc_AC2F:
 3603:     AC2F E7 00                          stab    $00,x
 3604:     AC31 4F                             clra
 3605:     AC32 A7 02                          staa    $02,x
 3606:                                 
 3607:     AC34                        loc_AC34:
 3608:     AC34 15 32 02                       bclr    <CruiseStatus_2 $02
 3609:     AC37 4F                             clra
 3610:     AC38 97 C3                          staa    <Counter_Cruise_2
 3611:                                 
 3612:     AC3A                        loc_AC3A:
 3613:     AC3A 20 2A                          bra     loc_AC66
 3614:                                 
 3615:     AC3C                        loc_AC3C:
 3616:     AC3C 4C                             inca
 3617:     AC3D 97 C3                          staa    <Counter_Cruise_2
 3618:     AC3F DC 5D                          ldd     <VehicleSpeed_HB
 3619:     AC41 04                             lsrd
 3620:     AC42 04                             lsrd
 3621:     AC43 04                             lsrd
 3622:     AC44 96 C4                          ldaa    <CruiseSpeedSetpoint
 3623:     AC46 48                             asla
 3624:     AC47 48                             asla
 3625:     AC48 10                             sba
 3626:     AC49 BB 892A                        adda    byte_892A
 3627:     AC4C 2B 0D                          bmi     loc_AC5B
 3628:     AC4E D6 C9                          ldab    <CruiseControlVar6
 3629:     AC50 2A 02                          bpl     loc_AC54
 3630:     AC52 53                             comb
 3631:     AC53 5C                             incb
 3632:                                 
 3633:     AC54                        loc_AC54:
 3634:     AC54 11                             cba
 3635:     AC55 2F 0F                          ble     loc_AC66
 3636:     AC57 97 C9                          staa    <CruiseControlVar6
 3637:     AC59 20 0B                          bra     loc_AC66
 3638:                                 
 3639:     AC5B                        loc_AC5B:
 3640:     AC5B D6 C9                          ldab    <CruiseControlVar6
 3641:     AC5D 2B 02                          bmi     loc_AC61
 3642:     AC5F 53                             comb
 3643:     AC60 5C                             incb
 3644:                                 
 3645:     AC61                        loc_AC61:
 3646:     AC61 11                             cba
 3647:     AC62 2C 02                          bge     loc_AC66
 3648:     AC64 97 C9                          staa    <CruiseControlVar6
 3649:                                 
 3650:     AC66                        loc_AC66:
 3651:                                 
 3652:     AC66 FC 6499                        ldd     Temp0
 3653:     AC69 93 5D                          subd    <VehicleSpeed_HB
 3654:     AC6B 26 03                          bne     loc_AC70
 3655:     AC6D 7F 00C8                        clr     CruiseControlVar3
 3656:                                 
 3657:     AC70                        loc_AC70:
 3658:     AC70 FD 6499                        std     Temp0
 3659:     AC73 4F                             clra
 3660:     AC74 D6 C8                          ldab    <CruiseControlVar3
 3661:     AC76 2A 01                          bpl     loc_AC79
 3662:     AC78 4A                             deca
 3663:                                 
 3664:     AC79                        loc_AC79:
 3665:     AC79 F3 6499                        addd    Temp0
 3666:     AC7C 47                             asra
 3667:     AC7D 56                             rorb
 3668:     AC7E 8D 04                          bsr     sub_AC84
 3669:                                 
 3670:     AC80                        loc_AC80:
 3671:     AC80 D7 C8                          stab    <CruiseControlVar3
 3672:     AC82 20 11                          bra     loc_AC95
 3673:                                 
 3674:     AC84                        sub_AC84:
 3675:     AC84 05                             lsld
 3676:     AC85 25 06                          bcs     loc_AC8D
 3677:     AC87 4D                             tsta
 3678:     AC88 27 09                          beq     loc_AC93
 3679:     AC8A C6 7F                          ldab    #$7F
 3680:     AC8C 39                             rts
 3681:                                 
 3682:     AC8D                        loc_AC8D:
 3683:     AC8D 81 FF                          cmpa    #$FF
 3684:     AC8F 27 01                          beq     loc_AC92
 3685:     AC91 5F                             clrb
 3686:                                 
 3687:     AC92                        loc_AC92:
 3688:     AC92 0D                             sec
 3689:                                 
 3690:     AC93                        loc_AC93:
 3691:     AC93 56                             rorb
 3692:     AC94 39                             rts
 3693:                                 
 3694:     AC95                        loc_AC95:
 3695:     AC95 12 31 80 56                    brset   <CruiseStatus_1 $80 loc_ACEF
 3696:     AC99 CE 8943                        ldx     #unk_8943
 3697:     AC9C 5F                             clrb
 3698:     AC9D 96 C4                          ldaa    <CruiseSpeedSetpoint
 3699:     AC9F 13 31 18 02                    brclr   <CruiseStatus_1 $18 loc_ACA5
 3700:     ACA3 96 CB                          ldaa    <CruiseControlVar0
 3701:                                 
 3702:     ACA5                        loc_ACA5:
 3703:     ACA5 04                             lsrd
 3704:     ACA6 04                             lsrd
 3705:     ACA7 04                             lsrd
 3706:     ACA8 93 5D                          subd    <VehicleSpeed_HB
 3707:     ACAA 24 46                          bcc     loc_ACF2
 3708:     ACAC 15 31 04                       bclr    <CruiseStatus_1 $04
 3709:     ACAF CE 8934                        ldx     #unk_8934
 3710:     ACB2 43                             coma
 3711:     ACB3 53                             comb
 3712:     ACB4 C3 0001                        addd    #$0001
 3713:     ACB7 F7 6499                        stab    Temp0
 3714:     ACBA 4D                             tsta
 3715:     ACBB 27 07                          beq     loc_ACC4
 3716:     ACBD 36                             psha
 3717:     ACBE 86 FF                          ldaa    #$FF
 3718:     ACC0 B7 6499                        staa    Temp0
 3719:     ACC3 32                             pula
 3720:                                 
 3721:     ACC4                        loc_ACC4:
 3722:     ACC4 04                             lsrd
 3723:     ACC5 04                             lsrd
 3724:     ACC6 13 31 10 0A                    brclr   <CruiseStatus_1 $10 loc_ACD4
 3725:     ACCA CE 89D7                        ldx     #unk_89D7
 3726:     ACCD 4D                             tsta
 3727:     ACCE 27 38                          beq     loc_AD08
 3728:     ACD0 86 FF                          ldaa    #$FF
 3729:     ACD2 20 35                          bra     loc_AD09
 3730:                                 
 3731:     ACD4                        loc_ACD4:
 3732:     ACD4 4D                             tsta
 3733:     ACD5 26 12                          bne     loc_ACE9
 3734:     ACD7 F1 890D                        cmpb    byte_890D
 3735:     ACDA 24 0D                          bcc     loc_ACE9
 3736:     ACDC 17                             tba
 3737:     ACDD F6 6499                        ldab    Temp0
 3738:     ACE0 B1 890E                        cmpa    byte_890E
 3739:     ACE3 25 23                          bcs     loc_AD08
 3740:     ACE5 86 05                          ldaa    #$05
 3741:     ACE7 20 02                          bra     loc_ACEB
 3742:                                 
 3743:     ACE9                        loc_ACE9:
 3744:     ACE9 86 0F                          ldaa    #$0F
 3745:                                 
 3746:     ACEB                        loc_ACEB:
 3747:     ACEB 8A 80                          oraa    #$80
 3748:     ACED 97 C7                          staa    <CruiseControlVar2
 3749:                                 
 3750:     ACEF                        loc_ACEF:
 3751:     ACEF 7E AE35                        jmp     loc_AE35
 3752:                                 
 3753:                                 
 3754:     ACF2                        loc_ACF2:
 3755:     ACF2 13 31 0C 05                    brclr   <CruiseStatus_1 $0C loc_ACFB
 3756:     ACF6 CE 895A                        ldx     #unk_895A
 3757:     ACF9 04                             lsrd
 3758:     ACFA 04                             lsrd
 3759:                                 
 3760:     ACFB                        loc_ACFB:
 3761:     ACFB 4D                             tsta
 3762:     ACFC 27 02                          beq     loc_AD00
 3763:     ACFE C6 FF                          ldab    #$FF
 3764:                                 
 3765:     AD00                        loc_AD00:
 3766:     AD00 F1 8911                        cmpb    byte_8911
 3767:     AD03 24 03                          bcc     loc_AD08
 3768:     AD05 15 31 04                       bclr    <CruiseStatus_1 $04
 3769:                                 
 3770:     AD08                        loc_AD08:
 3771:     AD08 17                             tba
 3772:                                 
 3773:     AD09                        loc_AD09:
 3774:     AD09 BD E655                        jsr     Lookup4ByteTable
 3775:     AD0C 4F                             clra
 3776:     AD0D 5D                             tstb
 3777:     AD0E 2A 01                          bpl     loc_AD11
 3778:     AD10 4A                             deca
 3779:                                 
 3780:     AD11                        loc_AD11:
 3781:     AD11 FD 6499                        std     Temp0
 3782:     AD14 CE 89BD                        ldx     #unk_89BD
 3783:     AD17 96 5C                          ldaa    <TpsVolts_Minus_LowestSessionTpsVolts
 3784:     AD19 BD E655                        jsr     Lookup4ByteTable
 3785:     AD1C B7 649C                        staa    Temp3
 3786:     AD1F CE 89AE                        ldx     #unk_89AE
 3787:     AD22 DC 5D                          ldd     <VehicleSpeed_HB
 3788:     AD24 05                             lsld
 3789:     AD25 05                             lsld
 3790:     AD26 05                             lsld
 3791:     AD27 BD E655                        jsr     Lookup4ByteTable
 3792:     AD2A BB 649C                        adda    Temp3
 3793:     AD2D 24 02                          bcc     loc_AD31
 3794:     AD2F 86 FF                          ldaa    #$FF
 3795:                                 
 3796:     AD31                        loc_AD31:
 3797:     AD31 B7 649C                        staa    Temp3
 3798:     AD34 4F                             clra
 3799:     AD35 B7 649B                        staa    Temp2
 3800:     AD38 D6 C8                          ldab    <CruiseControlVar3
 3801:     AD3A 2A 01                          bpl     loc_AD3D
 3802:     AD3C 4A                             deca
 3803:                                 
 3804:     AD3D                        loc_AD3D:
 3805:     AD3D 05                             lsld
 3806:     AD3E 05                             lsld
 3807:     AD3F F3 6499                        addd    Temp0
 3808:     AD42 FD 6499                        std     Temp0
 3809:     AD45 12 32 04 28                    brset   <CruiseStatus_2 $04 loc_AD71
 3810:     AD49 2A 05                          bpl     loc_AD50
 3811:     AD4B 43                             coma
 3812:     AD4C 53                             comb
 3813:     AD4D C3 0001                        addd    #$0001
 3814:                                 
 3815:     AD50                        loc_AD50:
 3816:     AD50 4D                             tsta
 3817:     AD51 27 02                          beq     loc_AD55
 3818:     AD53 C6 FF                          ldab    #$FF
 3819:                                 
 3820:     AD55                        loc_AD55:
 3821:     AD55 F1 891D                        cmpb    byte_891D
 3822:     AD58 22 17                          bhi     loc_AD71
 3823:     AD5A 5F                             clrb
 3824:     AD5B 96 C4                          ldaa    <CruiseSpeedSetpoint
 3825:     AD5D 04                             lsrd
 3826:     AD5E 04                             lsrd
 3827:     AD5F 04                             lsrd
 3828:     AD60 93 5D                          subd    <VehicleSpeed_HB
 3829:     AD62 2A 05                          bpl     loc_AD69
 3830:     AD64 43                             coma
 3831:     AD65 53                             comb
 3832:     AD66 C3 0001                        addd    #$0001
 3833:                                 
 3834:     AD69                        loc_AD69:
 3835:     AD69 4D                             tsta
 3836:     AD6A 26 05                          bne     loc_AD71
 3837:     AD6C F1 891E                        cmpb    byte_891E
 3838:     AD6F 23 21                          bls     loc_AD92
 3839:                                 
 3840:     AD71                        loc_AD71:
 3841:     AD71 4F                             clra
 3842:     AD72 D6 C6                          ldab    <CruiseControlVar1
 3843:     AD74 2A 01                          bpl     loc_AD77
 3844:     AD76 4A                             deca
 3845:                                 
 3846:     AD77                        loc_AD77:
 3847:     AD77 F3 6499                        addd    Temp0
 3848:     AD7A B7 649D                        staa    Temp4
 3849:     AD7D 2A 05                          bpl     loc_AD84
 3850:     AD7F 43                             coma
 3851:     AD80 53                             comb
 3852:     AD81 C3 0001                        addd    #$0001
 3853:                                 
 3854:     AD84                        loc_AD84:
 3855:     AD84 1AB3 649B                      cpd     Temp2
 3856:     AD88 24 0B                          bcc     loc_AD95
 3857:     AD8A B6 649D                        ldaa    Temp4
 3858:     AD8D 2A 01                          bpl     loc_AD90
 3859:     AD8F 50                             negb
 3860:                                 
 3861:     AD90                        loc_AD90:
 3862:     AD90 D7 C6                          stab    <CruiseControlVar1
 3863:                                 
 3864:     AD92                        loc_AD92:
 3865:     AD92 7E AE35                        jmp     loc_AE35
 3866:                                 
 3867:                                 
 3868:     AD95                        loc_AD95:
 3869:     AD95 4F                             clra
 3870:     AD96 97 C6                          staa    <CruiseControlVar1
 3871:     AD98 B6 649D                        ldaa    Temp4
 3872:     AD9B 84 80                          anda    #$80
 3873:     AD9D D6 C7                          ldab    <CruiseControlVar2
 3874:     AD9F 27 07                          beq     loc_ADA8
 3875:     ADA1 2A EF                          bpl     loc_AD92
 3876:     ADA3 16                             tab
 3877:     ADA4 D8 C7                          eorb    <CruiseControlVar2
 3878:     ADA6 2A EA                          bpl     loc_AD92
 3879:                                 
 3880:     ADA8                        loc_ADA8:
 3881:     ADA8 D6 5C                          ldab    <TpsVolts_Minus_LowestSessionTpsVolts
 3882:     ADAA 4D                             tsta
 3883:     ADAB 2A 2A                          bpl     loc_ADD7
 3884:     ADAD BA 8921                        oraa    byte_8921
 3885:     ADB0 13 31 10 05                    brclr   <CruiseStatus_1 $10 loc_ADB9
 3886:     ADB4 BB 8923                        adda    byte_8923
 3887:     ADB7 20 48                          bra     loc_AE01
 3888:                                 
 3889:     ADB9                        loc_ADB9:
 3890:     ADB9 B7 649D                        staa    Temp4
 3891:     ADBC 4F                             clra
 3892:     ADBD F1 8912                        cmpb    byte_8912
 3893:     ADC0 25 3F                          bcs     loc_AE01
 3894:     ADC2 CE 89FC                        ldx     #unk_89FC
 3895:     ADC5 FF 649B                        stx     Temp2
 3896:     ADC8 CE 8A07                        ldx     #unk_8A07
 3897:     ADCB 8D 38                          bsr     sub_AE05
 3898:     ADCD 8A 80                          oraa    #$80
 3899:     ADCF F6 649D                        ldab    Temp4
 3900:     ADD2 11                             cba
 3901:     ADD3 24 2C                          bcc     loc_AE01
 3902:     ADD5 20 29                          bra     loc_AE00
 3903:                                 
 3904:     ADD7                        loc_ADD7:
 3905:     ADD7 F1 8913                        cmpb    byte_8913
 3906:     ADDA 24 25                          bcc     loc_AE01
 3907:     ADDC BA 8920                        oraa    byte_8920
 3908:     ADDF 13 31 08 05                    brclr   <CruiseStatus_1 $08 loc_ADE8
 3909:     ADE3 BB 8922                        adda    byte_8922
 3910:     ADE6 20 19                          bra     loc_AE01
 3911:                                 
 3912:     ADE8                        loc_ADE8:
 3913:     ADE8 12 31 04 15                    brset   <CruiseStatus_1 $04 loc_AE01
 3914:     ADEC B7 649D                        staa    Temp4
 3915:     ADEF CE 89E6                        ldx     #unk_89E6
 3916:     ADF2 FF 649B                        stx     Temp2
 3917:     ADF5 CE 89F1                        ldx     #unk_89F1
 3918:     ADF8 8D 0B                          bsr     sub_AE05
 3919:     ADFA F6 649D                        ldab    Temp4
 3920:     ADFD 11                             cba
 3921:     ADFE 24 01                          bcc     loc_AE01
 3922:                                 
 3923:     AE00                        loc_AE00:
 3924:     AE00 17                             tba
 3925:                                 
 3926:     AE01                        loc_AE01:
 3927:     AE01 97 C7                          staa    <CruiseControlVar2
 3928:     AE03 20 30                          bra     loc_AE35
 3929:                                 
 3930:     AE05                        sub_AE05:
 3931:     AE05 5F                             clrb
 3932:     AE06 96 C4                          ldaa    <CruiseSpeedSetpoint
 3933:     AE08 04                             lsrd
 3934:     AE09 04                             lsrd
 3935:     AE0A 04                             lsrd
 3936:     AE0B 93 5D                          subd    <VehicleSpeed_HB
 3937:     AE0D 47                             asra
 3938:     AE0E 56                             rorb
 3939:     AE0F 47                             asra
 3940:     AE10 56                             rorb
 3941:     AE11 47                             asra
 3942:     AE12 56                             rorb
 3943:     AE13 BD AC84                        jsr     sub_AC84
 3944:     AE16 17                             tba
 3945:     AE17 8B 80                          adda    #$80
 3946:     AE19 BD E655                        jsr     Lookup4ByteTable
 3947:     AE1C FE 649B                        ldx     Temp2
 3948:     AE1F B7 649B                        staa    Temp2
 3949:     AE22 FC 6499                        ldd     Temp0
 3950:     AE25 BD AC84                        jsr     sub_AC84
 3951:     AE28 17                             tba
 3952:     AE29 8B 80                          adda    #$80
 3953:     AE2B BD E655                        jsr     Lookup4ByteTable
 3954:     AE2E F6 649B                        ldab    Temp2
 3955:     AE31 3D                             mul
 3956:     AE32 89 00                          adca    #$00
 3957:     AE34 39                             rts
 3958:                                 
 3959:     AE35                        loc_AE35:
 3960:     AE35 96 CE                          ldaa    <PIA2_Buffer_t3
 3961:     AE37 84 3F                          anda    #$3F
 3962:     AE39 12 31 80 11                    brset   <CruiseStatus_1 $80 loc_AE4E
 3963:     AE3D D6 C7                          ldab    <CruiseControlVar2
 3964:     AE3F 27 0F                          beq     loc_AE50
 3965:     AE41 2A 0F                          bpl     loc_AE52
 3966:     AE43 13 31 10 07                    brclr   <CruiseStatus_1 $10 loc_AE4E
 3967:     AE47 D6 CA                          ldab    <Counter_Cruise_4
 3968:     AE49 5C                             incb
 3969:     AE4A 27 02                          beq     loc_AE4E
 3970:     AE4C D7 CA                          stab    <Counter_Cruise_4
 3971:                                 
 3972:     AE4E                        loc_AE4E:
 3973:     AE4E 8A C0                          oraa    #$C0
 3974:                                 
 3975:     AE50                        loc_AE50:
 3976:     AE50 8A 80                          oraa    #$80
 3977:                                 
 3978:     AE52                        loc_AE52:
 3979:     AE52 15 26 01                       bclr    <BitFlags6a_t3 $01
 3980:     AE55 16                             tab
 3981:     AE56 D8 CE                          eorb    <PIA2_Buffer_t3
 3982:     AE58 C4 C0                          andb    #$C0
 3983:     AE5A 27 03                          beq     loc_AE5F
 3984:     AE5C 14 26 01                       bset    <BitFlags6a_t3 $01
 3985:                                 
 3986:     AE5F                        loc_AE5F:
 3987:     AE5F 97 CE                          staa    <PIA2_Buffer_t3
 3988:     AE61 D6 C7                          ldab    <CruiseControlVar2
 3989:     AE63 27 0C                          beq     loc_AE71
 3990:     AE65 05                             lsld
 3991:     AE66 5D                             tstb
 3992:     AE67 27 05                          beq     loc_AE6E
 3993:     AE69 C0 02                          subb    #$02
 3994:     AE6B 27 01                          beq     loc_AE6E
 3995:     AE6D 04                             lsrd
 3996:                                 
 3997:     AE6E                        loc_AE6E:
 3998:     AE6E D7 C7                          stab    <CruiseControlVar2
 3999:     AE70 39                             rts
 4000:                                 
 4001:     AE71                        loc_AE71:
 4002:     AE71 13 32 01 03                    brclr   <CruiseStatus_2 $01 locret_AE78
 4003:     AE75 14 32 02                       bset    <CruiseStatus_2 $02
 4004:                                 
 4005:     AE78                        locret_AE78:
 4006:     AE78 39                             rts
 4007:                                 
 4008:     AE79                        sub_AE79:
 4009:     AE79 7A 64C3                        dec     Ram64c3
 4010:     AE7C 27 02                          beq     loc_AE80
 4011:     AE7E 20 48                          bra     loc_AEC8
 4012:                                 
 4013:     AE80                        loc_AE80:
 4014:     AE80 B6 8A12                        ldaa    byte_8A12
 4015:     AE83 B7 64C3                        staa    Ram64c3
 4016:     AE86 CE 8A13                        ldx     #unk_8A13
 4017:     AE89 18CE 64C4                      ldy     #Ram64c4
 4018:     AE8D DC 46                          ldd     <EngineRpm_HB
 4019:     AE8F B3 64C1                        subd    UNe_64C1
 4020:     AE92 05                             lsld
 4021:     AE93 05                             lsld
 4022:     AE94 05                             lsld
 4023:     AE95 C3 8000                        addd    #$8000
 4024:     AE98 BD AEFA                        jsr     sub_AEFA
 4025:     AE9B 83 8000                        subd    #$8000
 4026:     AE9E CE 0006                        ldx     #$0006
 4027:                                 
 4028:     AEA1                        loc_AEA1:
 4029:     AEA1 47                             asra
 4030:     AEA2 56                             rorb
 4031:     AEA3 09                             dex
 4032:     AEA4 26 FB                          bne     loc_AEA1
 4033:     AEA6 15 2F 02                       bclr    <BitFlags2f $02
 4034:     AEA9 1AB3 8A15                      cpd     word_8A15
 4035:     AEAD 2D 14                          blt     loc_AEC3
 4036:     AEAF 14 2F 02                       bset    <BitFlags2f $02
 4037:     AEB2 F6 8A19                        ldab    byte_8A19
 4038:     AEB5 F7 64C6                        stab    STe_64C6
 4039:     AEB8 D6 51                          ldab    <TpsVolts
 4040:     AEBA F7 64C7                        stab    STe_64C7
 4041:     AEBD F6 8A1B                        ldab    byte_8A1B
 4042:     AEC0 F7 64C8                        stab    STe_64C8
 4043:                                 
 4044:     AEC3                        loc_AEC3:
 4045:     AEC3 DC 46                          ldd     <EngineRpm_HB
 4046:     AEC5 FD 64C1                        std     UNe_64C1
 4047:                                 
 4048:     AEC8                        loc_AEC8:
 4049:     AEC8 13 2F 04 2D                    brclr   <BitFlags2f $04 locret_AEF9
 4050:     AECC 7A 64C8                        dec     STe_64C8
 4051:     AECF 27 25                          beq     loc_AEF6
 4052:     AED1 DC 46                          ldd     <EngineRpm_HB
 4053:     AED3 1AB3 8A17                      cpd     word_8A17
 4054:     AED7 2B 1D                          bmi     loc_AEF6
 4055:     AED9 7A 64C6                        dec     STe_64C6
 4056:     AEDC 26 1B                          bne     locret_AEF9
 4057:     AEDE F6 8A19                        ldab    byte_8A19
 4058:     AEE1 F7 64C6                        stab    STe_64C6
 4059:     AEE4 96 51                          ldaa    <TpsVolts
 4060:     AEE6 F6 64C7                        ldab    STe_64C7
 4061:     AEE9 B7 64C7                        staa    STe_64C7
 4062:     AEEC 10                             sba
 4063:     AEED 2B 0A                          bmi     locret_AEF9
 4064:     AEEF B1 8A1A                        cmpa    byte_8A1A
 4065:     AEF2 2A 02                          bpl     loc_AEF6
 4066:     AEF4 20 03                          bra     locret_AEF9
 4067:                                 
 4068:     AEF6                        loc_AEF6:
 4069:     AEF6 15 2F 04                       bclr    <BitFlags2f $04
 4070:                                 
 4071:     AEF9                        locret_AEF9:
 4072:     AEF9 39                             rts
 4073:                                 
 4074:     AEFA                        sub_AEFA:
 4075:     AEFA 18A3 00                        subd    $00,y
 4076:     AEFD 183C                           pshy
 4077:     AEFF 25 0B                          bcs     loc_AF0C
 4078:     AF01 188F                           xgdy
 4079:     AF03 A6 01                          ldaa    $01,x
 4080:     AF05 BD E60D                        jsr     ScaleYbyA
 4081:     AF08 188F                           xgdy
 4082:     AF0A 20 11                          bra     loc_AF1D
 4083:                                 
 4084:     AF0C                        loc_AF0C:
 4085:     AF0C 40                             nega
 4086:     AF0D 50                             negb
 4087:     AF0E 82 00                          sbca    #$00
 4088:     AF10 188F                           xgdy
 4089:     AF12 A6 00                          ldaa    $00,x
 4090:     AF14 BD E60D                        jsr     ScaleYbyA
 4091:     AF17 188F                           xgdy
 4092:     AF19 40                             nega
 4093:     AF1A 50                             negb
 4094:     AF1B 82 00                          sbca    #$00
 4095:                                 
 4096:     AF1D                        loc_AF1D:
 4097:     AF1D 1838                           puly
 4098:     AF1F 18E3 00                        addd    $00,y
 4099:     AF22 18ED 00                        std     $00,y
 4100:     AF25 39                             rts
 4101:                                 
 4102:                                 ;>>>>>>>>>>>>>>>>MCU eeprom<<<<<<<<<<<<<<<<<<
 4103:                                  IF Data_start == $8000
 4104:                                 
 4105:          =0000B600               ORG MCU_eeprom
 4106:     B600 +0200                   DCB.B $200, $FF
 4107:                                 
 4108:                                  ENDIF
 4109:                                 ;>>>>>>>>>>>>>>>>>>>>><<<<<<<<<<<<<<<<<<<<<<<
 4110:                                 
 4111:     B800                        sub_B800:
 4112:     B800 D6 45                          ldab    <Counter_MainLoop
 4113:     B802 C5 07                          bitb    #$07
 4114:     B804 27 03                          beq     loc_B809
 4115:     B806 7E B87F                        jmp     loc_B87F
 4116:                                 
 4117:     B809                        loc_B809:
 4118:     B809 96 59                          ldaa    <LastCoolantTempVolts
 4119:     B80B CE E537                        ldx     #unk_E537
 4120:     B80E 13 CF 10 21                    brclr   <PIA3_Buffer_t3 $10 loc_B833
 4121:     B812 CE E51C                        ldx     #unk_E51C
 4122:     B815 81 40                          cmpa    #$40
 4123:     B817 24 1E                          bcc     loc_B837
 4124:                                 
 4125:     B819                        loc_B819:
 4126:     B819 12 22 03 07                    brset   <BitFlags66_t3 $03 loc_B824
 4127:     B81D D6 22                          ldab    <BitFlags66_t3
 4128:     B81F CB 01                          addb    #$01
 4129:     B821 D7 22                          stab    <BitFlags66_t3
 4130:     B823 39                             rts
 4131:                                 
 4132:     B824                        loc_B824:
 4133:     B824 0F                             sei
 4134:     B825 15 22 03                       bclr    <BitFlags66_t3 $03
 4135:     B828 D6 CF                          ldab    <PIA3_Buffer_t3
 4136:     B82A C8 10                          eorb    #$10
 4137:     B82C D7 CF                          stab    <PIA3_Buffer_t3
 4138:     B82E F7 6440                        stab    PIA3_Buffer_2_t3
 4139:     B831 0E                             cli
 4140:     B832 39                             rts
 4141:                                 
 4142:     B833                        loc_B833:
 4143:     B833 81 DC                          cmpa    #$DC
 4144:     B835 24 E2                          bcc     loc_B819
 4145:                                 
 4146:     B837                        loc_B837:
 4147:     B837 15 22 03                       bclr    <BitFlags66_t3 $03
 4148:     B83A B1 8A46                        cmpa    byte_8A46
 4149:     B83D 22 24                          bhi     loc_B863
 4150:     B83F B1 8A45                        cmpa    byte_8A45
 4151:     B842 25 24                          bcs     loc_B868
 4152:     B844 13 D5 02 07                    brclr   <b5C_IPL1_t3 $02 loc_B84F
 4153:     B848 86 02                          ldaa    #$02
 4154:     B84A BD D795                        jsr     sub_D795
 4155:     B84D 20 30                          bra     loc_B87F
 4156:                                 
 4157:     B84F                        loc_B84F:
 4158:     B84F BD E655                        jsr     Lookup4ByteTable
 4159:     B852 D6 54                          ldab    <CoolantTemp
 4160:     B854 10                             sba
 4161:     B855 24 03                          bcc     loc_B85A
 4162:     B857 5A                             decb
 4163:     B858 20 05                          bra     loc_B85F
 4164:                                 
 4165:     B85A                        loc_B85A:
 4166:     B85A 81 03                          cmpa    #$03
 4167:     B85C 25 21                          bcs     loc_B87F
 4168:     B85E 5C                             incb
 4169:                                 
 4170:     B85F                        loc_B85F:
 4171:     B85F D7 54                          stab    <CoolantTemp
 4172:     B861 20 1C                          bra     loc_B87F
 4173:                                 
 4174:     B863                        loc_B863:
 4175:     B863 CC 1F9E                        ldd     #$1F9E
 4176:     B866 20 03                          bra     loc_B86B
 4177:                                 
 4178:     B868                        loc_B868:
 4179:     B868 CC 1E9E                        ldd     #$1E9E
 4180:                                 
 4181:     B86B                        loc_B86B:
 4182:     B86B 12 D5 02 10                    brset   <b5C_IPL1_t3 $02 loc_B87F
 4183:     B86F BD D2C9                        jsr     ThrowNonCriticalError
 4184:     B872 24 0B                          bcc     loc_B87F
 4185:     B874 14 D5 02                       bset    <b5C_IPL1_t3 $02
 4186:     B877 B6 8A47                        ldaa    byte_8A47
 4187:     B87A 97 54                          staa    <CoolantTemp
 4188:     B87C 7F 64B4                        clr     Timer_ThermostatDiagnostics
 4189:                                 
 4190:     B87F                        loc_B87F:
 4191:     B87F 96 54                          ldaa    <CoolantTemp
 4192:     B881 CE E546                        ldx     #unk_E546
 4193:     B884 BD E655                        jsr     Lookup4ByteTable
 4194:     B887 97 55                          staa    <CoolantTemp_fromTable_Scaled
 4195:     B889 39                             rts
 4196:                                 
 4197:     B88A                        sub_B88A:
 4198:     B88A D6 45                          ldab    <Counter_MainLoop
 4199:     B88C C5 07                          bitb    #$07
 4200:     B88E 27 03                          beq     loc_B893
 4201:     B890 7E B909                        jmp     loc_B909
 4202:                                 
 4203:     B893                        loc_B893:
 4204:     B893 96 58                          ldaa    <LastChargeTempVolts
 4205:     B895 CE E537                        ldx     #unk_E537
 4206:     B898 13 CF 20 24                    brclr   <PIA3_Buffer_t3 $20 loc_B8C0
 4207:     B89C CE E51C                        ldx     #unk_E51C
 4208:     B89F 81 40                          cmpa    #$40
 4209:     B8A1 24 21                          bcc     loc_B8C4
 4210:                                 
 4211:     B8A3                        loc_B8A3:
 4212:     B8A3 12 23 03 0A                    brset   <BitFlags23 $03 loc_B8B1
 4213:     B8A7 D6 23                          ldab    <BitFlags23
 4214:     B8A9 CB 01                          addb    #$01
 4215:     B8AB D7 23                          stab    <BitFlags23
 4216:     B8AD 96 58                          ldaa    <LastChargeTempVolts
 4217:     B8AF 20 16                          bra     loc_B8C7
 4218:                                 
 4219:     B8B1                        loc_B8B1:
 4220:     B8B1 0F                             sei
 4221:     B8B2 15 23 03                       bclr    <BitFlags23 $03
 4222:     B8B5 D6 CF                          ldab    <PIA3_Buffer_t3
 4223:     B8B7 C8 20                          eorb    #$20
 4224:     B8B9 D7 CF                          stab    <PIA3_Buffer_t3
 4225:     B8BB F7 6440                        stab    PIA3_Buffer_2_t3
 4226:     B8BE 0E                             cli
 4227:     B8BF 39                             rts
 4228:                                 
 4229:     B8C0                        loc_B8C0:
 4230:     B8C0 81 DC                          cmpa    #$DC
 4231:     B8C2 24 DF                          bcc     loc_B8A3
 4232:                                 
 4233:     B8C4                        loc_B8C4:
 4234:     B8C4 15 23 03                       bclr    <BitFlags23 $03
 4235:                                 
 4236:     B8C7                        loc_B8C7:
 4237:     B8C7 B1 8A49                        cmpa    byte_8A49
 4238:     B8CA 22 24                          bhi     loc_B8F0
 4239:     B8CC B1 8A48                        cmpa    byte_8A48
 4240:     B8CF 25 24                          bcs     loc_B8F5
 4241:     B8D1 13 D5 01 07                    brclr   <b5C_IPL1_t3 $01 loc_B8DC
 4242:     B8D5 86 01                          ldaa    #$01
 4243:     B8D7 BD D795                        jsr     sub_D795
 4244:     B8DA 20 2D                          bra     loc_B909
 4245:                                 
 4246:     B8DC                        loc_B8DC:
 4247:     B8DC BD E655                        jsr     Lookup4ByteTable
 4248:     B8DF D6 52                          ldab    <ChargeTempVolts
 4249:     B8E1 10                             sba
 4250:     B8E2 24 03                          bcc     loc_B8E7
 4251:     B8E4 5A                             decb
 4252:     B8E5 20 05                          bra     loc_B8EC
 4253:                                 
 4254:     B8E7                        loc_B8E7:
 4255:     B8E7 81 03                          cmpa    #$03
 4256:     B8E9 25 1E                          bcs     loc_B909
 4257:     B8EB 5C                             incb
 4258:                                 
 4259:     B8EC                        loc_B8EC:
 4260:     B8EC D7 52                          stab    <ChargeTempVolts
 4261:     B8EE 20 19                          bra     loc_B909
 4262:                                 
 4263:     B8F0                        loc_B8F0:
 4264:     B8F0 CC 3A9E                        ldd     #$3A9E
 4265:     B8F3 20 03                          bra     loc_B8F8
 4266:                                 
 4267:     B8F5                        loc_B8F5:
 4268:     B8F5 CC 399E                        ldd     #$399E
 4269:                                 
 4270:     B8F8                        loc_B8F8:
 4271:     B8F8 12 D5 01 0D                    brset   <b5C_IPL1_t3 $01 loc_B909
 4272:     B8FC BD D2C9                        jsr     ThrowNonCriticalError
 4273:     B8FF 24 08                          bcc     loc_B909
 4274:     B901 14 D5 01                       bset    <b5C_IPL1_t3 $01
 4275:     B904 B6 8A4A                        ldaa    byte_8A4A
 4276:     B907 97 52                          staa    <ChargeTempVolts
 4277:                                 
 4278:     B909                        loc_B909:
 4279:     B909 96 52                          ldaa    <ChargeTempVolts
 4280:     B90B CE E587                        ldx     #unk_E587
 4281:     B90E BD E655                        jsr     Lookup4ByteTable
 4282:     B911 97 57                          staa    <IntakeTemp_fromTable_Scaled
 4283:     B913 39                             rts
 4284:                                 
 4285:     B914                        sub_B914:
 4286:     B914 13 24 10 15                    brclr   <BitFlags24 $10 loc_B92D
 4287:     B918 0F                             sei
 4288:     B919 DC 5D                          ldd     <VehicleSpeed_HB
 4289:     B91B 04                             lsrd
 4290:     B91C 04                             lsrd
 4291:     B91D 04                             lsrd
 4292:     B91E 04                             lsrd
 4293:     B91F 04                             lsrd
 4294:     B920 FD 649D                        std     Temp4
 4295:     B923 DC 5D                          ldd     <VehicleSpeed_HB
 4296:     B925 B3 649D                        subd    Temp4
 4297:     B928 DD 5D                          std     <VehicleSpeed_HB
 4298:     B92A 0E                             cli
 4299:     B92B 20 00                          bra     loc_B92D
 4300:                                 
 4301:     B92D                        loc_B92D:
 4302:     B92D 4F                             clra
 4303:     B92E D6 5F                          ldab    <VehicleSpeedx8_Scaled
 4304:     B930 F1 801E                        cmpb    byte_801E
 4305:     B933 24 08                          bcc     loc_B93D
 4306:     B935 DE 46                          ldx     <EngineRpm_HB
 4307:     B937 9C 6D                          cpx     <TargetIdleSpeedHB
 4308:     B939 23 0D                          bls     loc_B948
 4309:     B93B 20 06                          bra     loc_B943
 4310:                                 
 4311:     B93D                        loc_B93D:
 4312:     B93D D6 50                          ldab    <MapValue
 4313:     B93F D1 6B                          cmpb    <MAPOffsetForCylTrim
 4314:     B941 23 05                          bls     loc_B948
 4315:                                 
 4316:     B943                        loc_B943:
 4317:     B943 96 6A                          ldaa    <Timer_CountdownFromStartRunForAisFeedback
 4318:     B945 27 03                          beq     loc_B94A
 4319:     B947 4A                             deca
 4320:                                 
 4321:     B948                        loc_B948:
 4322:     B948 97 6A                          staa    <Timer_CountdownFromStartRunForAisFeedback
 4323:                                 
 4324:     B94A                        loc_B94A:
 4325:     B94A 12 22 80 19                    brset   <BitFlags66_t3 $80 loc_B967
 4326:     B94E DC 5D                          ldd     <VehicleSpeed_HB
 4327:     B950 05                             lsld
 4328:     B951 05                             lsld
 4329:     B952 05                             lsld
 4330:     B953 58                             aslb
 4331:     B954 89 00                          adca    #$00
 4332:     B956 F6 801E                        ldab    byte_801E
 4333:     B959 12 22 04 02                    brset   <BitFlags66_t3 $04 loc_B95F
 4334:     B95D CB 03                          addb    #$03
 4335:                                 
 4336:     B95F                        loc_B95F:
 4337:     B95F 11                             cba
 4338:     B960 25 05                          bcs     loc_B967
 4339:     B962 14 22 04                       bset    <BitFlags66_t3 $04
 4340:     B965 20 03                          bra     loc_B96A
 4341:                                 
 4342:     B967                        loc_B967:
 4343:     B967 15 22 04                       bclr    <BitFlags66_t3 $04
 4344:                                 
 4345:     B96A                        loc_B96A:
 4346:     B96A DC 5D                          ldd     <VehicleSpeed_HB
 4347:     B96C 05                             lsld
 4348:     B96D 05                             lsld
 4349:     B96E 05                             lsld
 4350:     B96F 24 02                          bcc     loc_B973
 4351:     B971 86 FF                          ldaa    #$FF
 4352:                                 
 4353:     B973                        loc_B973:
 4354:     B973 97 5F                          staa    <VehicleSpeedx8_Scaled
 4355:     B975 39                             rts
 4356:                                 
 4357:     B976                        sub_B976:
 4358:     B976 13 20 40 3F                    brclr   <IPL1 $40 locret_B9B9
 4359:     B97A 96 90                          ldaa    <MapValue2
 4360:     B97C 81 80                          cmpa    #$80
 4361:     B97E 25 39                          bcs     locret_B9B9
 4362:     B980 96 46                          ldaa    <EngineRpm_HB
 4363:     B982 CE 8024                        ldx     #unk_8024
 4364:     B985 BD E655                        jsr     Lookup4ByteTable
 4365:     B988 9B 90                          adda    <MapValue2
 4366:     B98A 24 02                          bcc     loc_B98E
 4367:     B98C 86 FF                          ldaa    #$FF
 4368:                                 
 4369:     B98E                        loc_B98E:
 4370:     B98E 91 0D                          cmpa    <BaroPressure
 4371:     B990 23 06                          bls     loc_B998
 4372:     B992 D6 0D                          ldab    <BaroPressure
 4373:     B994 5C                             incb
 4374:     B995 26 1A                          bne     loc_B9B1
 4375:     B997 39                             rts
 4376:                                 
 4377:     B998                        loc_B998:
 4378:     B998 D6 5C                          ldab    <TpsVolts_Minus_LowestSessionTpsVolts
 4379:     B99A F1 8037                        cmpb    byte_8037
 4380:     B99D 25 14                          bcs     loc_B9B3
 4381:     B99F D6 66                          ldab    <TPSVoltsSessionDelta
 4382:     B9A1 F1 8038                        cmpb    byte_8038
 4383:     B9A4 25 0E                          bcs     loc_B9B4
 4384:     B9A6 91 0D                          cmpa    <BaroPressure
 4385:     B9A8 24 0A                          bcc     loc_B9B4
 4386:     B9AA D6 0D                          ldab    <BaroPressure
 4387:     B9AC 5A                             decb
 4388:     B9AD C1 80                          cmpb    #$80
 4389:     B9AF 25 02                          bcs     loc_B9B3
 4390:                                 
 4391:     B9B1                        loc_B9B1:
 4392:     B9B1 D7 0D                          stab    <BaroPressure
 4393:                                 
 4394:     B9B3                        loc_B9B3:
 4395:     B9B3 5F                             clrb
 4396:                                 
 4397:     B9B4                        loc_B9B4:
 4398:     B9B4 5C                             incb
 4399:     B9B5 2B 02                          bmi     locret_B9B9
 4400:     B9B7 D7 66                          stab    <TPSVoltsSessionDelta
 4401:                                 
 4402:     B9B9                        locret_B9B9:
 4403:     B9B9 39                             rts
 4404:                                 
 4405:     B9BA                        sub_B9BA:
 4406:     B9BA 13 61 10 03                    brclr   <StartupSwitchMirror1 $10 loc_B9C1
 4407:     B9BE 15 2A 01                       bclr    <BitFlags2a $01
 4408:                                 
 4409:     B9C1                        loc_B9C1:
 4410:     B9C1 12 27 01 28                    brset   <BitFlags27 $01 loc_B9ED
 4411:     B9C5 D6 25                          ldab    <BitFlags68_t3
 4412:     B9C7 C4 10                          andb    #$10
 4413:     B9C9 F7 649E                        stab    Temp5
 4414:     B9CC D6 61                          ldab    <StartupSwitchMirror1
 4415:     B9CE C4 10                          andb    #$10
 4416:     B9D0 F8 649E                        eorb    Temp5
 4417:     B9D3 27 1B                          beq     locret_B9F0
 4418:     B9D5 D8 25                          eorb    <BitFlags68_t3
 4419:     B9D7 CA 80                          orab    #$80
 4420:     B9D9 D7 25                          stab    <BitFlags68_t3
 4421:     B9DB 15 22 04                       bclr    <BitFlags66_t3 $04
 4422:     B9DE 13 25 10 0E                    brclr   <BitFlags68_t3 $10 locret_B9F0
 4423:     B9E2 14 2F 10                       bset    <BitFlags2f $10
 4424:     B9E5 B6 8A27                        ldaa    byte_8A27
 4425:     B9E8 B7 64C0                        staa    STe_64C0
 4426:     B9EB 20 03                          bra     locret_B9F0
 4427:                                 
 4428:     B9ED                        loc_B9ED:
 4429:     B9ED 15 25 90                       bclr    <BitFlags68_t3 $90
 4430:                                 
 4431:     B9F0                        locret_B9F0:
 4432:     B9F0 39                             rts
 4433:                                 
 4434:     B9F1                        sub_B9F1:
 4435:     B9F1 13 27 80 20                    brclr   <BitFlags27 $80 loc_BA15
 4436:     B9F5 D6 25                          ldab    <BitFlags68_t3
 4437:     B9F7 C4 01                          andb    #$01
 4438:     B9F9 F7 649E                        stab    Temp5
 4439:     B9FC D6 61                          ldab    <StartupSwitchMirror1
 4440:     B9FE C4 01                          andb    #$01
 4441:     BA00 F8 649E                        eorb    Temp5
 4442:     BA03 27 16                          beq     locret_BA1B
 4443:     BA05 D8 25                          eorb    <BitFlags68_t3
 4444:     BA07 12 07 20 06                    brset   <BitFlags36_t3 $20 loc_BA11
 4445:     BA0B 13 20 40 02                    brclr   <IPL1 $40 loc_BA11
 4446:     BA0F CA 02                          orab    #$02
 4447:                                 
 4448:     BA11                        loc_BA11:
 4449:     BA11 D7 25                          stab    <BitFlags68_t3
 4450:     BA13 20 06                          bra     locret_BA1B
 4451:                                 
 4452:     BA15                        loc_BA15:
 4453:     BA15 15 25 02                       bclr    <BitFlags68_t3 $02
 4454:     BA18 14 25 01                       bset    <BitFlags68_t3 $01
 4455:                                 
 4456:     BA1B                        locret_BA1B:
 4457:     BA1B 39                             rts
 4458:                                 
 4459:     BA1C                        sub_BA1C:
 4460:     BA1C 7F 649D                        clr     Temp4
 4461:     BA1F 7F 649C                        clr     Temp3
 4462:     BA22 12 30 04 0D                    brset   <Ram_30 $04 loc_BA33
 4463:     BA26 96 5A                          ldaa    <LastTpsVolts
 4464:     BA28 B1 8A60                        cmpa    byte_8A60
 4465:     BA2B 24 06                          bcc     loc_BA33
 4466:     BA2D 96 30                          ldaa    <Ram_30
 4467:     BA2F 8B 01                          adda    #$01
 4468:     BA31 97 30                          staa    <Ram_30
 4469:                                 
 4470:     BA33                        loc_BA33:
 4471:     BA33 96 D5                          ldaa    <b5C_IPL1_t3
 4472:     BA35 85 88                          bita    #$88
 4473:     BA37 26 4F                          bne     loc_BA88
 4474:     BA39 12 30 08 1A                    brset   <Ram_30 $08 loc_BA57
 4475:     BA3D 96 46                          ldaa    <EngineRpm_HB
 4476:     BA3F B1 8A5E                        cmpa    byte_8A5E
 4477:     BA42 25 1F                          bcs     loc_BA63
 4478:     BA44 96 0D                          ldaa    <BaroPressure
 4479:     BA46 B1 8A63                        cmpa    byte_8A63
 4480:     BA49 24 05                          bcc     loc_BA50
 4481:     BA4B B6 8A62                        ldaa    byte_8A62
 4482:     BA4E 20 03                          bra     loc_BA53
 4483:                                 
 4484:     BA50                        loc_BA50:
 4485:     BA50 B6 8A61                        ldaa    byte_8A61
 4486:                                 
 4487:     BA53                        loc_BA53:
 4488:     BA53 91 4F                          cmpa    <MapVolts
 4489:     BA55 24 0C                          bcc     loc_BA63
 4490:                                 
 4491:     BA57                        loc_BA57:
 4492:     BA57 96 5A                          ldaa    <LastTpsVolts
 4493:     BA59 B1 8A60                        cmpa    byte_8A60
 4494:     BA5C 25 05                          bcs     loc_BA63
 4495:     BA5E 73 649D                        com     Temp4
 4496:     BA61 20 32                          bra     loc_BA95
 4497:                                 
 4498:     BA63                        loc_BA63:
 4499:     BA63 12 2E 08 15                    brset   <BitFlags2e $08 loc_BA7C
 4500:     BA67 96 5F                          ldaa    <VehicleSpeedx8_Scaled
 4501:     BA69 B1 8A5D                        cmpa    byte_8A5D
 4502:     BA6C 25 1A                          bcs     loc_BA88
 4503:     BA6E 96 46                          ldaa    <EngineRpm_HB
 4504:     BA70 B1 8A5E                        cmpa    byte_8A5E
 4505:     BA73 25 13                          bcs     loc_BA88
 4506:     BA75 96 4F                          ldaa    <MapVolts
 4507:     BA77 B1 8A5F                        cmpa    byte_8A5F
 4508:     BA7A 24 0C                          bcc     loc_BA88
 4509:                                 
 4510:     BA7C                        loc_BA7C:
 4511:     BA7C 96 5A                          ldaa    <LastTpsVolts
 4512:     BA7E B1 8A5C                        cmpa    byte_8A5C
 4513:     BA81 24 05                          bcc     loc_BA88
 4514:     BA83 73 649C                        com     Temp3
 4515:     BA86 20 17                          bra     loc_BA9F
 4516:                                 
 4517:     BA88                        loc_BA88:
 4518:     BA88 0F                             sei
 4519:     BA89 96 5A                          ldaa    <LastTpsVolts
 4520:     BA8B B1 8A59                        cmpa    byte_8A59
 4521:     BA8E 25 0F                          bcs     loc_BA9F
 4522:     BA90 B1 8A5A                        cmpa    byte_8A5A
 4523:     BA93 25 49                          bcs     loc_BADE
 4524:                                 
 4525:     BA95                        loc_BA95:
 4526:     BA95 0E                             cli
 4527:     BA96 13 45 01 62                    brclr   <Counter_MainLoop $01 loc_BAFC
 4528:     BA9A CC 1BA0                        ldd     #$1BA0
 4529:     BA9D 20 08                          bra     loc_BAA7
 4530:                                 
 4531:     BA9F                        loc_BA9F:
 4532:     BA9F 0E                             cli
 4533:     BAA0 13 45 01 58                    brclr   <Counter_MainLoop $01 loc_BAFC
 4534:     BAA4 CC 1AA0                        ldd     #$1AA0
 4535:                                 
 4536:     BAA7                        loc_BAA7:
 4537:     BAA7 12 D5 40 1C                    brset   <b5C_IPL1_t3 $40 loc_BAC7
 4538:     BAAB BD D2C9                        jsr     ThrowNonCriticalError
 4539:     BAAE 96 51                          ldaa    <TpsVolts
 4540:     BAB0 24 4A                          bcc     loc_BAFC
 4541:     BAB2 14 D5 40                       bset    <b5C_IPL1_t3 $40
 4542:     BAB5 7D 649D                        tst     Temp4
 4543:     BAB8 27 05                          beq     loc_BABF
 4544:     BABA 14 30 08                       bset    <Ram_30 $08
 4545:     BABD 20 08                          bra     loc_BAC7
 4546:                                 
 4547:     BABF                        loc_BABF:
 4548:     BABF 7D 649C                        tst     Temp3
 4549:     BAC2 27 03                          beq     loc_BAC7
 4550:     BAC4 14 2E 08                       bset    <BitFlags2e $08
 4551:                                 
 4552:     BAC7                        loc_BAC7:
 4553:     BAC7 86 40                          ldaa    #$40
 4554:     BAC9 97 06                          staa    <LowestSessionTpsVolts
 4555:     BACB 13 20 40 0B                    brclr   <IPL1 $40 loc_BADA
 4556:     BACF D6 50                          ldab    <MapValue
 4557:     BAD1 F1 8A5B                        cmpb    byte_8A5B
 4558:     BAD4 25 04                          bcs     loc_BADA
 4559:     BAD6 BB 801F                        adda    byte_801F
 4560:     BAD9 4C                             inca
 4561:                                 
 4562:     BADA                        loc_BADA:
 4563:     BADA 97 51                          staa    <TpsVolts
 4564:     BADC 20 1E                          bra     loc_BAFC
 4565:                                 
 4566:     BADE                        loc_BADE:
 4567:     BADE 13 D5 40 18                    brclr   <b5C_IPL1_t3 $40 loc_BAFA
 4568:     BAE2 0E                             cli
 4569:     BAE3 96 45                          ldaa    <Counter_MainLoop
 4570:     BAE5 85 07                          bita    #$07
 4571:     BAE7 26 DE                          bne     loc_BAC7
 4572:     BAE9 86 07                          ldaa    #$07
 4573:     BAEB BD D795                        jsr     sub_D795
 4574:     BAEE 12 D5 40 D5                    brset   <b5C_IPL1_t3 $40 loc_BAC7
 4575:     BAF2 15 2E 08                       bclr    <BitFlags2e $08
 4576:     BAF5 15 30 08                       bclr    <Ram_30 $08
 4577:     BAF8 20 CD                          bra     loc_BAC7
 4578:                                 
 4579:     BAFA                        loc_BAFA:
 4580:     BAFA 97 51                          staa    <TpsVolts
 4581:                                 
 4582:     BAFC                        loc_BAFC:
 4583:     BAFC 0E                             cli
 4584:     BAFD 12 22 80 25                    brset   <BitFlags66_t3 $80 loc_BB26
 4585:     BB01 D6 6A                          ldab    <Timer_CountdownFromStartRunForAisFeedback
 4586:     BB03 26 21                          bne     loc_BB26
 4587:     BB05 13 20 40 1D                    brclr   <IPL1 $40 loc_BB26
 4588:     BB09 D6 44                          ldab    <KeyOnOrEngineRunningTime
 4589:     BB0B 27 19                          beq     loc_BB26
 4590:     BB0D 91 06                          cmpa    <LowestSessionTpsVolts
 4591:     BB0F 24 15                          bcc     loc_BB26
 4592:     BB11 B6 64A7                        ldaa    Timer_DelayBeforeUpdating_MINTHR
 4593:     BB14 4A                             deca
 4594:     BB15 26 12                          bne     loc_BB29
 4595:     BB17 D6 06                          ldab    <LowestSessionTpsVolts
 4596:     BB19 C1 01                          cmpb    #$01
 4597:     BB1B 24 03                          bcc     loc_BB20
 4598:     BB1D F6 801B                        ldab    byte_801B
 4599:                                 
 4600:     BB20                        loc_BB20:
 4601:     BB20 5A                             decb
 4602:     BB21 D7 06                          stab    <LowestSessionTpsVolts
 4603:     BB23 15 22 10                       bclr    <BitFlags66_t3 $10
 4604:                                 
 4605:     BB26                        loc_BB26:
 4606:     BB26 B6 8018                        ldaa    byte_8018
 4607:                                 
 4608:     BB29                        loc_BB29:
 4609:     BB29 B7 64A7                        staa    Timer_DelayBeforeUpdating_MINTHR
 4610:     BB2C B6 8019                        ldaa    byte_8019
 4611:     BB2F D6 22                          ldab    <BitFlags66_t3
 4612:     BB31 2A 03                          bpl     loc_BB36
 4613:     BB33 B6 801A                        ldaa    byte_801A
 4614:                                 
 4615:     BB36                        loc_BB36:
 4616:     BB36 9B 06                          adda    <LowestSessionTpsVolts
 4617:     BB38 91 51                          cmpa    <TpsVolts
 4618:     BB3A 24 19                          bcc     loc_BB55
 4619:     BB3C 5D                             tstb
 4620:     BB3D 2B 0F                          bmi     loc_BB4E
 4621:     BB3F C5 10                          bitb    #$10
 4622:     BB41 26 0B                          bne     loc_BB4E
 4623:     BB43 96 06                          ldaa    <LowestSessionTpsVolts
 4624:     BB45 4C                             inca
 4625:     BB46 91 51                          cmpa    <TpsVolts
 4626:     BB48 24 04                          bcc     loc_BB4E
 4627:     BB4A 97 06                          staa    <LowestSessionTpsVolts
 4628:     BB4C CA 10                          orab    #$10
 4629:                                 
 4630:     BB4E                        loc_BB4E:
 4631:     BB4E CA 80                          orab    #$80
 4632:     BB50 15 2A 01                       bclr    <BitFlags2a $01
 4633:     BB53 20 1A                          bra     loc_BB6F
 4634:                                 
 4635:     BB55                        loc_BB55:
 4636:     BB55 5D                             tstb
 4637:     BB56 2A 15                          bpl     loc_BB6D
 4638:     BB58 12 25 04 02                    brset   <BitFlags68_t3 $04 loc_BB5E
 4639:     BB5C CA 20                          orab    #$20
 4640:                                 
 4641:     BB5E                        loc_BB5E:
 4642:     BB5E CE 87A9                        ldx     #unk_87A9
 4643:     BB61 96 5F                          ldaa    <VehicleSpeedx8_Scaled
 4644:     BB63 B1 801E                        cmpa    byte_801E
 4645:     BB66 24 01                          bcc     loc_BB69
 4646:     BB68 08                             inx
 4647:                                 
 4648:     BB69                        loc_BB69:
 4649:     BB69 A6 00                          ldaa    $00,x
 4650:     BB6B 97 6A                          staa    <Timer_CountdownFromStartRunForAisFeedback
 4651:                                 
 4652:     BB6D                        loc_BB6D:
 4653:     BB6D C4 7F                          andb    #$7F
 4654:                                 
 4655:     BB6F                        loc_BB6F:
 4656:     BB6F C5 08                          bitb    #$08
 4657:     BB71 26 21                          bne     loc_BB94
 4658:     BB73 13 61 20 1D                    brclr   <StartupSwitchMirror1 $20 loc_BB94
 4659:     BB77 96 46                          ldaa    <EngineRpm_HB
 4660:     BB79 B1 801C                        cmpa    byte_801C
 4661:     BB7C 25 16                          bcs     loc_BB94
 4662:     BB7E 96 50                          ldaa    <MapValue
 4663:     BB80 B1 801D                        cmpa    byte_801D
 4664:     BB83 24 0F                          bcc     loc_BB94
 4665:     BB85 96 06                          ldaa    <LowestSessionTpsVolts
 4666:     BB87 4C                             inca
 4667:     BB88 B1 801B                        cmpa    byte_801B
 4668:     BB8B 25 03                          bcs     loc_BB90
 4669:     BB8D B6 801B                        ldaa    byte_801B
 4670:                                 
 4671:     BB90                        loc_BB90:
 4672:     BB90 97 06                          staa    <LowestSessionTpsVolts
 4673:     BB92 CA 08                          orab    #$08
 4674:                                 
 4675:     BB94                        loc_BB94:
 4676:     BB94 96 06                          ldaa    <LowestSessionTpsVolts
 4677:     BB96 8B 30                          adda    #$30
 4678:     BB98 91 51                          cmpa    <TpsVolts
 4679:     BB9A 24 02                          bcc     loc_BB9E
 4680:     BB9C C4 F7                          andb    #$F7
 4681:                                 
 4682:     BB9E                        loc_BB9E:
 4683:     BB9E D7 22                          stab    <BitFlags66_t3
 4684:     BBA0 96 51                          ldaa    <TpsVolts
 4685:     BBA2 90 06                          suba    <LowestSessionTpsVolts
 4686:     BBA4 24 01                          bcc     loc_BBA7
 4687:     BBA6 4F                             clra
 4688:                                 
 4689:     BBA7                        loc_BBA7:
 4690:     BBA7 97 5C                          staa    <TpsVolts_Minus_LowestSessionTpsVolts
 4691:     BBA9 39                             rts
 4692:                                 
 4693:     BBAA                        sub_BBAA:
 4694:     BBAA 0F                             sei
 4695:     BBAB BD E6AA                        jsr     sub_E6AA
 4696:     BBAE 0E                             cli
 4697:     BBAF FD 6499                        std     Temp0
 4698:     BBB2 F3 64A3                        addd    UNe_64A3
 4699:     BBB5 46                             rora
 4700:     BBB6 56                             rorb
 4701:     BBB7 FD 649B                        std     Temp2
 4702:     BBBA FC 6499                        ldd     Temp0
 4703:     BBBD FD 64A3                        std     UNe_64A3
 4704:     BBC0 DD 46                          std     <EngineRpm_HB
 4705:     BBC2 4F                             clra
 4706:     BBC3 D6 5F                          ldab    <VehicleSpeedx8_Scaled
 4707:     BBC5 FD 649D                        std     Temp4
 4708:     BBC8 F6 649B                        ldab    Temp2
 4709:     BBCB 54                             lsrb
 4710:     BBCC 1B                             aba
 4711:     BBCD 54                             lsrb
 4712:     BBCE 4F                             clra
 4713:     BBCF FE 649D                        ldx     Temp4
 4714:     BBD2 03                             fdiv
 4715:     BBD3 8F                             xgdx
 4716:     BBD4 24 02                          bcc     loc_BBD8
 4717:     BBD6 86 FF                          ldaa    #$FF
 4718:                                 
 4719:     BBD8                        loc_BBD8:
 4720:     BBD8 44                             lsra
 4721:     BBD9 44                             lsra
 4722:     BBDA B7 649D                        staa    Temp4
 4723:     BBDD 96 63                          ldaa    <ScaledDistPWForCruiseControl
 4724:     BBDF 16                             tab
 4725:     BBE0 54                             lsrb
 4726:     BBE1 54                             lsrb
 4727:     BBE2 10                             sba
 4728:     BBE3 BB 649D                        adda    Temp4
 4729:     BBE6 24 02                          bcc     loc_BBEA
 4730:     BBE8 86 FF                          ldaa    #$FF
 4731:                                 
 4732:     BBEA                        loc_BBEA:
 4733:     BBEA 97 63                          staa    <ScaledDistPWForCruiseControl
 4734:     BBEC 39                             rts
 4735:                                 
 4736:     BBED                        sub_BBED:
 4737:     BBED C6 1C                          ldab    #$1C
 4738:                                 
 4739:     BBEF                        loc_BBEF:
 4740:     BBEF C0 02                          subb    #$02
 4741:     BBF1 23 0B                          bls     loc_BBFE
 4742:     BBF3 CE 8037                        ldx     #byte_8037
 4743:     BBF6 3A                             abx
 4744:     BBF7 EE 00                          ldx     $00,x
 4745:     BBF9 9C 46                          cpx     <EngineRpm_HB
 4746:     BBFB 24 F2                          bcc     loc_BBEF
 4747:     BBFD 54                             lsrb
 4748:                                 
 4749:     BBFE                        loc_BBFE:
 4750:     BBFE D7 49                          stab    <RPMTableOffset
 4751:     BC00 39                             rts
 4752:                                 
 4753:     BC01                        sub_BC01:
 4754:     BC01 7F 6499                        clr     Temp0
 4755:     BC04 F6 84D3                        ldab    byte_84D3
 4756:     BC07 96 8E                          ldaa    <MapValueTemp3
 4757:     BC09 3D                             mul
 4758:     BC0A 05                             lsld
 4759:     BC0B 79 6499                        rol     Temp0
 4760:     BC0E 05                             lsld
 4761:     BC0F 79 6499                        rol     Temp0
 4762:     BC12 B7 649A                        staa    Temp1
 4763:     BC15 4F                             clra
 4764:     BC16 F6 84D2                        ldab    byte_84D2
 4765:     BC19 05                             lsld
 4766:     BC1A F3 6499                        addd    Temp0
 4767:     BC1D FD 6499                        std     Temp0
 4768:     BC20 96 49                          ldaa    <RPMTableOffset
 4769:     BC22 F6 84D4                        ldab    byte_84D4
 4770:     BC25 3D                             mul
 4771:     BC26 04                             lsrd
 4772:     BC27 04                             lsrd
 4773:     BC28 F3 6499                        addd    Temp0
 4774:     BC2B 04                             lsrd
 4775:     BC2C 04                             lsrd
 4776:     BC2D 8A 00                          oraa    #$00
 4777:     BC2F 27 02                          beq     loc_BC33
 4778:     BC31 C6 FF                          ldab    #$FF
 4779:                                 
 4780:     BC33                        loc_BC33:
 4781:     BC33 D7 60                          stab    <RPM_Scaled_maybe
 4782:     BC35 39                             rts
 4783:                                 
 4784:     BC36                        sub_BC36:
 4785:     BC36 F6 801F                        ldab    byte_801F
 4786:     BC39 DB 06                          addb    <LowestSessionTpsVolts
 4787:     BC3B 25 05                          bcs     loc_BC42
 4788:     BC3D F1 8020                        cmpb    byte_8020
 4789:     BC40 25 03                          bcs     loc_BC45
 4790:                                 
 4791:     BC42                        loc_BC42:
 4792:     BC42 F6 8020                        ldab    byte_8020
 4793:                                 
 4794:     BC45                        loc_BC45:
 4795:     BC45 13 22 40 02                    brclr   <BitFlags66_t3 $40 loc_BC4B
 4796:     BC49 C0 03                          subb    #$03
 4797:                                 
 4798:     BC4B                        loc_BC4B:
 4799:     BC4B D1 51                          cmpb    <TpsVolts
 4800:     BC4D 24 04                          bcc     loc_BC53
 4801:     BC4F 14 22 40                       bset    <BitFlags66_t3 $40
 4802:     BC52 39                             rts
 4803:                                 
 4804:     BC53                        loc_BC53:
 4805:     BC53 15 22 40                       bclr    <BitFlags66_t3 $40
 4806:     BC56 39                             rts
 4807:                                 
 4808:     BC57                        sub_BC57:
 4809:     BC57 B6 64A8                        ldaa    CoolantVoltsTmp1
 4810:     BC5A F6 64AA                        ldab    CoolantVoltsTmp2
 4811:     BC5D 3D                             mul
 4812:     BC5E FD 649A                        std     Temp1
 4813:     BC61 F6 64A8                        ldab    CoolantVoltsTmp1
 4814:     BC64 F0 64AA                        subb    CoolantVoltsTmp2
 4815:     BC67 23 41                          bls     loc_BCAA
 4816:     BC69 4F                             clra
 4817:     BC6A 8F                             xgdx
 4818:     BC6B FC 649A                        ldd     Temp1
 4819:     BC6E 58                             aslb
 4820:     BC6F 89 00                          adca    #$00
 4821:     BC71 16                             tab
 4822:     BC72 3A                             abx
 4823:     BC73 FC 649A                        ldd     Temp1
 4824:     BC76 02                             idiv
 4825:     BC77 8F                             xgdx
 4826:     BC78 4D                             tsta
 4827:     BC79 26 2F                          bne     loc_BCAA
 4828:     BC7B F7 6499                        stab    Temp0
 4829:     BC7E B6 6499                        ldaa    Temp0
 4830:     BC81 CE E5AA                        ldx     #unk_E5AA
 4831:     BC84 BD E655                        jsr     Lookup4ByteTable
 4832:     BC87 16                             tab
 4833:     BC88 90 67                          suba    <AmbientAirTempVolts2
 4834:     BC8A 24 0E                          bcc     loc_BC9A
 4835:     BC8C 81 F0                          cmpa    #$F0
 4836:     BC8E 22 16                          bhi     loc_BCA6
 4837:     BC90 D6 67                          ldab    <AmbientAirTempVolts2
 4838:     BC92 C0 10                          subb    #$10
 4839:     BC94 24 10                          bcc     loc_BCA6
 4840:     BC96 C6 00                          ldab    #$00
 4841:     BC98 20 0C                          bra     loc_BCA6
 4842:                                 
 4843:     BC9A                        loc_BC9A:
 4844:     BC9A 81 10                          cmpa    #$10
 4845:     BC9C 23 08                          bls     loc_BCA6
 4846:     BC9E D6 67                          ldab    <AmbientAirTempVolts2
 4847:     BCA0 CB 10                          addb    #$10
 4848:     BCA2 24 02                          bcc     loc_BCA6
 4849:     BCA4 C6 FF                          ldab    #$FF
 4850:                                 
 4851:     BCA6                        loc_BCA6:
 4852:     BCA6 D7 67                          stab    <AmbientAirTempVolts2
 4853:     BCA8 20 14                          bra     locret_BCBE
 4854:                                 
 4855:     BCAA                        loc_BCAA:
 4856:     BCAA 12 D5 02 10                    brset   <b5C_IPL1_t3 $02 locret_BCBE
 4857:     BCAE 96 54                          ldaa    <CoolantTemp
 4858:     BCB0 81 C1                          cmpa    #$C1
 4859:     BCB2 24 0A                          bcc     locret_BCBE
 4860:     BCB4 CC 4708                        ldd     #$4708
 4861:     BCB7 BD D2C9                        jsr     ThrowNonCriticalError
 4862:     BCBA 86 C1                          ldaa    #$C1
 4863:     BCBC 97 67                          staa    <AmbientAirTempVolts2
 4864:                                 
 4865:     BCBE                        locret_BCBE:
 4866:     BCBE 39                             rts
 4867:                                 
 4868:     BCBF                        sub_BCBF:
 4869:     BCBF 96 67                          ldaa    <AmbientAirTempVolts2
 4870:     BCC1 F6 8011                        ldab    byte_8011
 4871:     BCC4 C1 02                          cmpb    #$02
 4872:     BCC6 27 09                          beq     loc_BCD1
 4873:     BCC8 C1 01                          cmpb    #$01
 4874:     BCCA 27 0A                          beq     loc_BCD6
 4875:     BCCC CE E5C1                        ldx     #unk_E5C1
 4876:     BCCF 20 08                          bra     loc_BCD9
 4877:                                 
 4878:     BCD1                        loc_BCD1:
 4879:     BCD1 CE E5D4                        ldx     #unk_E5D4
 4880:     BCD4 20 03                          bra     loc_BCD9
 4881:                                 
 4882:                                 
 4883:     BCD6                        loc_BCD6:
 4884:     BCD6 CE E5E7                        ldx     #unk_E5E7
 4885:                                 
 4886:     BCD9                        loc_BCD9:
 4887:     BCD9 BD E655                        jsr     Lookup4ByteTable
 4888:     BCDC 97 64                          staa    <TargetBatteryVolts
 4889:     BCDE 39                             rts
 4890:                                 
 4891:     BCDF                        sub_BCDF:
 4892:     BCDF B6 1032                        ldaa    ADR2_A2DResults2
 4893:     BCE2 D6 65                          ldab    <BodyComputerBatteryVoltsOutput
 4894:     BCE4 CB F8                          addb    #$F8
 4895:     BCE6 25 08                          bcs     loc_BCF0
 4896:     BCE8 53                             comb
 4897:     BCE9 1B                             aba
 4898:     BCEA 24 05                          bcc     locret_BCF1
 4899:     BCEC 86 FF                          ldaa    #$FF
 4900:     BCEE 20 01                          bra     locret_BCF1
 4901:                                 
 4902:     BCF0                        loc_BCF0:
 4903:     BCF0 10                             sba
 4904:                                 
 4905:     BCF1                        locret_BCF1:
 4906:     BCF1 39                             rts
 4907:                                 
 4908:     BCF2                        sub_BCF2:
 4909:     BCF2 12 26 40 3D                    brset   <BitFlags6a_t3 $40 locret_BD33
 4910:     BCF6 B6 103B                        ldaa    PPROG_EEPROMControlReg
 4911:     BCF9 85 02                          bita    #$02
 4912:     BCFB 26 36                          bne     locret_BD33
 4913:     BCFD B6 B7E1                        ldaa    $B7E1
 4914:     BD00 43                             coma
 4915:     BD01 B1 B7E0                        cmpa    $B7E0
 4916:     BD04 27 02                          beq     loc_BD08
 4917:     BD06 86 08                          ldaa    #$08
 4918:                                 
 4919:     BD08                        loc_BD08:
 4920:     BD08 97 65                          staa    <BodyComputerBatteryVoltsOutput
 4921:     BD0A B6 B615                        ldaa    MCU_eeprom + $15
 4922:     BD0D 43                             coma
 4923:     BD0E B1 B614                        cmpa    MCU_eeprom + $14
 4924:     BD11 27 03                          beq     loc_BD16
 4925:     BD13 4F                             clra
 4926:     BD14 20 0C                          bra     loc_BD22
 4927:                                 
 4928:                                 
 4929:     BD16                        loc_BD16:
 4930:     BD16 81 0C                          cmpa    #$0C
 4931:     BD18 2F 02                          ble     loc_BD1C
 4932:     BD1A 86 0C                          ldaa    #$0C
 4933:                                 
 4934:     BD1C                        loc_BD1C:
 4935:     BD1C 81 F4                          cmpa    #$F4
 4936:     BD1E 2C 02                          bge     loc_BD22
 4937:     BD20 86 F4                          ldaa    #$F4
 4938:                                 
 4939:     BD22                        loc_BD22:
 4940:     BD22 97 4B                          staa    <Ram_4B
 4941:     BD24 B6 B7EF                        ldaa    $B7EF
 4942:     BD27 81 55                          cmpa    #$55
 4943:     BD29 26 05                          bne     loc_BD30
 4944:     BD2B 14 26 02                       bset    <BitFlags6a_t3 $02
 4945:     BD2E 20 03                          bra     locret_BD33
 4946:                                 
 4947:     BD30                        loc_BD30:
 4948:     BD30 15 26 02                       bclr    <BitFlags6a_t3 $02
 4949:                                 
 4950:     BD33                        locret_BD33:
 4951:     BD33 39                             rts
 4952:                                 
 4953:     BD34                        sub_BD34:
 4954:     BD34 7F 649D                        clr     Temp4
 4955:     BD37 CE 8083                        ldx     #unk_8083
 4956:     BD3A 96 28                          ldaa    <BitFlags6d_t3
 4957:     BD3C 85 50                          bita    #$50
 4958:     BD3E 26 11                          bne     loc_BD51
 4959:     BD40 96 CC                          ldaa    <Ram_CC
 4960:     BD42 27 06                          beq     loc_BD4A
 4961:     BD44 12 CE 02 09                    brset   <PIA2_Buffer_t3 $02 loc_BD51
 4962:     BD48 20 04                          bra     loc_BD4E
 4963:                                 
 4964:     BD4A                        loc_BD4A:
 4965:     BD4A 13 CE 02 03                    brclr   <PIA2_Buffer_t3 $02 loc_BD51
 4966:                                 
 4967:     BD4E                        loc_BD4E:
 4968:     BD4E CE 811F                        ldx     #unk_811F
 4969:                                 
 4970:     BD51                        loc_BD51:
 4971:     BD51 96 48                          ldaa    <EngineRPM_3D
 4972:     BD53 D6 90                          ldab    <MapValue2
 4973:     BD55 BD E72F                        jsr     sub_E72F
 4974:     BD58 2A 02                          bpl     loc_BD5C
 4975:     BD5A 86 7F                          ldaa    #$7F
 4976:                                 
 4977:     BD5C                        loc_BD5C:
 4978:     BD5C B7 649E                        staa    Temp5
 4979:     BD5F 13 20 10 18                    brclr   <IPL1 $10 loc_BD7B
 4980:     BD63 CE 81BC                        ldx     #unk_81BC
 4981:     BD66 96 48                          ldaa    <EngineRPM_3D
 4982:     BD68 D6 90                          ldab    <MapValue2
 4983:     BD6A BD E72F                        jsr     sub_E72F
 4984:     BD6D 2A 02                          bpl     loc_BD71
 4985:     BD6F 86 7F                          ldaa    #$7F
 4986:                                 
 4987:     BD71                        loc_BD71:
 4988:     BD71 BB 649E                        adda    Temp5
 4989:     BD74 2A 02                          bpl     loc_BD78
 4990:     BD76 86 7F                          ldaa    #$7F
 4991:                                 
 4992:     BD78                        loc_BD78:
 4993:     BD78 B7 649E                        staa    Temp5
 4994:                                 
 4995:     BD7B                        loc_BD7B:
 4996:     BD7B CE 8258                        ldx     #unk_8258
 4997:     BD7E D6 49                          ldab    <RPMTableOffset
 4998:     BD80 3A                             abx
 4999:     BD81 A6 00                          ldaa    $00,x
 5000:     BD83 91 90                          cmpa    <MapValue2
 5001:     BD85 24 45                          bcc     loc_BDCC
 5002:     BD87 14 23 40                       bset    <BitFlags23 $40
 5003:     BD8A CE 8266                        ldx     #unk_8266
 5004:     BD8D 96 55                          ldaa    <CoolantTemp_fromTable_Scaled
 5005:     BD8F BD E68D                        jsr     sub_E68D
 5006:     BD92 C0 20                          subb    #$20
 5007:     BD94 F7 649D                        stab    Temp4
 5008:     BD97 96 57                          ldaa    <IntakeTemp_fromTable_Scaled
 5009:     BD99 CE 826F                        ldx     #unk_826F
 5010:     BD9C BD E68D                        jsr     sub_E68D
 5011:     BD9F C0 20                          subb    #$20
 5012:     BDA1 FB 649D                        addb    Temp4
 5013:     BDA4 28 09                          bvc     loc_BDAF
 5014:     BDA6 C6 80                          ldab    #$80
 5015:     BDA8 7D 649D                        tst     Temp4
 5016:     BDAB 2B 02                          bmi     loc_BDAF
 5017:     BDAD C6 7F                          ldab    #$7F
 5018:                                 
 5019:     BDAF                        loc_BDAF:
 5020:     BDAF F7 649D                        stab    Temp4
 5021:     BDB2 96 0D                          ldaa    <BaroPressure
 5022:     BDB4 B1 8278                        cmpa    byte_8278
 5023:     BDB7 24 16                          bcc     loc_BDCF
 5024:     BDB9 F0 8279                        subb    byte_8279
 5025:     BDBC 28 09                          bvc     loc_BDC7
 5026:     BDBE C6 80                          ldab    #$80
 5027:     BDC0 7D 649D                        tst     Temp4
 5028:     BDC3 2B 02                          bmi     loc_BDC7
 5029:     BDC5 C6 7F                          ldab    #$7F
 5030:                                 
 5031:     BDC7                        loc_BDC7:
 5032:     BDC7 F7 649D                        stab    Temp4
 5033:     BDCA 20 03                          bra     loc_BDCF
 5034:                                 
 5035:                                 
 5036:     BDCC                        loc_BDCC:
 5037:     BDCC 15 23 40                       bclr    <BitFlags23 $40
 5038:                                 
 5039:     BDCF                        loc_BDCF:
 5040:     BDCF BD BF20                        jsr     sub_BF20
 5041:     BDD2 B6 827A                        ldaa    byte_827A
 5042:     BDD5 27 13                          beq     loc_BDEA
 5043:     BDD7 12 22 80 0F                    brset   <BitFlags66_t3 $80 loc_BDEA
 5044:     BDDB D6 5F                          ldab    <VehicleSpeedx8_Scaled
 5045:     BDDD 13 23 10 06                    brclr   <BitFlags23 $10 loc_BDE7
 5046:     BDE1 8B 03                          adda    #$03
 5047:     BDE3 24 02                          bcc     loc_BDE7
 5048:     BDE5 86 FF                          ldaa    #$FF
 5049:                                 
 5050:     BDE7                        loc_BDE7:
 5051:     BDE7 11                             cba
 5052:     BDE8 24 05                          bcc     loc_BDEF
 5053:                                 
 5054:     BDEA                        loc_BDEA:
 5055:     BDEA 15 23 10                       bclr    <BitFlags23 $10
 5056:     BDED 20 03                          bra     loc_BDF2
 5057:                                 
 5058:                                 
 5059:     BDEF                        loc_BDEF:
 5060:     BDEF 14 23 10                       bset    <BitFlags23 $10
 5061:                                 
 5062:     BDF2                        loc_BDF2:
 5063:     BDF2 B6 827A                        ldaa    byte_827A
 5064:     BDF5 27 34                          beq     loc_BE2B
 5065:     BDF7 CE 827C                        ldx     #unk_827C
 5066:     BDFA 96 55                          ldaa    <CoolantTemp_fromTable_Scaled
 5067:     BDFC BD E68D                        jsr     sub_E68D
 5068:     BDFF 13 23 10 0C                    brclr   <BitFlags23 $10 loc_BE0F
 5069:     BE03 FB 827B                        addb    byte_827B
 5070:     BE06 2A 02                          bpl     loc_BE0A
 5071:     BE08 C6 7F                          ldab    #$7F
 5072:                                 
 5073:     BE0A                        loc_BE0A:
 5074:     BE0A F7 649E                        stab    Temp5
 5075:     BE0D 20 1C                          bra     loc_BE2B
 5076:                                 
 5077:     BE0F                        loc_BE0F:
 5078:     BE0F F7 649D                        stab    Temp4
 5079:     BE12 96 50                          ldaa    <MapValue
 5080:     BE14 CE 8285                        ldx     #unk_8285
 5081:     BE17 BD E68D                        jsr     sub_E68D
 5082:     BE1A B6 649D                        ldaa    Temp4
 5083:     BE1D 3D                             mul
 5084:     BE1E 89 00                          adca    #$00
 5085:     BE20 B7 649D                        staa    Temp4
 5086:     BE23 BD BF20                        jsr     sub_BF20
 5087:     BE26 B7 6499                        staa    Temp0
 5088:     BE29 20 63                          bra     loc_BE8E
 5089:                                 
 5090:                                 
 5091:     BE2B                        loc_BE2B:
 5092:     BE2B B6 649E                        ldaa    Temp5
 5093:     BE2E B7 6499                        staa    Temp0
 5094:     BE31 13 20 40 59                    brclr   <IPL1 $40 loc_BE8E
 5095:     BE35 12 22 80 55                    brset   <BitFlags66_t3 $80 loc_BE8E
 5096:     BE39 12 22 04 51                    brset   <BitFlags66_t3 $04 loc_BE8E
 5097:     BE3D D6 6A                          ldab    <Timer_CountdownFromStartRunForAisFeedback
 5098:     BE3F 26 55                          bne     loc_BE96
 5099:     BE41 D6 35                          ldab    <TimerOverflowsBetweenCamPulses
 5100:     BE43 26 51                          bne     loc_BE96
 5101:     BE45 D6 46                          ldab    <EngineRpm_HB
 5102:     BE47 F1 869D                        cmpb    byte_869D
 5103:     BE4A 25 4A                          bcs     loc_BE96
 5104:     BE4C D6 D5                          ldab    <b5C_IPL1_t3
 5105:     BE4E C5 88                          bitb    #$88
 5106:     BE50 26 44                          bne     loc_BE96
 5107:     BE52 D6 54                          ldab    <CoolantTemp
 5108:     BE54 F1 8699                        cmpb    byte_8699
 5109:     BE57 25 3D                          bcs     loc_BE96
 5110:     BE59 DE 44                          ldx     <KeyOnOrEngineRunningTime
 5111:     BE5B BC 869B                        cpx     word_869B
 5112:     BE5E 25 36                          bcs     loc_BE96
 5113:     BE60 CE 86AB                        ldx     #unk_86AB
 5114:     BE63 DC 46                          ldd     <EngineRpm_HB
 5115:     BE65 93 6D                          subd    <TargetIdleSpeedHB
 5116:     BE67 24 05                          bcc     loc_BE6E
 5117:     BE69 CE 86A0                        ldx     #unk_86A0
 5118:     BE6C 43                             coma
 5119:     BE6D 53                             comb
 5120:                                 
 5121:     BE6E                        loc_BE6E:
 5122:     BE6E 04                             lsrd
 5123:     BE6F 04                             lsrd
 5124:     BE70 04                             lsrd
 5125:     BE71 04                             lsrd
 5126:     BE72 24 03                          bcc     loc_BE77
 5127:     BE74 C3 0001                        addd    #$01
 5128:                                 
 5129:     BE77                        loc_BE77:
 5130:     BE77 4D                             tsta
 5131:     BE78 27 02                          beq     loc_BE7C
 5132:     BE7A C6 FF                          ldab    #$FF
 5133:                                 
 5134:     BE7C                        loc_BE7C:
 5135:     BE7C 17                             tba
 5136:     BE7D BD E655                        jsr     Lookup4ByteTable
 5137:     BE80 B7 64AC                        staa    SparkScatter
 5138:     BE83 B7 649D                        staa    Temp4
 5139:     BE86 BD BF20                        jsr     sub_BF20
 5140:     BE89 B7 6499                        staa    Temp0
 5141:     BE8C 20 0E                          bra     loc_BE9C
 5142:                                 
 5143:     BE8E                        loc_BE8E:
 5144:     BE8E 7F 64AC                        clr     SparkScatter
 5145:     BE91 7F 64AB                        clr     SparkScatterIncrement
 5146:     BE94 20 1D                          bra     loc_BEB3
 5147:                                 
 5148:     BE96                        loc_BE96:
 5149:                                 
 5150:     BE96 7F 64AC                        clr     SparkScatter
 5151:     BE99 7F 64AB                        clr     SparkScatterIncrement
 5152:                                 
 5153:     BE9C                        loc_BE9C:
 5154:     BE9C B6 869F                        ldaa    byte_869F
 5155:     BE9F 12 28 08 0B                    brset   <BitFlags6d_t3 $08 loc_BEAE
 5156:     BEA3 12 2A 01 04                    brset   <BitFlags2a $01 loc_BEAB
 5157:     BEA7 13 D5 02 08                    brclr   <b5C_IPL1_t3 $02 loc_BEB3
 5158:                                 
 5159:     BEAB                        loc_BEAB:
 5160:     BEAB B6 869E                        ldaa    byte_869E
 5161:                                 
 5162:     BEAE                        loc_BEAE:
 5163:     BEAE B7 6499                        staa    Temp0
 5164:     BEB1 20 46                          bra     loc_BEF9
 5165:                                 
 5166:     BEB3                        loc_BEB3:
 5167:     BEB3 CC 0000                        ldd     #$0000
 5168:     BEB6 13 2C 08 07                    brclr   <BitFlags2c $08 loc_BEC1
 5169:     BEBA 0F                             sei
 5170:     BEBB 15 2C 08                       bclr    <BitFlags2c $08
 5171:     BEBE 0E                             cli
 5172:     BEBF 20 40                          bra     loc_BF01
 5173:                                 
 5174:                                 
 5175:     BEC1                        loc_BEC1:
 5176:     BEC1 B6 6499                        ldaa    Temp0
 5177:     BEC4 5A                             decb
 5178:     BEC5 D1 4C                          cmpb    <Ram_4C
 5179:     BEC7 27 35                          beq     loc_BEFE
 5180:     BEC9 13 20 01 31                    brclr   <IPL1 $01 loc_BEFE
 5181:     BECD 12 22 80 2D                    brset   <BitFlags66_t3 $80 loc_BEFE
 5182:     BED1 91 4C                          cmpa    <Ram_4C
 5183:     BED3 23 29                          bls     loc_BEFE
 5184:     BED5 96 88                          ldaa    <EngineRpmTemp
 5185:     BED7 90 46                          suba    <EngineRpm_HB
 5186:     BED9 25 05                          bcs     loc_BEE0
 5187:     BEDB B1 8082                        cmpa    byte_8082
 5188:     BEDE 24 19                          bcc     loc_BEF9
 5189:                                 
 5190:     BEE0                        loc_BEE0:
 5191:     BEE0 96 4C                          ldaa    <Ram_4C
 5192:     BEE2 D6 43                          ldab    <CounterUp_43
 5193:     BEE4 F1 8081                        cmpb    byte_8081
 5194:     BEE7 16                             tab
 5195:     BEE8 25 17                          bcs     loc_BF01
 5196:     BEEA 96 4C                          ldaa    <Ram_4C
 5197:     BEEC BB 8080                        adda    byte_8080
 5198:     BEEF 2A 02                          bpl     loc_BEF3
 5199:     BEF1 86 7F                          ldaa    #$7F
 5200:                                 
 5201:     BEF3                        loc_BEF3:
 5202:     BEF3 16                             tab
 5203:     BEF4 B1 6499                        cmpa    Temp0
 5204:     BEF7 25 05                          bcs     loc_BEFE
 5205:                                 
 5206:     BEF9                        loc_BEF9:
 5207:     BEF9 B6 6499                        ldaa    Temp0
 5208:     BEFC C6 FF                          ldab    #$FF
 5209:                                 
 5210:     BEFE                        loc_BEFE:
 5211:     BEFE 7F 0043                        clr     CounterUp_43
 5212:                                 
 5213:     BF01                        loc_BF01:
 5214:     BF01 B7 6499                        staa    Temp0
 5215:     BF04 D7 4C                          stab    <Ram_4C
 5216:     BF06 9B 4B                          adda    <Ram_4B
 5217:     BF08 28 06                          bvc     loc_BF10
 5218:     BF0A 2A 06                          bpl     loc_BF12
 5219:     BF0C 86 7F                          ldaa    #$7F
 5220:     BF0E 20 03                          bra     loc_BF13
 5221:                                 
 5222:     BF10                        loc_BF10:
 5223:     BF10 2A 01                          bpl     loc_BF13
 5224:                                 
 5225:     BF12                        loc_BF12:
 5226:     BF12 4F                             clra
 5227:                                 
 5228:     BF13                        loc_BF13:
 5229:     BF13 F6 6481                        ldab    UNe_6481
 5230:     BF16 C5 02                          bitb    #$02
 5231:     BF18 27 03                          beq     loc_BF1D
 5232:     BF1A B6 6482                        ldaa    UNe_6482
 5233:                                 
 5234:     BF1D                        loc_BF1D:
 5235:     BF1D 97 4A                          staa    <AdvanceTemporary
 5236:     BF1F 39                             rts
 5237:                                 
 5238:     BF20                        sub_BF20:
 5239:     BF20 7D 649D                        tst     Temp4
 5240:     BF23 2A 0B                          bpl     loc_BF30
 5241:     BF25 B6 649D                        ldaa    Temp4
 5242:     BF28 BB 649E                        adda    Temp5
 5243:     BF2B 2A 0D                          bpl     loc_BF3A
 5244:     BF2D 4F                             clra
 5245:     BF2E 20 0A                          bra     loc_BF3A
 5246:                                 
 5247:     BF30                        loc_BF30:
 5248:     BF30 B6 649D                        ldaa    Temp4
 5249:     BF33 BB 649E                        adda    Temp5
 5250:     BF36 2A 02                          bpl     loc_BF3A
 5251:     BF38 86 7F                          ldaa    #$7F
 5252:                                 
 5253:     BF3A                        loc_BF3A:
 5254:     BF3A B7 649E                        staa    Temp5
 5255:     BF3D 39                             rts
 5256:                                 
 5257:     BF3E                        sub_BF3E:
 5258:     BF3E 13 EC 20 4F                    brclr   <Ram_EC $20 locret_BF91
 5259:     BF42 13 05 01 07                    brclr   <Ram_05 $01 loc_BF4D
 5260:     BF46 96 FE                          ldaa    <Ram_FE
 5261:     BF48 B1 842A                        cmpa    byte_842A
 5262:     BF4B 25 44                          bcs     locret_BF91
 5263:                                 
 5264:     BF4D                        loc_BF4D:
 5265:     BF4D 15 EC 20                       bclr    <Ram_EC $20
 5266:     BF50 CE 842B                        ldx     #unk_842B
 5267:     BF53 96 54                          ldaa    <CoolantTemp
 5268:     BF55 BD E655                        jsr     Lookup4ByteTable
 5269:     BF58 5F                             clrb
 5270:     BF59 FD 6499                        std     Temp0
 5271:     BF5C 0F                             sei
 5272:     BF5D FD 640E                        std     InjectorPulsewidth_HB_Cyl4
 5273:     BF60 FD 640C                        std     InjectorPulsewidth_HB_Cyl3
 5274:     BF63 FD 640A                        std     InjectorPulsewidth_HB_Cyl2
 5275:     BF66 FD 6408                        std     InjectorPulsewidth_HB_Cyl1
 5276:     BF69 12 27 80 20                    brset   <BitFlags27 $80 loc_BF8D
 5277:     BF6D CC F060                        ldd     #$F060
 5278:     BF70 BA 1020                        oraa    TCTL1_TimerControlReg1
 5279:     BF73 B7 1020                        staa    TCTL1_TimerControlReg1
 5280:     BF76 F7 100B                        stab    CFORC_TimerForceCompare
 5281:     BF79 FC 100E                        ldd     TCNT_Counter_FreeRunning16bit
 5282:     BF7C F3 6499                        addd    Temp0
 5283:     BF7F FD 1018                        std     TOC2_Counter_OC2
 5284:     BF82 FD 101A                        std     TOC3_Counter_OC3
 5285:     BF85 B6 1020                        ldaa    TCTL1_TimerControlReg1
 5286:     BF88 84 AF                          anda    #$AF
 5287:     BF8A B7 1020                        staa    TCTL1_TimerControlReg1
 5288:                                 
 5289:     BF8D                        loc_BF8D:
 5290:     BF8D 14 EC 40                       bset    <Ram_EC $40
 5291:     BF90 0E                             cli
 5292:                                 
 5293:     BF91                        locret_BF91:
 5294:     BF91 39                             rts
 5295:                                 
 5296:     BF92                        sub_BF92:
 5297:     BF92 96 35                          ldaa    <TimerOverflowsBetweenCamPulses
 5298:     BF94 26 37                          bne     loc_BFCD
 5299:     BF96 FC 807C                        ldd     word_807C
 5300:     BF99 1AB3 82B1                      cpd     word_82B1
 5301:     BF9D 24 03                          bcc     loc_BFA2
 5302:     BF9F FC 82B1                        ldd     word_82B1
 5303:                                 
 5304:     BFA2                        loc_BFA2:
 5305:     BFA2 1A93 36                        cpd     <DistributorFallingEdgePulsewidth_HB
 5306:     BFA5 25 26                          bcs     loc_BFCD
 5307:     BFA7 CE 6400                        ldx     #SwitchPortAccessReg1
 5308:     BFAA 12 20 41 25                    brset   <IPL1 $41 loc_BFD3
 5309:     BFAE 12 23 80 0E                    brset   <BitFlags23 $80 loc_BFC0
 5310:     BFB2 1F 00 20 1D                    brclr   $00,x $20 loc_BFD3
 5311:     BFB6 14 23 80                       bset    <BitFlags23 $80
 5312:     BFB9 B6 807E                        ldaa    byte_807E
 5313:     BFBC 97 7F                          staa    <Ram_7F
 5314:     BFBE 20 16                          bra     locret_BFD6
 5315:                                 
 5316:     BFC0                        loc_BFC0:
 5317:     BFC0 1E 00 20 12                    brset   $00,x $20 locret_BFD6
 5318:     BFC4 96 7F                          ldaa    <Ram_7F
 5319:     BFC6 27 0E                          beq     locret_BFD6
 5320:     BFC8 4A                             deca
 5321:     BFC9 97 7F                          staa    <Ram_7F
 5322:     BFCB 20 09                          bra     locret_BFD6
 5323:                                 
 5324:     BFCD                        loc_BFCD:
 5325:     BFCD 15 20 41                       bclr    <IPL1 $41
 5326:     BFD0 15 23 80                       bclr    <BitFlags23 $80
 5327:                                 
 5328:     BFD3                        loc_BFD3:
 5329:     BFD3 7F 007F                        clr     Ram_7F
 5330:                                 
 5331:     BFD6                        locret_BFD6:
 5332:     BFD6 39                             rts
 5333:                                 
 5334:     BFD7                        sub_BFD7:
 5335:     BFD7 12 20 40 72                    brset   <IPL1 $40 locret_C04D
 5336:     BFDB 96 55                          ldaa    <CoolantTemp_fromTable_Scaled
 5337:     BFDD CE 845D                        ldx     #unk_845D
 5338:     BFE0 BD E68D                        jsr     sub_E68D
 5339:     BFE3 37                             pshb
 5340:     BFE4 96 0D                          ldaa    <BaroPressure
 5341:     BFE6 CE 8466                        ldx     #unk_8466
 5342:     BFE9 BD E68D                        jsr     sub_E68D
 5343:     BFEC 32                             pula
 5344:     BFED 3D                             mul
 5345:     BFEE FD 649B                        std     Temp2
 5346:     BFF1 96 FD                          ldaa    <CounterUp_UsedInCalcFuel
 5347:     BFF3 CE 846F                        ldx     #unk_846F
 5348:     BFF6 BD E655                        jsr     Lookup4ByteTable
 5349:     BFF9 18FE 649B                      ldy     Temp2
 5350:     BFFD BD E60D                        jsr     ScaleYbyA
 5351:     C000 18FF 649D                      sty     Temp4
 5352:     C004 FC 649B                        ldd     Temp2
 5353:     C007 B3 649D                        subd    Temp4
 5354:     C00A FD 649B                        std     Temp2
 5355:     C00D 96 46                          ldaa    <EngineRpm_HB
 5356:     C00F CE 8482                        ldx     #unk_8482
 5357:     C012 BD E655                        jsr     Lookup4ByteTable
 5358:     C015 18FE 649B                      ldy     Temp2
 5359:     C019 BD E60D                        jsr     ScaleYbyA
 5360:     C01C 18FF 649D                      sty     Temp4
 5361:     C020 FC 649B                        ldd     Temp2
 5362:     C023 B3 649D                        subd    Temp4
 5363:     C026 FD 649B                        std     Temp2
 5364:     C029 4F                             clra
 5365:     C02A D6 B1                          ldab    <Ram_B1
 5366:     C02C 05                             lsld
 5367:     C02D 05                             lsld
 5368:     C02E F3 649B                        addd    Temp2
 5369:     C031 24 03                          bcc     loc_C036
 5370:     C033 CC FFFF                        ldd     #$FFFF
 5371:                                 
 5372:     C036                        loc_C036:
 5373:     C036 13 21 02 11                    brclr   <BitFlags21 $02 loc_C04B
 5374:     C03A 188F                           xgdy
 5375:     C03C 96 54                          ldaa    <CoolantTemp
 5376:     C03E B1 8AB7                        cmpa    byte_8AB7
 5377:     C041 24 06                          bcc     loc_C049
 5378:     C043 B6 8AB8                        ldaa    byte_8AB8
 5379:     C046 BD E60D                        jsr     ScaleYbyA
 5380:                                 
 5381:     C049                        loc_C049:
 5382:     C049 188F                           xgdy
 5383:                                 
 5384:     C04B                        loc_C04B:
 5385:     C04B DD 71                          std     <Ram_71
 5386:                                 
 5387:     C04D                        locret_C04D:
 5388:     C04D 39                             rts
 5389:                                 
 5390:     C04E                        sub_C04E:
 5391:     C04E 96 44                          ldaa    <KeyOnOrEngineRunningTime
 5392:     C050 B1 8684                        cmpa    byte_8684
 5393:     C053 25 5B                          bcs     loc_C0B0
 5394:     C055 96 5F                          ldaa    <VehicleSpeedx8_Scaled
 5395:     C057 B1 8685                        cmpa    byte_8685
 5396:     C05A 25 54                          bcs     loc_C0B0
 5397:     C05C 96 54                          ldaa    <CoolantTemp
 5398:     C05E B1 8686                        cmpa    byte_8686
 5399:     C061 25 4D                          bcs     loc_C0B0
 5400:     C063 96 0D                          ldaa    <BaroPressure
 5401:     C065 B1 868B                        cmpa    byte_868B
 5402:     C068 25 46                          bcs     loc_C0B0
 5403:     C06A B6 8681                        ldaa    byte_8681
 5404:     C06D D6 6D                          ldab    <TargetIdleSpeedHB
 5405:     C06F 3D                             mul
 5406:     C070 D3 6D                          addd    <TargetIdleSpeedHB
 5407:     C072 24 03                          bcc     loc_C077
 5408:     C074 CC FFFF                        ldd     #$FFFF
 5409:                                 
 5410:     C077                        loc_C077:
 5411:     C077 1A93 46                        cpd     <EngineRpm_HB
 5412:     C07A 24 34                          bcc     loc_C0B0
 5413:     C07C 13 2C 40 07                    brclr   <BitFlags2c $40 loc_C087
 5414:     C080 BD C109                        jsr     sub_C109
 5415:     C083 12 2C 40 29                    brset   <BitFlags2c $40 loc_C0B0
 5416:                                 
 5417:     C087                        loc_C087:
 5418:     C087 B6 868C                        ldaa    byte_868C
 5419:     C08A 26 06                          bne     loc_C092
 5420:     C08C 13 22 80 27                    brclr   <BitFlags66_t3 $80 loc_C0B7
 5421:     C090 20 1E                          bra     loc_C0B0
 5422:                                 
 5423:     C092                        loc_C092:
 5424:     C092 81 01                          cmpa    #$01
 5425:     C094 26 0A                          bne     loc_C0A0
 5426:     C096 DC 73                          ldd     <Ram_73
 5427:     C098 1AB3 868D                      cpd     word_868D
 5428:     C09C 25 19                          bcs     loc_C0B7
 5429:     C09E 20 10                          bra     loc_C0B0
 5430:                                 
 5431:     C0A0                        loc_C0A0:
 5432:     C0A0 81 02                          cmpa    #$02
 5433:     C0A2 26 0C                          bne     loc_C0B0
 5434:     C0A4 DC 73                          ldd     <Ram_73
 5435:     C0A6 1AB3 868D                      cpd     word_868D
 5436:     C0AA 24 04                          bcc     loc_C0B0
 5437:     C0AC 13 22 80 07                    brclr   <BitFlags66_t3 $80 loc_C0B7
 5438:                                 
 5439:     C0B0                        loc_C0B0:
 5440:     C0B0 B6 8682                        ldaa    byte_8682
 5441:     C0B3 97 7C                          staa    <Counter_E
 5442:     C0B5 20 07                          bra     loc_C0BE
 5443:                                 
 5444:                                 
 5445:     C0B7                        loc_C0B7:
 5446:     C0B7 96 7C                          ldaa    <Counter_E
 5447:     C0B9 26 03                          bne     loc_C0BE
 5448:     C0BB 14 2C C0                       bset    <BitFlags2c $C0
 5449:                                 
 5450:     C0BE                        loc_C0BE:
 5451:     C0BE FC 868F                        ldd     word_868F
 5452:     C0C1 13 2C 02 08                    brclr   <BitFlags2c $02 loc_C0CD
 5453:     C0C5 B3 8691                        subd    word_8691
 5454:     C0C8 24 03                          bcc     loc_C0CD
 5455:     C0CA CC 0000                        ldd     #$0000
 5456:                                 
 5457:     C0CD                        loc_C0CD:
 5458:     C0CD 1A93 46                        cpd     <EngineRpm_HB
 5459:     C0D0 24 17                          bcc     loc_C0E9
 5460:     C0D2 B6 8693                        ldaa    byte_8693
 5461:     C0D5 13 2C 02 07                    brclr   <BitFlags2c $02 loc_C0E0
 5462:     C0D9 B0 8694                        suba    byte_8694
 5463:     C0DC 24 02                          bcc     loc_C0E0
 5464:     C0DE 86 00                          ldaa    #$00
 5465:                                 
 5466:     C0E0                        loc_C0E0:
 5467:     C0E0 91 5F                          cmpa    <VehicleSpeedx8_Scaled
 5468:     C0E2 24 05                          bcc     loc_C0E9
 5469:     C0E4 14 2C 02                       bset    <BitFlags2c $02
 5470:     C0E7 20 03                          bra     loc_C0EC
 5471:                                 
 5472:                                 
 5473:     C0E9                        loc_C0E9:
 5474:     C0E9 15 2C 02                       bclr    <BitFlags2c $02
 5475:                                 
 5476:     C0EC                        loc_C0EC:
 5477:     C0EC FC 8695                        ldd     word_8695
 5478:     C0EF 13 2C 01 08                    brclr   <BitFlags2c $01 loc_C0FB
 5479:     C0F3 B3 8697                        subd    word_8697
 5480:     C0F6 24 03                          bcc     loc_C0FB
 5481:     C0F8 CC 0000                        ldd     #$0000
 5482:                                 
 5483:     C0FB                        loc_C0FB:
 5484:     C0FB 1A93 46                        cpd     <EngineRpm_HB
 5485:     C0FE 24 05                          bcc     loc_C105
 5486:     C100 14 2C 01                       bset    <BitFlags2c $01
 5487:     C103 20 03                          bra     locret_C108
 5488:                                 
 5489:     C105                        loc_C105:
 5490:     C105 15 2C 01                       bclr    <BitFlags2c $01
 5491:                                 
 5492:     C108                        locret_C108:
 5493:     C108 39                             rts
 5494:                                 
 5495:     C109                        sub_C109:
 5496:     C109 7D 00B7                        tst     CounterDn_b7_o2
 5497:     C10C 26 38                          bne     locret_C146
 5498:     C10E 96 46                          ldaa    <EngineRpm_HB
 5499:     C110 91 87                          cmpa    <RpmRelated0087
 5500:     C112 25 32                          bcs     locret_C146
 5501:     C114 DC 73                          ldd     <Ram_73
 5502:     C116 1AB3 8687                      cpd     word_8687
 5503:     C11A 24 02                          bcc     loc_C11E
 5504:     C11C 20 25                          bra     loc_C143
 5505:                                 
 5506:     C11E                        loc_C11E:
 5507:     C11E DE 73                          ldx     <Ram_73
 5508:     C120 B6 8683                        ldaa    byte_8683
 5509:     C123 26 06                          bne     loc_C12B
 5510:     C125 12 22 80 1A                    brset   <BitFlags66_t3 $80 loc_C143
 5511:     C129 20 1B                          bra     locret_C146
 5512:                                 
 5513:     C12B                        loc_C12B:
 5514:     C12B 81 01                          cmpa    #$01
 5515:     C12D 26 07                          bne     loc_C136
 5516:     C12F BC 8689                        cpx     word_8689
 5517:     C132 24 0F                          bcc     loc_C143
 5518:     C134 20 10                          bra     locret_C146
 5519:                                 
 5520:     C136                        loc_C136:
 5521:     C136 81 02                          cmpa    #$02
 5522:     C138 26 09                          bne     loc_C143
 5523:     C13A 13 22 80 08                    brclr   <BitFlags66_t3 $80 locret_C146
 5524:     C13E BC 8689                        cpx     word_8689
 5525:     C141 25 03                          bcs     locret_C146
 5526:                                 
 5527:     C143                        loc_C143:
 5528:     C143 15 2C 40                       bclr    <BitFlags2c $40
 5529:                                 
 5530:     C146                        locret_C146:
 5531:     C146 39                             rts
 5532:                                 
 5533:     C147                        sub_C147:
 5534:     C147 CE 84EE                        ldx     #unk_84EE
 5535:     C14A DC 46                          ldd     <EngineRpm_HB
 5536:     C14C 58                             aslb
 5537:     C14D 89 00                          adca    #$00
 5538:     C14F BD E655                        jsr     Lookup4ByteTable
 5539:     C152 B7 6499                        staa    Temp0
 5540:     C155 D6 50                          ldab    <MapValue
 5541:     C157 CE 850D                        ldx     #unk_850D
 5542:     C15A BD E72F                        jsr     sub_E72F
 5543:     C15D 97 B2                          staa    <o2LowLimitForInMiddleDetermination
 5544:     C15F B6 6499                        ldaa    Temp0
 5545:     C162 D6 50                          ldab    <MapValue
 5546:     C164 CE 85A9                        ldx     #unk_85A9
 5547:     C167 BD E72F                        jsr     sub_E72F
 5548:     C16A B7 649A                        staa    Temp1
 5549:     C16D 13 29 08 10                    brclr   <BitFlags29 $08 loc_C181
 5550:     C171 B6 6499                        ldaa    Temp0
 5551:     C174 D6 50                          ldab    <MapValue
 5552:     C176 CE 8ABA                        ldx     #unk_8ABA
 5553:     C179 BD E72F                        jsr     sub_E72F
 5554:     C17C 16                             tab
 5555:     C17D B6 649A                        ldaa    Temp1
 5556:     C180 10                             sba
 5557:                                 
 5558:     C181                        loc_C181:
 5559:     C181 97 B3                          staa    <o2HighLimitForInMiddleDetermination
 5560:     C183 39                             rts
 5561:                                 
 5562:     C184                        sub_C184:
 5563:     C184 96 54                          ldaa    <CoolantTemp
 5564:     C186 B1 8671                        cmpa    byte_8671
 5565:     C189 24 09                          bcc     loc_C194
 5566:     C18B CC 0000                        ldd     #$0000
 5567:     C18E 97 82                          staa    <Ram_82
 5568:     C190 DD 7D                          std     <Counter_F_HB
 5569:     C192 20 5C                          bra     locret_C1F0
 5570:                                 
 5571:     C194                        loc_C194:
 5572:     C194 D6 88                          ldab    <EngineRpmTemp
 5573:     C196 F1 8672                        cmpb    byte_8672
 5574:     C199 25 04                          bcs     loc_C19F
 5575:     C19B 12 22 40 1F                    brset   <BitFlags66_t3 $40 loc_C1BE
 5576:                                 
 5577:     C19F                        loc_C19F:
 5578:     C19F 96 88                          ldaa    <EngineRpmTemp
 5579:     C1A1 D6 60                          ldab    <RPM_Scaled_maybe
 5580:     C1A3 B1 8676                        cmpa    byte_8676
 5581:     C1A6 23 05                          bls     loc_C1AD
 5582:     C1A8 F1 8677                        cmpb    byte_8677
 5583:     C1AB 22 05                          bhi     loc_C1B2
 5584:                                 
 5585:     C1AD                        loc_C1AD:
 5586:     C1AD 7F 0082                        clr     Ram_82
 5587:     C1B0 20 05                          bra     loc_C1B7
 5588:                                 
 5589:     C1B2                        loc_C1B2:
 5590:     C1B2 B6 8678                        ldaa    byte_8678
 5591:     C1B5 97 82                          staa    <Ram_82
 5592:                                 
 5593:     C1B7                        loc_C1B7:
 5594:     C1B7 CC 0000                        ldd     #$0000
 5595:     C1BA DD 7D                          std     <Counter_F_HB
 5596:     C1BC 20 32                          bra     locret_C1F0
 5597:                                 
 5598:     C1BE                        loc_C1BE:
 5599:     C1BE 96 88                          ldaa    <EngineRpmTemp
 5600:     C1C0 B1 8673                        cmpa    byte_8673
 5601:     C1C3 22 18                          bhi     loc_C1DD
 5602:     C1C5 D6 82                          ldab    <Ram_82
 5603:     C1C7 B1 867B                        cmpa    byte_867B
 5604:     C1CA 25 05                          bcs     loc_C1D1
 5605:     C1CC F1 8674                        cmpb    byte_8674
 5606:     C1CF 27 0A                          beq     loc_C1DB
 5607:                                 
 5608:     C1D1                        loc_C1D1:
 5609:     C1D1 B6 8675                        ldaa    byte_8675
 5610:     C1D4 97 82                          staa    <Ram_82
 5611:     C1D6 CC 0000                        ldd     #$0000
 5612:     C1D9 DD 7D                          std     <Counter_F_HB
 5613:                                 
 5614:     C1DB                        loc_C1DB:
 5615:     C1DB 20 13                          bra locret_C1F0
 5616:                                 
 5617:     C1DD                        loc_C1DD:
 5618:     C1DD DE 7D                          ldx     <Counter_F_HB
 5619:     C1DF BC 8679                        cpx     word_8679
 5620:     C1E2 24 07                          bcc     loc_C1EB
 5621:     C1E4 B6 8675                        ldaa    byte_8675
 5622:     C1E7 97 82                          staa    <Ram_82
 5623:     C1E9 20 05                          bra     locret_C1F0
 5624:                                 
 5625:     C1EB                        loc_C1EB:
 5626:     C1EB B6 8674                        ldaa    byte_8674
 5627:     C1EE 97 82                          staa    <Ram_82
 5628:                                 
 5629:     C1F0                        locret_C1F0:
 5630:     C1F0 39                             rts
 5631:                                 
 5632:     C1F1                        sub_C1F1:
 5633:     C1F1 0F                             sei
 5634:     C1F2 96 8C                          ldaa    <MapValueTemp2
 5635:     C1F4 97 9D                          staa    <Ram_9D
 5636:     C1F6 96 50                          ldaa    <MapValue
 5637:     C1F8 97 9E                          staa    <Ram_9E
 5638:     C1FA DC 36                          ldd     <DistributorFallingEdgePulsewidth_HB
 5639:     C1FC 05                             lsld
 5640:     C1FD 05                             lsld
 5641:     C1FE DD 9F                          std     <Ram_9F
 5642:     C200 96 83                          ldaa    <Counter_O2SensorFeedbackCount_Signed
 5643:     C202 97 A2                          staa    <Ram_A2
 5644:     C204 96 29                          ldaa    <BitFlags29
 5645:     C206 98 A1                          eora    <Ram_A1
 5646:     C208 84 80                          anda    #$80
 5647:     C20A 27 05                          beq     loc_C211
 5648:     C20C 14 29 01                       bset    <BitFlags29 $01
 5649:     C20F 20 03                          bra     loc_C214
 5650:                                 
 5651:     C211                        loc_C211:
 5652:     C211 15 29 01                       bclr    <BitFlags29 $01
 5653:                                 
 5654:     C214                        loc_C214:
 5655:     C214 96 29                          ldaa    <BitFlags29
 5656:     C216 97 A1                          staa    <Ram_A1
 5657:     C218 0E                             cli
 5658:     C219 D6 0B                          ldab    <Ram_0B
 5659:     C21B F1 866E                        cmpb    byte_866E
 5660:     C21E 25 05                          bcs     loc_C225
 5661:     C220 F1 866D                        cmpb    byte_866D
 5662:     C223 23 06                          bls     loc_C22B
 5663:                                 
 5664:     C225                        loc_C225:
 5665:     C225 86 80                          ldaa    #$80
 5666:     C227 97 0B                          staa    <Ram_0B
 5667:     C229 97 0A                          staa    <ValueFromAdaptiveMemory
 5668:                                 
 5669:     C22B                        loc_C22B:
 5670:     C22B 13 A1 40 55                    brclr   <Ram_A1 $40 loc_C284
 5671:     C22F 96 9D                          ldaa    <Ram_9D
 5672:     C231 90 9E                          suba    <Ram_9E
 5673:     C233 24 01                          bcc     loc_C236
 5674:     C235 40                             nega
 5675:                                 
 5676:     C236                        loc_C236:
 5677:     C236 B1 865D                        cmpa    byte_865D
 5678:     C239 24 49                          bcc     loc_C284
 5679:     C23B 96 54                          ldaa    <CoolantTemp
 5680:     C23D B1 865C                        cmpa    byte_865C
 5681:     C240 25 42                          bcs     loc_C284
 5682:     C242 96 9F                          ldaa    <Ram_9F
 5683:     C244 B1 8660                        cmpa    byte_8660
 5684:     C247 24 25                          bcc     loc_C26E
 5685:     C249 B1 865F                        cmpa    byte_865F
 5686:     C24C 24 36                          bcc     loc_C284
 5687:     C24E B1 865E                        cmpa    byte_865E
 5688:     C251 25 31                          bcs     loc_C284
 5689:     C253 96 9E                          ldaa    <Ram_9E
 5690:     C255 B1 8662                        cmpa    byte_8662
 5691:     C258 25 0F                          bcs     loc_C269
 5692:     C25A CE 8663                        ldx     #unk_8663
 5693:     C25D 12 2C 20 25                    brset   <BitFlags2c $20 loc_C286
 5694:     C261 14 2C 20                       bset    <BitFlags2c $20
 5695:     C264 15 2C 10                       bclr    <BitFlags2c $10
 5696:     C267 20 12                          bra     loc_C27B
 5697:                                 
 5698:     C269                        loc_C269:
 5699:     C269 B1 8661                        cmpa    byte_8661
 5700:     C26C 24 16                          bcc     loc_C284
 5701:                                 
 5702:     C26E                        loc_C26E:
 5703:     C26E CE 8668                        ldx     #unk_8668
 5704:     C271 12 2C 10 11                    brset   <BitFlags2c $10 loc_C286
 5705:     C275 14 2C 10                       bset    <BitFlags2c $10
 5706:     C278 15 2C 20                       bclr    <BitFlags2c $20
 5707:                                 
 5708:     C27B                        loc_C27B:
 5709:     C27B 4F                             clra
 5710:     C27C 5F                             clrb
 5711:     C27D DD 9B                          std     <Ram_9B
 5712:     C27F A6 00                          ldaa    $00,x
 5713:     C281 97 99                          staa    <Ram_99
 5714:                                 
 5715:     C283                        locret_C283:
 5716:     C283 39                             rts
 5717:                                 
 5718:     C284                        loc_C284:
 5719:     C284 20 5C                          bra     loc_C2E2
 5720:                                 
 5721:     C286                        loc_C286:
 5722:     C286 13 A1 01 F9                    brclr   <Ram_A1 $01 locret_C283
 5723:     C28A 4F                             clra
 5724:     C28B B7 6499                        staa    Temp0
 5725:     C28E D6 A2                          ldab    <Ram_A2
 5726:     C290 D3 9B                          addd    <Ram_9B
 5727:     C292 DD 9B                          std     <Ram_9B
 5728:     C294 7A 0099                        dec     Ram_99
 5729:     C297 26 EA                          bne     locret_C283
 5730:     C299 A3 01                          subd    $0001,x
 5731:     C29B 25 07                          bcs     loc_C2A4
 5732:     C29D A3 03                          subd    $0003,x
 5733:     C29F 25 41                          bcs     loc_C2E2
 5734:     C2A1 7C 6499                        inc     Temp0
 5735:                                 
 5736:     C2A4                        loc_C2A4:
 5737:     C2A4 12 2C 20 1C                    brset   <BitFlags2c $20 loc_C2C4
 5738:     C2A8 96 9A                          ldaa    <Ram_9A
 5739:     C2AA 27 36                          beq     loc_C2E2
 5740:     C2AC 4A                             deca
 5741:     C2AD 97 9A                          staa    <Ram_9A
 5742:     C2AF 96 0A                          ldaa    <ValueFromAdaptiveMemory
 5743:     C2B1 F6 6499                        ldab    Temp0
 5744:     C2B4 27 05                          beq     loc_C2BB
 5745:     C2B6 BB 866F                        adda    byte_866F
 5746:     C2B9 20 03                          bra     loc_C2BE
 5747:                                 
 5748:     C2BB                        loc_C2BB:
 5749:     C2BB B0 866F                        suba    byte_866F
 5750:                                 
 5751:     C2BE                        loc_C2BE:
 5752:     C2BE 25 22                          bcs     loc_C2E2
 5753:     C2C0 97 0A                          staa    <ValueFromAdaptiveMemory
 5754:     C2C2 20 1E                          bra     loc_C2E2
 5755:                                 
 5756:     C2C4                        loc_C2C4:
 5757:     C2C4 96 0B                          ldaa    <Ram_0B
 5758:     C2C6 F6 6499                        ldab    Temp0
 5759:     C2C9 27 02                          beq     loc_C2CD
 5760:     C2CB 4C                             inca
 5761:     C2CC 4C                             inca
 5762:                                 
 5763:     C2CD                        loc_C2CD:
 5764:     C2CD 4A                             deca
 5765:     C2CE F6 866D                        ldab    byte_866D
 5766:     C2D1 11                             cba
 5767:     C2D2 24 07                          bcc     loc_C2DB
 5768:     C2D4 F6 866E                        ldab    byte_866E
 5769:     C2D7 11                             cba
 5770:     C2D8 25 01                          bcs     loc_C2DB
 5771:     C2DA 16                             tab
 5772:                                 
 5773:     C2DB                        loc_C2DB:
 5774:     C2DB D7 0B                          stab    <Ram_0B
 5775:     C2DD B6 8670                        ldaa    byte_8670
 5776:     C2E0 97 9A                          staa    <Ram_9A
 5777:                                 
 5778:     C2E2                        loc_C2E2:
 5779:     C2E2 15 2C 30                       bclr    <BitFlags2c $30
 5780:     C2E5 39                             rts
 5781:                                 
 5782:     C2E6                        sub_C2E6:
 5783:     C2E6 96 50                          ldaa    <MapValue
 5784:     C2E8 F6 864E                        ldab    byte_864E
 5785:     C2EB 3D                             mul
 5786:     C2EC C6 FF                          ldab    #$FF
 5787:     C2EE D0 0D                          subb    <BaroPressure
 5788:     C2F0 3D                             mul
 5789:     C2F1 04                             lsrd
 5790:     C2F2 04                             lsrd
 5791:     C2F3 04                             lsrd
 5792:     C2F4 04                             lsrd
 5793:     C2F5 DD AF                          std     <MAPLoadFactor
 5794:     C2F7 39                             rts
 5795:                                 
 5796:     C2F8                        sub_C2F8:
 5797:     C2F8 DE 77                          ldx     <Counter_A_HB
 5798:     C2FA 27 03                          beq     loc_C2FF
 5799:     C2FC 09                             dex
 5800:     C2FD DF 77                          stx     <Counter_A_HB
 5801:                                 
 5802:     C2FF                        loc_C2FF:
 5803:     C2FF 96 79                          ldaa    <Counter_B
 5804:     C301 27 03                          beq     loc_C306
 5805:     C303 4A                             deca
 5806:     C304 97 79                          staa    <Counter_B
 5807:                                 
 5808:     C306                        loc_C306:
 5809:     C306 96 7A                          ldaa    <Counter_C
 5810:     C308 27 03                          beq     loc_C30D
 5811:     C30A 4A                             deca
 5812:     C30B 97 7A                          staa    <Counter_C
 5813:                                 
 5814:     C30D                        loc_C30D:
 5815:     C30D 13 20 40 1C                    brclr   <IPL1 $40 loc_C32D
 5816:     C311 12 2C 04 0E                    brset   <BitFlags2c $04 loc_C323
 5817:     C315 96 BF                          ldaa    <Counter_X
 5818:     C317 27 05                          beq     loc_C31E
 5819:     C319 4A                             deca
 5820:     C31A 97 BF                          staa    <Counter_X
 5821:     C31C 26 0F                          bne     loc_C32D
 5822:                                 
 5823:     C31E                        loc_C31E:
 5824:     C31E 0F                             sei
 5825:     C31F 14 2C 04                       bset    <BitFlags2c $04
 5826:     C322 0E                             cli
 5827:                                 
 5828:     C323                        loc_C323:
 5829:     C323 96 56                          ldaa    <PreviousCoolantTemp_fromTable_Scaled
 5830:     C325 CE 84E2                        ldx     #unk_84E2
 5831:     C328 BD E68D                        jsr     sub_E68D
 5832:     C32B D7 BF                          stab    <Counter_X
 5833:                                 
 5834:     C32D                        loc_C32D:
 5835:     C32D 96 7B                          ldaa    <Counter_D
 5836:     C32F 4C                             inca
 5837:     C330 27 02                          beq     loc_C334
 5838:     C332 97 7B                          staa    <Counter_D
 5839:                                 
 5840:     C334                        loc_C334:
 5841:     C334 96 7C                          ldaa    <Counter_E
 5842:     C336 27 03                          beq     loc_C33B
 5843:     C338 4A                             deca
 5844:     C339 97 7C                          staa    <Counter_E
 5845:                                 
 5846:     C33B                        loc_C33B:
 5847:     C33B DE 7D                          ldx     <Counter_F_HB
 5848:     C33D 08                             inx
 5849:     C33E 27 02                          beq     locret_C342
 5850:     C340 DF 7D                          stx     <Counter_F_HB
 5851:                                 
 5852:     C342                        locret_C342:
 5853:     C342 39                             rts
 5854:                                 
 5855:     C343                        sub_C343:
 5856:     C343 96 57                          ldaa    <IntakeTemp_fromTable_Scaled
 5857:     C345 CE 8421                        ldx     #unk_8421
 5858:     C348 BD E68D                        jsr     sub_E68D
 5859:     C34B D7 81                          stab    <Ram_81
 5860:     C34D 96 55                          ldaa    <CoolantTemp_fromTable_Scaled
 5861:     C34F 12 20 40 38                    brset   <IPL1 $40 loc_C38B
 5862:     C353 96 56                          ldaa    <PreviousCoolantTemp_fromTable_Scaled
 5863:     C355 CE 84E2                        ldx     #unk_84E2
 5864:     C358 BD E68D                        jsr     sub_E68D
 5865:     C35B D7 BF                          stab    <Counter_X
 5866:     C35D 96 55                          ldaa    <CoolantTemp_fromTable_Scaled
 5867:     C35F CE 83FD                        ldx     #unk_83FD
 5868:     C362 BD E68D                        jsr     sub_E68D
 5869:     C365 17                             tba
 5870:     C366 13 21 02 0D                    brclr   <BitFlags21 $02 loc_C377
 5871:     C36A D6 54                          ldab    <CoolantTemp
 5872:     C36C F1 8AB7                        cmpb    byte_8AB7
 5873:     C36F 24 06                          bcc     loc_C377
 5874:     C371 F6 8AB9                        ldab    byte_8AB9
 5875:     C374 3D                             mul
 5876:     C375 89 00                          adca    #$00
 5877:                                 
 5878:     C377                        loc_C377:
 5879:     C377 97 BD                          staa    <Ram_BD
 5880:     C379 96 55                          ldaa    <CoolantTemp_fromTable_Scaled
 5881:     C37B CE 84B5                        ldx     #unk_84B5
 5882:     C37E BD E68D                        jsr     sub_E68D
 5883:     C381 17                             tba
 5884:     C382 5F                             clrb
 5885:     C383 04                             lsrd
 5886:     C384 04                             lsrd
 5887:     C385 04                             lsrd
 5888:     C386 04                             lsrd
 5889:     C387 DD 77                          std     <Counter_A_HB
 5890:     C389 96 55                          ldaa    <CoolantTemp_fromTable_Scaled
 5891:                                 
 5892:     C38B                        loc_C38B:
 5893:     C38B CE 8406                        ldx     #unk_8406
 5894:     C38E BD E68D                        jsr     sub_E68D
 5895:     C391 D7 BE                          stab    <Ram_BE
 5896:     C393 CE 83EB                        ldx     #unk_83EB
 5897:     C396 BD E68D                        jsr     sub_E68D
 5898:     C399 D7 A3                          stab    <Ram_A3
 5899:     C39B CE 84BE                        ldx     #unk_84BE
 5900:     C39E BD E68D                        jsr     sub_E68D
 5901:     C3A1 D7 A6                          stab    <Ram_A6
 5902:     C3A3 CE 83F4                        ldx     #unk_83F4
 5903:     C3A6 BD E68D                        jsr     sub_E68D
 5904:     C3A9 D7 A9                          stab    <Ram_A9
 5905:     C3AB CE 84A3                        ldx     #unk_84A3
 5906:     C3AE BD E68D                        jsr     sub_E68D
 5907:     C3B1 D7 92                          stab    <MapAverageFactorRAM_LB
 5908:     C3B3 CE 849A                        ldx     #unk_849A
 5909:     C3B6 BD E68D                        jsr     sub_E68D
 5910:     C3B9 D7 93                          stab    <TPSAverageFactorRAM_HB
 5911:     C3BB CE 84AC                        ldx     #unk_84AC
 5912:     C3BE BD E68D                        jsr     sub_E68D
 5913:     C3C1 D7 94                          stab    <TPSAverageFactorRAM_LB
 5914:     C3C3 CE 84C7                        ldx     #unk_84C7
 5915:     C3C6 BD E68D                        jsr     sub_E68D
 5916:     C3C9 D7 AC                          stab    <Ram_AC
 5917:     C3CB 96 5B                          ldaa    <BatteryVolts
 5918:     C3CD CE 843E                        ldx     #unk_843E
 5919:     C3D0 BD E655                        jsr     Lookup4ByteTable
 5920:     C3D3 D7 B1                          stab    <Ram_B1
 5921:     C3D5 96 5B                          ldaa    <BatteryVolts
 5922:     C3D7 CE E5FA                        ldx     #unk_E5FA
 5923:     C3DA BD E655                        jsr     Lookup4ByteTable
 5924:     C3DD F7 64A5                        stab    CalculatedDwellTime
 5925:     C3E0 39                             rts
 5926:                                 
 5927:     C3E1                        sub_C3E1:
 5928:     C3E1 96 35                          ldaa    <TimerOverflowsBetweenCamPulses
 5929:     C3E3 26 08                          bne     loc_C3ED
 5930:     C3E5 FC 82AF                        ldd     word_82AF
 5931:     C3E8 1A93 36                        cpd     <DistributorFallingEdgePulsewidth_HB
 5932:     C3EB 24 05                          bcc     loc_C3F2
 5933:                                 
 5934:     C3ED                        loc_C3ED:
 5935:     C3ED 14 29 02                       bset    <BitFlags29 $02
 5936:     C3F0 20 0A                          bra     loc_C3FC
 5937:                                 
 5938:     C3F2                        loc_C3F2:
 5939:     C3F2 DC 46                          ldd     <EngineRpm_HB
 5940:     C3F4 1A93 6D                        cpd     <TargetIdleSpeedHB
 5941:     C3F7 25 03                          bcs     loc_C3FC
 5942:     C3F9 15 29 02                       bclr    <BitFlags29 $02
 5943:                                 
 5944:     C3FC                        loc_C3FC:
 5945:     C3FC 13 29 02 0F                    brclr   <BitFlags29 $02 loc_C40F
 5946:     C400 5F                             clrb
 5947:     C401 96 50                          ldaa    <MapValue
 5948:     C403 DD 8C                          std     <MapValueTemp2
 5949:     C405 96 46                          ldaa    <EngineRpm_HB
 5950:     C407 DD 88                          std     <EngineRpmTemp
 5951:     C409 96 51                          ldaa    <TpsVolts
 5952:     C40B DD 97                          std     <TPSVoltsTemp_B
 5953:     C40D 20 2D                          bra     loc_C43C
 5954:                                 
 5955:     C40F                        loc_C40F:
 5956:     C40F CE 0093                        ldx     #TPSAverageFactorRAM_HB
 5957:     C412 96 8C                          ldaa    <MapValueTemp2
 5958:     C414 90 50                          suba    <MapValue
 5959:     C416 24 03                          bcc     loc_C41B
 5960:     C418 CE 8655                        ldx     #byte_8655
 5961:                                 
 5962:     C41B                        loc_C41B:
 5963:     C41B 18CE 008C                      ldy     #$008C
 5964:     C41F 96 50                          ldaa    <MapValue
 5965:     C421 BD E7B3                        jsr     sub_E7B3
 5966:     C424 CE 84D5                        ldx     #unk_84D5
 5967:     C427 18CE 0088                      ldy     #$0088
 5968:     C42B 96 46                          ldaa    <EngineRpm_HB
 5969:     C42D BD E7B3                        jsr     sub_E7B3
 5970:     C430 CE 865A                        ldx     #unk_865A
 5971:     C433 18CE 0097                      ldy     #$0097
 5972:     C437 96 51                          ldaa    <TpsVolts
 5973:     C439 BD E7B3                        jsr     sub_E7B3
 5974:                                 
 5975:     C43C                        loc_C43C:
 5976:     C43C CE 84D0                        ldx     #unk_84D0
 5977:     C43F 18CE 008E                      ldy     #$008E
 5978:     C443 96 50                          ldaa    <MapValue
 5979:     C445 BD E7B3                        jsr     sub_E7B3
 5980:     C448 39                             rts
 5981:                                 
 5982:     C449                        sub_C449:
 5983:     C449 CE 864F                        ldx     #unk_864F
 5984:     C44C 96 8A                          ldaa    <MapValueTemp1
 5985:     C44E 91 50                          cmpa    <MapValue
 5986:     C450 24 03                          bcc     loc_C455
 5987:     C452 CE 0091                        ldx     #MapAverageFactorRAM_HB
 5988:                                 
 5989:     C455                        loc_C455:
 5990:     C455 18CE 008A                      ldy     #$008A
 5991:     C459 96 50                          ldaa    <MapValue
 5992:     C45B BD E7B3                        jsr     sub_E7B3
 5993:     C45E CE 8653                        ldx     #unk_8653
 5994:     C461 96 95                          ldaa    <TPSVoltsTemp_A
 5995:     C463 91 51                          cmpa    <TpsVolts
 5996:     C465 24 03                          bcc     loc_C46A
 5997:     C467 CE 0093                        ldx     #TPSAverageFactorRAM_HB
 5998:                                 
 5999:     C46A                        loc_C46A:
 6000:     C46A 18CE 0095                      ldy     #$0095
 6001:     C46E 96 51                          ldaa    <TpsVolts
 6002:     C470 BD E7B3                        jsr     sub_E7B3
 6003:     C473 39                             rts
 6004:                                 
 6005:     C474                        sub_C474:
 6006:     C474 12 28 40 08                    brset   <BitFlags6d_t3 $40 loc_C480
 6007:     C478 13 CE 02 0C                    brclr   <PIA2_Buffer_t3 $02 loc_C488
 6008:     C47C 96 CC                          ldaa    <Ram_CC
 6009:     C47E 26 08                          bne     loc_C488
 6010:                                 
 6011:     C480                        loc_C480:
 6012:     C480 B6 84DD                        ldaa    byte_84DD
 6013:     C483 CE 834F                        ldx     #unk_834F
 6014:     C486 20 06                          bra     loc_C48E
 6015:                                 
 6016:                                 
 6017:     C488                        loc_C488:
 6018:     C488 B6 84DE                        ldaa    byte_84DE
 6019:     C48B CE 82B3                        ldx     #unk_82B3
 6020:                                 
 6021:     C48E                        loc_C48E:
 6022:     C48E 97 85                          staa    <Ram_85
 6023:     C490 96 48                          ldaa    <EngineRPM_3D
 6024:     C492 D6 90                          ldab    <MapValue2
 6025:     C494 BD E72F                        jsr     sub_E72F
 6026:     C497 97 86                          staa    <Ram_86
 6027:     C499 39                             rts
 6028:                                 
 6029:     C49A                        sub_C49A:
 6030:     C49A 96 50                          ldaa    <MapValue
 6031:     C49C CE 840F                        ldx     #unk_840F
 6032:     C49F BD E68D                        jsr     sub_E68D
 6033:     C4A2 96 BE                          ldaa    <Ram_BE
 6034:     C4A4 44                             lsra
 6035:     C4A5 3D                             mul
 6036:     C4A6 D6 BE                          ldab    <Ram_BE
 6037:     C4A8 54                             lsrb
 6038:     C4A9 54                             lsrb
 6039:     C4AA 1B                             aba
 6040:     C4AB 25 1C                          bcs     loc_C4C9
 6041:     C4AD B7 6490                        staa    LDXi_6490
 6042:     C4B0 13 2C 04 0D                    brclr   <BitFlags2c $04 loc_C4C1
 6043:     C4B4 96 BD                          ldaa    <Ram_BD
 6044:     C4B6 27 06                          beq     loc_C4BE
 6045:     C4B8 F6 84E1                        ldab    byte_84E1
 6046:     C4BB 3D                             mul
 6047:     C4BC 97 BD                          staa    <Ram_BD
 6048:                                 
 6049:     C4BE                        loc_C4BE:
 6050:     C4BE 15 2C 04                       bclr    <BitFlags2c $04
 6051:                                 
 6052:     C4C1                        loc_C4C1:
 6053:     C4C1 B6 6490                        ldaa    LDXi_6490
 6054:     C4C4 D6 BD                          ldab    <Ram_BD
 6055:     C4C6 1B                             aba
 6056:     C4C7 24 02                          bcc     loc_C4CB
 6057:                                 
 6058:     C4C9                        loc_C4C9:
 6059:     C4C9 86 FF                          ldaa    #$FF
 6060:                                 
 6061:     C4CB                        loc_C4CB:
 6062:     C4CB 97 84                          staa    <Ram_84
 6063:     C4CD 39                             rts
 6064:                                 
 6065:     C4CE                        sub_C4CE:
 6066:     C4CE DC 73                          ldd     <Ram_73
 6067:     C4D0 1AB3 84EC                      cpd     word_84EC
 6068:     C4D4 24 05                          bcc     loc_C4DB
 6069:     C4D6 14 29 20                       bset    <BitFlags29 $20
 6070:     C4D9 20 0C                          bra     loc_C4E7
 6071:                                 
 6072:     C4DB                        loc_C4DB:
 6073:     C4DB 15 29 20                       bclr    <BitFlags29 $20
 6074:     C4DE 12 2C 80 05                    brset   <BitFlags2c $80 loc_C4E7
 6075:     C4E2 7D 0082                        tst     Ram_82
 6076:     C4E5 27 05                          beq     loc_C4EC
 6077:                                 
 6078:     C4E7                        loc_C4E7:
 6079:     C4E7 B6 84EB                        ldaa    byte_84EB
 6080:     C4EA 97 B9                          staa    <CounterDn_b9_o2
 6081:                                 
 6082:     C4EC                        loc_C4EC:
 6083:     C4EC 96 B4                          ldaa    <Ram_B4
 6084:     C4EE B1 8A55                        cmpa    byte_8A55
 6085:     C4F1 25 26                          bcs     loc_C519
 6086:     C4F3 13 29 80 11                    brclr   <BitFlags29 $80 loc_C508
 6087:     C4F7 12 D6 01 3D                    brset   <b5D_IPL2_t3 $01 loc_C538
 6088:     C4FB CC 0381                        ldd     #$0381
 6089:     C4FE BD D2C9                        jsr     ThrowNonCriticalError
 6090:     C501 24 16                          bcc     loc_C519
 6091:     C503 14 D6 01                       bset    <b5D_IPL2_t3 $01
 6092:     C506 20 30                          bra     loc_C538
 6093:                                 
 6094:     C508                        loc_C508:
 6095:     C508 12 D6 02 2C                    brset   <b5D_IPL2_t3 $02 loc_C538
 6096:     C50C CC 0481                        ldd     #$0481
 6097:     C50F BD D2C9                        jsr     ThrowNonCriticalError
 6098:     C512 24 05                          bcc     loc_C519
 6099:     C514 14 D6 02                       bset    <b5D_IPL2_t3 $02
 6100:     C517 20 1F                          bra     loc_C538
 6101:                                 
 6102:     C519                        loc_C519:
 6103:     C519 7D 00B9                        tst     CounterDn_b9_o2
 6104:     C51C 26 1A                          bne     loc_C538
 6105:     C51E DC 77                          ldd     <Counter_A_HB
 6106:     C520 26 16                          bne     loc_C538
 6107:     C522 12 29 40 0C                    brset   <BitFlags29 $40 loc_C532
 6108:     C526 96 53                          ldaa    <O2SensorVolts
 6109:     C528 B1 8A53                        cmpa    byte_8A53
 6110:     C52B 24 05                          bcc     loc_C532
 6111:     C52D B1 8A54                        cmpa    byte_8A54
 6112:     C530 24 06                          bcc     loc_C538
 6113:                                 
 6114:     C532                        loc_C532:
 6115:     C532 96 53                          ldaa    <O2SensorVolts
 6116:     C534 81 3E                          cmpa    #$3E
 6117:     C536 25 13                          bcs     loc_C54B
 6118:                                 
 6119:     C538                        loc_C538:
 6120:     C538 15 29 54                       bclr    <BitFlags29 $54
 6121:     C53B B6 8649                        ldaa    byte_8649
 6122:     C53E 97 BA                          staa    <CounterDn_ba_o2
 6123:     C540 B6 864B                        ldaa    byte_864B
 6124:     C543 97 BC                          staa    <CounterDn_bc_o2
 6125:     C545 86 80                          ldaa    #$80
 6126:     C547 97 83                          staa    <Counter_O2SensorFeedbackCount_Signed
 6127:     C549 20 2C                          bra     locret_C577
 6128:                                 
 6129:     C54B                        loc_C54B:
 6130:     C54B BD C578                        jsr     sub_C578
 6131:     C54E 96 29                          ldaa    <BitFlags29
 6132:     C550 85 04                          bita    #$04
 6133:     C552 27 08                          beq     loc_C55C
 6134:     C554 7F 00B4                        clr     Ram_B4
 6135:     C557 BD C5A3                        jsr     sub_C5A3
 6136:     C55A 20 03                          bra     loc_C55F
 6137:                                 
 6138:     C55C                        loc_C55C:
 6139:     C55C BD C5DF                        jsr     sub_C5DF
 6140:                                 
 6141:     C55F                        loc_C55F:
 6142:     C55F 12 29 80 08                    brset   <BitFlags29 $80 loc_C56B
 6143:     C563 9B 83                          adda    <Counter_O2SensorFeedbackCount_Signed
 6144:     C565 24 0B                          bcc     loc_C572
 6145:     C567 86 FF                          ldaa    #$FF
 6146:     C569 20 07                          bra     loc_C572
 6147:                                 
 6148:     C56B                        loc_C56B:
 6149:     C56B 16                             tab
 6150:     C56C 96 83                          ldaa    <Counter_O2SensorFeedbackCount_Signed
 6151:     C56E 10                             sba
 6152:     C56F 24 01                          bcc     loc_C572
 6153:     C571 4F                             clra
 6154:                                 
 6155:     C572                        loc_C572:
 6156:     C572 97 83                          staa    <Counter_O2SensorFeedbackCount_Signed
 6157:     C574 14 29 40                       bset    <BitFlags29 $40
 6158:                                 
 6159:     C577                        locret_C577:
 6160:     C577 39                             rts
 6161:                                 
 6162:     C578                        sub_C578:
 6163:     C578 D6 53                          ldab    <O2SensorVolts
 6164:     C57A 96 29                          ldaa    <BitFlags29
 6165:     C57C D1 B3                          cmpb    <o2HighLimitForInMiddleDetermination
 6166:     C57E 25 0C                          bcs     loc_C58C
 6167:     C580 D1 B2                          cmpb    <o2LowLimitForInMiddleDetermination
 6168:     C582 24 04                          bcc     loc_C588
 6169:     C584 13 29 80 04                    brclr   <BitFlags29 $80 loc_C58C
 6170:                                 
 6171:     C588                        loc_C588:
 6172:     C588 C6 80                          ldab    #$80
 6173:     C58A 20 01                          bra     loc_C58D
 6174:                                 
 6175:     C58C                        loc_C58C:
 6176:     C58C 5F                             clrb
 6177:                                 
 6178:     C58D                        loc_C58D:
 6179:     C58D 37                             pshb
 6180:     C58E D8 29                          eorb    <BitFlags29
 6181:     C590 58                             aslb
 6182:     C591 24 07                          bcc     loc_C59A
 6183:     C593 8A 04                          oraa    #$04
 6184:     C595 7F 00B4                        clr     Ram_B4
 6185:     C598 20 02                          bra     loc_C59C
 6186:                                 
 6187:     C59A                        loc_C59A:
 6188:     C59A 84 FB                          anda    #$FB
 6189:                                 
 6190:     C59C                        loc_C59C:
 6191:     C59C 84 7F                          anda    #$7F
 6192:     C59E 33                             pulb
 6193:     C59F 1B                             aba
 6194:     C5A0 97 29                          staa    <BitFlags29
 6195:     C5A2 39                             rts
 6196:                                 
 6197:     C5A3                        sub_C5A3:
 6198:     C5A3 13 29 10 0E                    brclr   <BitFlags29 $10 loc_C5B5
 6199:     C5A7 96 B6                          ldaa    <CounterUp_b6_o2
 6200:     C5A9 F6 8648                        ldab    byte_8648
 6201:     C5AC 11                             cba
 6202:     C5AD 25 04                          bcs     loc_C5B3
 6203:     C5AF D7 B5                          stab    <Ram_B5
 6204:     C5B1 20 02                          bra     loc_C5B5
 6205:                                 
 6206:     C5B3                        loc_C5B3:
 6207:     C5B3 97 B5                          staa    <Ram_B5
 6208:                                 
 6209:     C5B5                        loc_C5B5:
 6210:     C5B5 15 29 10                       bclr    <BitFlags29 $10
 6211:     C5B8 7F 00B6                        clr     CounterUp_b6_o2
 6212:     C5BB B6 8649                        ldaa    byte_8649
 6213:     C5BE 97 BA                          staa    <CounterDn_ba_o2
 6214:     C5C0 B6 864B                        ldaa    byte_864B
 6215:     C5C3 97 BC                          staa    <CounterDn_bc_o2
 6216:     C5C5 D6 B5                          ldab    <Ram_B5
 6217:     C5C7 96 46                          ldaa    <EngineRpm_HB
 6218:     C5C9 B1 8647                        cmpa    byte_8647
 6219:     C5CC 24 05                          bcc     loc_C5D3
 6220:     C5CE FB 8645                        addb    byte_8645
 6221:     C5D1 20 03                          bra     loc_C5D6
 6222:                                 
 6223:     C5D3                        loc_C5D3:
 6224:     C5D3 FB 8646                        addb    byte_8646
 6225:                                 
 6226:     C5D6                        loc_C5D6:
 6227:     C5D6 24 02                          bcc     loc_C5DA
 6228:     C5D8 C6 FF                          ldab    #$FF
 6229:                                 
 6230:     C5DA                        loc_C5DA:
 6231:     C5DA 17                             tba
 6232:     C5DB 74 00B5                        lsr     Ram_B5
 6233:     C5DE 39                             rts
 6234:                                 
 6235:     C5DF                        sub_C5DF:
 6236:     C5DF 4F                             clra
 6237:     C5E0 D6 BC                          ldab    <CounterDn_bc_o2
 6238:     C5E2 26 48                          bne     loc_C62C
 6239:     C5E4 D6 29                          ldab    <BitFlags29
 6240:     C5E6 C5 10                          bitb    #$10
 6241:     C5E8 26 0F                          bne     loc_C5F9
 6242:     C5EA 7F 00B6                        clr     CounterUp_b6_o2
 6243:     C5ED 14 29 10                       bset    <BitFlags29 $10
 6244:     C5F0 F6 864A                        ldab    byte_864A
 6245:     C5F3 D7 BB                          stab    <CounterDn_bb_o2
 6246:     C5F5 86 01                          ldaa    #$01
 6247:     C5F7 20 3E                          bra     locret_C637
 6248:                                 
 6249:     C5F9                        loc_C5F9:
 6250:     C5F9 D6 B6                          ldab    <CounterUp_b6_o2
 6251:     C5FB F1 864D                        cmpb    byte_864D
 6252:     C5FE 25 1F                          bcs     loc_C61F
 6253:     C600 12 2C 80 0E                    brset   <BitFlags2c $80 loc_C612
 6254:     C604 D6 5F                          ldab    <VehicleSpeedx8_Scaled
 6255:     C606 27 0A                          beq     loc_C612
 6256:     C608 D6 46                          ldab    <EngineRpm_HB
 6257:     C60A F1 8A52                        cmpb    byte_8A52
 6258:     C60D 25 03                          bcs     loc_C612
 6259:     C60F 7C 00B4                        inc     Ram_B4
 6260:                                 
 6261:     C612                        loc_C612:
 6262:     C612 B6 864C                        ldaa    byte_864C
 6263:     C615 5F                             clrb
 6264:     C616 04                             lsrd
 6265:     C617 04                             lsrd
 6266:     C618 04                             lsrd
 6267:     C619 04                             lsrd
 6268:     C61A DD 77                          std     <Counter_A_HB
 6269:     C61C 4F                             clra
 6270:     C61D 20 18                          bra     locret_C637
 6271:                                 
 6272:     C61F                        loc_C61F:
 6273:     C61F D6 BB                          ldab    <CounterDn_bb_o2
 6274:     C621 26 07                          bne     loc_C62A
 6275:     C623 86 01                          ldaa    #$01
 6276:     C625 F6 864A                        ldab    byte_864A
 6277:     C628 D7 BB                          stab    <CounterDn_bb_o2
 6278:                                 
 6279:     C62A                        loc_C62A:
 6280:     C62A 20 0B                          bra     locret_C637
 6281:                                 
 6282:     C62C                        loc_C62C:
 6283:     C62C D6 BA                          ldab    <CounterDn_ba_o2
 6284:     C62E 26 07                          bne     locret_C637
 6285:     C630 F6 8649                        ldab    byte_8649
 6286:     C633 D7 BA                          stab    <CounterDn_ba_o2
 6287:     C635 86 01                          ldaa    #$01
 6288:                                 
 6289:     C637                        locret_C637:
 6290:     C637 39                             rts
 6291:                                 
 6292:     C638                        sub_C638:
 6293:     C638 13 22 80 10                    brclr   <BitFlags66_t3 $80 loc_C64C
 6294:     C63C D6 50                          ldab    <MapValue
 6295:     C63E D0 8A                          subb    <MapValueTemp1
 6296:     C640 25 0A                          bcs     loc_C64C
 6297:     C642 96 A4                          ldaa    <Ram_A4
 6298:     C644 26 09                          bne     loc_C64F
 6299:     C646 B6 8650                        ldaa    byte_8650
 6300:     C649 11                             cba
 6301:     C64A 25 03                          bcs     loc_C64F
 6302:                                 
 6303:     C64C                        loc_C64C:
 6304:     C64C 5F                             clrb
 6305:     C64D 20 02                          bra loc_C651
 6306:                                 
 6307:     C64F                        loc_C64F:
 6308:     C64F 96 A3                          ldaa    <Ram_A3
 6309:                                 
 6310:     C651                        loc_C651:
 6311:     C651 3D                             mul
 6312:     C652 DD A4                          std     <Ram_A4
 6313:     C654 96 95                          ldaa    <TPSVoltsTemp_A
 6314:     C656 F6 8652                        ldab    byte_8652
 6315:     C659 DB 06                          addb    <LowestSessionTpsVolts
 6316:     C65B 24 02                          bcc     loc_C65F
 6317:     C65D C6 FF                          ldab    #$FF
 6318:                                 
 6319:     C65F                        loc_C65F:
 6320:     C65F 11                             cba
 6321:     C660 24 0B                          bcc     loc_C66D
 6322:     C662 96 51                          ldaa    <TpsVolts
 6323:     C664 90 95                          suba    <TPSVoltsTemp_A
 6324:     C666 25 05                          bcs     loc_C66D
 6325:     C668 B1 8651                        cmpa    byte_8651
 6326:     C66B 24 01                          bcc     loc_C66E
 6327:                                 
 6328:     C66D                        loc_C66D:
 6329:     C66D 4F                             clra
 6330:                                 
 6331:     C66E                        loc_C66E:
 6332:     C66E D6 A6                          ldab    <Ram_A6
 6333:     C670 3D                             mul
 6334:     C671 DD A7                          std     <Ram_A7
 6335:     C673 39                             rts
 6336:                                 
 6337:     C674                        sub_C674:
 6338:     C674 4F                             clra
 6339:     C675 D6 7A                          ldab    <Counter_C
 6340:     C677 27 03                          beq     loc_C67C
 6341:     C679 7E C6B4                        jmp     locret_C6B4
 6342:                                 
 6343:     C67C                        loc_C67C:
 6344:     C67C D6 46                          ldab    <EngineRpm_HB
 6345:     C67E F1 8657                        cmpb    byte_8657
 6346:     C681 25 0D                          bcs     loc_C690
 6347:     C683 D6 8C                          ldab    <MapValueTemp2
 6348:     C685 D0 50                          subb    <MapValue
 6349:     C687 25 07                          bcs     loc_C690
 6350:     C689 F1 8655                        cmpb    byte_8655
 6351:     C68C 25 02                          bcs     loc_C690
 6352:     C68E 96 A9                          ldaa    <Ram_A9
 6353:                                 
 6354:     C690                        loc_C690:
 6355:     C690 3D                             mul
 6356:     C691 DD AA                          std     <Ram_AA
 6357:     C693 D6 51                          ldab    <TpsVolts
 6358:     C695 96 06                          ldaa    <LowestSessionTpsVolts
 6359:     C697 BB 8659                        adda    byte_8659
 6360:     C69A 24 02                          bcc     loc_C69E
 6361:     C69C 86 FF                          ldaa    #$FF
 6362:                                 
 6363:     C69E                        loc_C69E:
 6364:     C69E 11                             cba
 6365:     C69F 25 0A                          bcs     loc_C6AB
 6366:     C6A1 96 97                          ldaa    <TPSVoltsTemp_B
 6367:     C6A3 10                             sba
 6368:     C6A4 25 05                          bcs     loc_C6AB
 6369:     C6A6 B1 8658                        cmpa    byte_8658
 6370:     C6A9 24 04                          bcc     loc_C6AF
 6371:                                 
 6372:     C6AB                        loc_C6AB:
 6373:     C6AB 4F                             clra
 6374:     C6AC 5F                             clrb
 6375:     C6AD 20 03                          bra     loc_C6B2
 6376:                                 
 6377:     C6AF                        loc_C6AF:
 6378:     C6AF D6 AC                          ldab    <Ram_AC
 6379:     C6B1 3D                             mul
 6380:                                 
 6381:     C6B2                        loc_C6B2:
 6382:     C6B2 DD AD                          std     <Ram_AD
 6383:                                 
 6384:     C6B4                        locret_C6B4:
 6385:     C6B4 39                             rts
 6386:                                 
 6387:     C6B5                        sub_C6B5:
 6388:     C6B5 96 46                          ldaa    <EngineRpm_HB
 6389:     C6B7 B1 8A1C                        cmpa    byte_8A1C
 6390:     C6BA 24 2B                          bcc     loc_C6E7
 6391:     C6BC 13 2F 08 1B                    brclr   <BitFlags2f $08 loc_C6DB
 6392:     C6C0 15 2F 08                       bclr    <BitFlags2f $08
 6393:     C6C3 96 55                          ldaa    <CoolantTemp_fromTable_Scaled
 6394:     C6C5 CE 8A1E                        ldx     #unk_8A1E
 6395:     C6C8 BD E68D                        jsr     sub_E68D
 6396:     C6CB 4F                             clra
 6397:     C6CC 05                             lsld
 6398:     C6CD 05                             lsld
 6399:     C6CE 05                             lsld
 6400:     C6CF 05                             lsld
 6401:     C6D0 FD 64BA                        std     STe_64BA
 6402:     C6D3 B6 8A1D                        ldaa    byte_8A1D
 6403:     C6D6 B7 64BC                        staa    STe_64BC
 6404:     C6D9 20 11                          bra     locret_C6EC
 6405:                                 
 6406:     C6DB                        loc_C6DB:
 6407:     C6DB B6 64BC                        ldaa    STe_64BC
 6408:     C6DE 81 00                          cmpa    #$00
 6409:     C6E0 27 05                          beq     loc_C6E7
 6410:     C6E2 7A 64BC                        dec     STe_64BC
 6411:     C6E5 20 05                          bra     locret_C6EC
 6412:                                 
 6413:     C6E7                        loc_C6E7:
 6414:     C6E7 4F                             clra
 6415:     C6E8 5F                             clrb
 6416:     C6E9 FD 64BA                        std     STe_64BA
 6417:                                 
 6418:     C6EC                        locret_C6EC:
 6419:     C6EC 39                             rts
 6420:                                 
 6421:     C6ED                        sub_C6ED:
 6422:     C6ED B6 64C0                        ldaa    STe_64C0
 6423:     C6F0 27 05                          beq     loc_C6F7
 6424:     C6F2 7A 64C0                        dec     STe_64C0
 6425:     C6F5 20 2E                          bra     locret_C725
 6426:                                 
 6427:     C6F7                        loc_C6F7:
 6428:     C6F7 13 2F 10 1B                    brclr   <BitFlags2f $10 loc_C716
 6429:     C6FB 15 2F 10                       bclr    <BitFlags2f $10
 6430:     C6FE CE 8A29                        ldx     #unk_8A29
 6431:     C701 96 55                          ldaa    <CoolantTemp_fromTable_Scaled
 6432:     C703 BD E68D                        jsr     sub_E68D
 6433:     C706 4F                             clra
 6434:     C707 05                             lsld
 6435:     C708 05                             lsld
 6436:     C709 05                             lsld
 6437:     C70A 05                             lsld
 6438:     C70B FD 64BE                        std     STe_64BE
 6439:     C70E B6 8A28                        ldaa    byte_8A28
 6440:     C711 B7 64BD                        staa    STe_64BD
 6441:     C714 20 0F                          bra     locret_C725
 6442:                                 
 6443:     C716                        loc_C716:
 6444:     C716 B6 64BD                        ldaa    STe_64BD
 6445:     C719 27 05                          beq     loc_C720
 6446:     C71B 7A 64BD                        dec     STe_64BD
 6447:     C71E 20 05                          bra     locret_C725
 6448:                                 
 6449:     C720                        loc_C720:
 6450:     C720 4F                             clra
 6451:     C721 5F                             clrb
 6452:     C722 FD 64BE                        std     STe_64BE
 6453:                                 
 6454:     C725                        locret_C725:
 6455:     C725 39                             rts
 6456:                                 
 6457:     C726                        sub_C726:
 6458:     C726 CE 648F                        ldx     #DoubleTempC
 6459:     C729 86 01                          ldaa    #$01
 6460:     C72B D6 81                          ldab    <Ram_81
 6461:     C72D FD 648F                        std     DoubleTempC
 6462:     C730 D6 82                          ldab    <Ram_82
 6463:     C732 BD E6E9                        jsr     sub_E6E9
 6464:     C735 FD 648F                        std     DoubleTempC
 6465:     C738 86 01                          ldaa    #$01
 6466:     C73A D6 0B                          ldab    <Ram_0B
 6467:     C73C BD E6E9                        jsr     sub_E6E9
 6468:     C73F FD 648F                        std     DoubleTempC
 6469:     C742 86 01                          ldaa    #$01
 6470:     C744 D6 83                          ldab    <Counter_O2SensorFeedbackCount_Signed
 6471:     C746 BD E6E9                        jsr     sub_E6E9
 6472:     C749 FD 648F                        std     DoubleTempC
 6473:     C74C 188F                           xgdy
 6474:     C74E 96 84                          ldaa    <Ram_84
 6475:     C750 BD E60D                        jsr     ScaleYbyA
 6476:     C753 188F                           xgdy
 6477:     C755 05                             lsld
 6478:     C756 05                             lsld
 6479:     C757 F3 648F                        addd    DoubleTempC
 6480:     C75A DD 75                          std     <PWMULT_Adaptive_fuel_pulsewidth_multiplier
 6481:     C75C 39                             rts
 6482:                                 
 6483:     C75D                        sub_C75D:
 6484:     C75D B6 1030                        ldaa    ADCTL_A2DControlReg
 6485:     C760 2A FB                          bpl     sub_C75D
 6486:     C762 F6 1034                        ldab    ADR4_A2DResults4
 6487:     C765 D7 5A                          stab    <LastTpsVolts
 6488:     C767 F1 8A59                        cmpb    byte_8A59
 6489:     C76A 25 0B                          bcs     loc_C777
 6490:     C76C F1 8A5A                        cmpb    byte_8A5A
 6491:     C76F 24 06                          bcc     loc_C777
 6492:     C771 12 D5 40 02                    brset   <b5C_IPL1_t3 $40 loc_C777
 6493:     C775 D7 51                          stab    <TpsVolts
 6494:                                 
 6495:     C777                        loc_C777:
 6496:     C777 B6 1031                        ldaa    ADR1_A2DResults1
 6497:     C77A D6 46                          ldab    <EngineRpm_HB
 6498:     C77C C1 2F                          cmpb    #$2F
 6499:     C77E 24 0E                          bcc     loc_C78E
 6500:     C780 C1 0D                          cmpb    #$0D
 6501:     C782 25 0A                          bcs     loc_C78E
 6502:     C784 B1 8A66                        cmpa    byte_8A66
 6503:     C787 24 09                          bcc     loc_C792
 6504:     C789 B1 8A65                        cmpa    byte_8A65
 6505:     C78C 25 04                          bcs     loc_C792
 6506:                                 
 6507:     C78E                        loc_C78E:
 6508:     C78E 13 D5 88 03                    brclr   <b5C_IPL1_t3 $88 loc_C795
 6509:                                 
 6510:     C792                        loc_C792:
 6511:     C792 BD D7BF                        jsr     sub_D7BF
 6512:                                 
 6513:     C795                        loc_C795:
 6514:     C795 BD E6DB                        jsr     sub_E6DB
 6515:     C798 16                             tab
 6516:     C799 FB 64A9                        addb    MapValue_t3
 6517:     C79C 56                             rorb
 6518:     C79D D7 50                          stab    <MapValue
 6519:                                 
 6520:     C79F                        loc_C79F:
 6521:     C79F 12 20 40 03                    brset   <IPL1 $40 loc_C7A6
 6522:     C7A3 7E C8D2                        jmp     loc_C8D2
 6523:                                 
 6524:     C7A6                        loc_C7A6:
 6525:     C7A6 12 27 08 0A                    brset   <BitFlags27 $08 loc_C7B4
 6526:     C7AA B6 1023                        ldaa    TFLG1_TimerInterruptFlag1
 6527:     C7AD 85 08                          bita    #$08
 6528:     C7AF 27 03                          beq     loc_C7B4
 6529:     C7B1 BD F75A                        jsr     sub_F75A
 6530:                                 
 6531:     C7B4                        loc_C7B4:
 6532:     C7B4 BD C638                        jsr     sub_C638
 6533:     C7B7 CE 84DF                        ldx     #unk_84DF
 6534:     C7BA 96 90                          ldaa    <MapValue2
 6535:     C7BC 91 50                          cmpa    <MapValue
 6536:     C7BE 24 03                          bcc     loc_C7C3
 6537:     C7C0 CE 84DE                        ldx     #byte_84DE
 6538:                                 
 6539:     C7C3                        loc_C7C3:
 6540:     C7C3 18CE 0090                      ldy     #$0090
 6541:     C7C7 96 50                          ldaa    <MapValue
 6542:     C7C9 BD E7B3                        jsr     sub_E7B3
 6543:     C7CC BD C474                        jsr     sub_C474
 6544:     C7CF 13 27 40 0A                    brclr   <BitFlags27 $40 loc_C7DD
 6545:     C7D3 B6 1023                        ldaa    TFLG1_TimerInterruptFlag1
 6546:     C7D6 85 10                          bita    #$10
 6547:     C7D8 27 03                          beq     loc_C7DD
 6548:     C7DA BD F750                        jsr     sub_F750
 6549:                                 
 6550:     C7DD                        loc_C7DD:
 6551:     C7DD 13 27 08 0A                    brclr   <BitFlags27 $08 loc_C7EB
 6552:     C7E1 B6 1023                        ldaa    TFLG1_TimerInterruptFlag1
 6553:     C7E4 85 40                          bita    #$40
 6554:     C7E6 27 03                          beq     loc_C7EB
 6555:     C7E8 BD F74C                        jsr     nullsub_1
 6556:                                 
 6557:     C7EB                        loc_C7EB:
 6558:     C7EB 4F                             clra
 6559:     C7EC D6 50                          ldab    <MapValue
 6560:     C7EE 05                             lsld
 6561:     C7EF 05                             lsld
 6562:     C7F0 7D 84D7                        tst     word_84D7
 6563:     C7F3 2B 05                          bmi     loc_C7FA
 6564:     C7F5 F3 84D7                        addd    word_84D7
 6565:     C7F8 20 08                          bra     loc_C802
 6566:                                 
 6567:     C7FA                        loc_C7FA:
 6568:     C7FA F3 84D7                        addd    word_84D7
 6569:     C7FD 2E 03                          bgt     loc_C802
 6570:     C7FF CC 0000                        ldd     #$0000
 6571:                                 
 6572:     C802                        loc_C802:
 6573:     C802 188F                           xgdy
 6574:     C804 96 85                          ldaa    <Ram_85
 6575:     C806 BD E60D                        jsr     ScaleYbyA
 6576:     C809 188F                           xgdy
 6577:     C80B 05                             lsld
 6578:     C80C 24 03                          bcc     loc_C811
 6579:     C80E CC FFFF                        ldd     #$FFFF
 6580:                                 
 6581:     C811                        loc_C811:
 6582:     C811 FD 648F                        std     DoubleTempC
 6583:     C814 12 27 08 0A                    brset   <BitFlags27 $08 loc_C822
 6584:     C818 B6 1023                        ldaa    TFLG1_TimerInterruptFlag1
 6585:     C81B 85 08                          bita    #$08
 6586:     C81D 27 03                          beq     loc_C822
 6587:     C81F BD F75A                        jsr     sub_F75A
 6588:                                 
 6589:     C822                        loc_C822:
 6590:     C822 86 01                          ldaa    #$01
 6591:     C824 D6 86                          ldab    <Ram_86
 6592:     C826 CE 648F                        ldx     #DoubleTempC
 6593:     C829 BD E6E9                        jsr     sub_E6E9
 6594:     C82C CE 0075                        ldx     #PWMULT_Adaptive_fuel_pulsewidth_multiplier
 6595:     C82F BD E621                        jsr     ScaleXbyB_somethingelse
 6596:     C832 FD 648D                        std     DoubleTempB
 6597:     C835 13 27 08 0A                    brclr   <BitFlags27 $08 loc_C843
 6598:     C839 B6 1023                        ldaa    TFLG1_TimerInterruptFlag1
 6599:     C83C 85 40                          bita    #$40
 6600:     C83E 27 03                          beq     loc_C843
 6601:     C840 BD F74C                        jsr     nullsub_1
 6602:                                 
 6603:     C843                        loc_C843:
 6604:     C843 4F                             clra
 6605:     C844 D6 B1                          ldab    <Ram_B1
 6606:     C846 05                             lsld
 6607:     C847 05                             lsld
 6608:     C848 DB 0A                          addb    <ValueFromAdaptiveMemory
 6609:     C84A 89 00                          adca    #$00
 6610:     C84C 7D 84D9                        tst     word_84D9
 6611:     C84F 2B 0A                          bmi     loc_C85B
 6612:     C851 F3 84D9                        addd    word_84D9
 6613:     C854 28 08                          bvc     loc_C85E
 6614:     C856 CC 7FFF                        ldd     #$7FFF
 6615:     C859 20 03                          bra     loc_C85E
 6616:                                 
 6617:     C85B                        loc_C85B:
 6618:     C85B F3 84D9                        addd    word_84D9
 6619:                                 
 6620:     C85E                        loc_C85E:
 6621:     C85E DD C0                          std     <Ram_C0
 6622:     C860 CE 8418                        ldx     #unk_8418
 6623:     C863 96 4F                          ldaa    <MapVolts
 6624:     C865 BD E68D                        jsr     sub_E68D
 6625:     C868 D7 C2                          stab    <Ram_C2
 6626:     C86A FC 648D                        ldd     DoubleTempB
 6627:     C86D D3 AF                          addd    <MAPLoadFactor
 6628:     C86F 25 12                          bcs     loc_C883
 6629:     C871 D3 A7                          addd    <Ram_A7
 6630:     C873 25 0E                          bcs     loc_C883
 6631:     C875 D3 A4                          addd    <Ram_A4
 6632:     C877 25 0A                          bcs     loc_C883
 6633:     C879 F3 64BA                        addd    STe_64BA
 6634:     C87C 25 05                          bcs     loc_C883
 6635:     C87E F3 64BE                        addd    STe_64BE
 6636:     C881 24 03                          bcc     loc_C886
 6637:                                 
 6638:     C883                        loc_C883:
 6639:     C883 CC FFFF                        ldd     #$FFFF
 6640:                                 
 6641:     C886                        loc_C886:
 6642:     C886 93 AD                          subd    <Ram_AD
 6643:     C888 25 04                          bcs     loc_C88E
 6644:     C88A 93 AA                          subd    <Ram_AA
 6645:     C88C 24 03                          bcc     loc_C891
 6646:                                 
 6647:     C88E                        loc_C88E:
 6648:     C88E CC 0000                        ldd     #$0000
 6649:                                 
 6650:     C891                        loc_C891:
 6651:     C891 FD 648D                        std     DoubleTempB
 6652:     C894 18FE 648D                      ldy     DoubleTempB
 6653:     C898 96 C2                          ldaa    <Ram_C2
 6654:     C89A BD E60D                        jsr     ScaleYbyA
 6655:     C89D 188F                           xgdy
 6656:     C89F 04                             lsrd
 6657:     C8A0 04                             lsrd
 6658:     C8A1 FD 648F                        std     DoubleTempC
 6659:     C8A4 FC 648D                        ldd     DoubleTempB
 6660:     C8A7 B3 648F                        subd    DoubleTempC
 6661:     C8AA FD 648D                        std     DoubleTempB
 6662:     C8AD 7D 00C0                        tst     Ram_C0
 6663:     C8B0 2A 17                          bpl     loc_C8C9
 6664:     C8B2 CC 0000                        ldd     #$0000
 6665:     C8B5 93 C0                          subd    <Ram_C0
 6666:     C8B7 1AB3 648D                      cpd     DoubleTempB
 6667:     C8BB 2A 07                          bpl     loc_C8C4
 6668:     C8BD FC 648D                        ldd     DoubleTempB
 6669:     C8C0 D3 C0                          addd    <Ram_C0
 6670:     C8C2 20 0C                          bra     loc_C8D0
 6671:                                 
 6672:     C8C4                        loc_C8C4:
 6673:     C8C4 CC 0000                        ldd     #$0000
 6674:     C8C7 20 07                          bra     loc_C8D0
 6675:                                 
 6676:     C8C9                        loc_C8C9:
 6677:     C8C9 D3 C0                          addd    <Ram_C0
 6678:     C8CB 24 03                          bcc     loc_C8D0
 6679:     C8CD CC FFFF                        ldd     #$FFFF
 6680:                                 
 6681:     C8D0                        loc_C8D0:
 6682:     C8D0 DD 73                          std     <Ram_73
 6683:                                 
 6684:     C8D2                        loc_C8D2:
 6685:     C8D2 12 27 08 0A                    brset   <BitFlags27 $08 loc_C8E0
 6686:     C8D6 B6 1023                        ldaa    TFLG1_TimerInterruptFlag1
 6687:     C8D9 85 08                          bita    #$08
 6688:     C8DB 27 03                          beq     loc_C8E0
 6689:     C8DD BD F75A                        jsr     sub_F75A
 6690:                                 
 6691:     C8E0                        loc_C8E0:
 6692:     C8E0 13 27 40 0A                    brclr   <BitFlags27 $40 loc_C8EE
 6693:     C8E4 B6 1023                        ldaa    TFLG1_TimerInterruptFlag1
 6694:     C8E7 85 10                          bita    #$10
 6695:     C8E9 27 03                          beq     loc_C8EE
 6696:     C8EB BD F750                        jsr     sub_F750
 6697:                                 
 6698:     C8EE                        loc_C8EE:
 6699:     C8EE 12 20 40 4C                    brset   <IPL1 $40 loc_C93E
 6700:     C8F2 CE 84DF                        ldx     #unk_84DF
 6701:     C8F5 96 90                          ldaa    <MapValue2
 6702:     C8F7 91 50                          cmpa    <MapValue
 6703:     C8F9 24 03                          bcc     loc_C8FE
 6704:     C8FB CE 84DE                        ldx     #byte_84DE
 6705:                                 
 6706:     C8FE                        loc_C8FE:
 6707:     C8FE 18CE 0090                      ldy     #$0090
 6708:     C902 96 50                          ldaa    <MapValue
 6709:     C904 BD E7B3                        jsr     sub_E7B3
 6710:     C907 13 22 40 0A                    brclr   <BitFlags66_t3 $40 loc_C915
 6711:     C90B 13 30 04 06                    brclr   <Ram_30 $04 loc_C915
 6712:     C90F 4F                             clra
 6713:     C910 5F                             clrb
 6714:     C911 DD 6F                          std     <InjectorPulsewidth_HB
 6715:     C913 20 3D                          bra     loc_C952
 6716:                                 
 6717:     C915                        loc_C915:
 6718:     C915 96 54                          ldaa    <CoolantTemp
 6719:     C917 B1 8497                        cmpa    byte_8497
 6720:     C91A 25 1C                          bcs     loc_C938
 6721:     C91C 96 52                          ldaa    <ChargeTempVolts
 6722:     C91E B1 8498                        cmpa    byte_8498
 6723:     C921 25 15                          bcs     loc_C938
 6724:     C923 96 80                          ldaa    <Ram_80
 6725:     C925 81 FF                          cmpa    #$FF
 6726:     C927 27 0F                          beq     loc_C938
 6727:     C929 4C                             inca
 6728:     C92A 97 80                          staa    <Ram_80
 6729:     C92C B1 8499                        cmpa    byte_8499
 6730:     C92F 22 07                          bhi     loc_C938
 6731:     C931 CC 0000                        ldd     #$0000
 6732:     C934 DD 6F                          std     <InjectorPulsewidth_HB
 6733:     C936 20 1A                          bra     loc_C952
 6734:                                 
 6735:     C938                        loc_C938:
 6736:     C938 DC 71                          ldd     <Ram_71
 6737:     C93A DD 6F                          std     <InjectorPulsewidth_HB
 6738:     C93C 20 14                          bra     loc_C952
 6739:                                 
 6740:     C93E                        loc_C93E:
 6741:     C93E DC 71                          ldd     <Ram_71
 6742:     C940 27 0D                          beq     loc_C94F
 6743:     C942 B3 8495                        subd    word_8495
 6744:     C945 25 04                          bcs     loc_C94B
 6745:     C947 DD 71                          std     <Ram_71
 6746:     C949 20 04                          bra     loc_C94F
 6747:                                 
 6748:     C94B                        loc_C94B:
 6749:     C94B 4F                             clra
 6750:     C94C 5F                             clrb
 6751:     C94D DD 71                          std     <Ram_71
 6752:                                 
 6753:     C94F                        loc_C94F:
 6754:     C94F BD C975                        jsr     sub_C975
 6755:                                 
 6756:     C952                        loc_C952:
 6757:     C952 BD C3E1                        jsr     sub_C3E1
 6758:     C955 13 27 40 0A                    brclr   <BitFlags27 $40 loc_C963
 6759:     C959 B6 1023                        ldaa    TFLG1_TimerInterruptFlag1
 6760:     C95C 85 10                          bita    #$10
 6761:     C95E 27 03                          beq     loc_C963
 6762:     C960 BD F750                        jsr     sub_F750
 6763:                                 
 6764:     C963                        loc_C963:
 6765:     C963 13 27 08 0A                    brclr   <BitFlags27 $08 loc_C971
 6766:     C967 B6 1023                        ldaa    TFLG1_TimerInterruptFlag1
 6767:     C96A 85 40                          bita    #$40
 6768:     C96C 27 03                          beq     loc_C971
 6769:     C96E BD F74C                        jsr     nullsub_1
 6770:                                 
 6771:     C971                        loc_C971:
 6772:     C971 BD C449                        jsr     sub_C449
 6773:     C974 39                             rts
 6774:                                 
 6775:     C975                        sub_C975:
 6776:     C975 CE 00E1                        ldx     #CCDFlags5
 6777:     C978 1F 00 20 06                    brclr   $00,x $20 loc_C982
 6778:     C97C CC 0000                        ldd     #$0000
 6779:     C97F 7E CA12                        jmp     loc_CA12
 6780:                                 
 6781:     C982                        loc_C982:
 6782:     C982 12 2C 80 03                    brset   <BitFlags2c $80 loc_C989
 6783:     C986 7E C9E0                        jmp     loc_C9E0
 6784:                                 
 6785:     C989                        loc_C989:
 6786:     C989 B6 8680                        ldaa    byte_8680
 6787:     C98C D6 6D                          ldab    <TargetIdleSpeedHB
 6788:     C98E 3D                             mul
 6789:     C98F D3 6D                          addd    <TargetIdleSpeedHB
 6790:     C991 24 03                          bcc     loc_C996
 6791:     C993 CC FFFF                        ldd     #$FFFF
 6792:                                 
 6793:     C996                        loc_C996:
 6794:     C996 97 87                          staa    <RpmRelated0087
 6795:     C998 1A93 46                        cpd     <EngineRpm_HB
 6796:     C99B 25 02                          bcs     loc_C99F
 6797:     C99D 20 36                          bra     loc_C9D5
 6798:                                 
 6799:     C99F                        loc_C99F:
 6800:     C99F DE 73                          ldx     <Ram_73
 6801:     C9A1 B6 867F                        ldaa    byte_867F
 6802:     C9A4 26 07                          bne     loc_C9AD
 6803:     C9A6 BC 867D                        cpx     word_867D
 6804:     C9A9 22 2A                          bhi     loc_C9D5
 6805:     C9AB 20 33                          bra     loc_C9E0
 6806:                                 
 6807:     C9AD                        loc_C9AD:
 6808:     C9AD 81 01                          cmpa    #$01
 6809:     C9AF 26 0B                          bne     loc_C9BC
 6810:     C9B1 13 22 80 2B                    brclr   <BitFlags66_t3 $80 loc_C9E0
 6811:     C9B5 BC 867D                        cpx     word_867D
 6812:     C9B8 22 1B                          bhi     loc_C9D5
 6813:     C9BA 20 24                          bra     loc_C9E0
 6814:                                 
 6815:     C9BC                        loc_C9BC:
 6816:     C9BC 81 02                          cmpa    #$02
 6817:     C9BE 26 0B                          bne     loc_C9CB
 6818:     C9C0 12 22 80 11                    brset   <BitFlags66_t3 $80 loc_C9D5
 6819:     C9C4 BC 867D                        cpx     word_867D
 6820:     C9C7 22 0C                          bhi     loc_C9D5
 6821:     C9C9 20 15                          bra     loc_C9E0
 6822:                                 
 6823:     C9CB                        loc_C9CB:
 6824:     C9CB 81 03                          cmpa    #$03
 6825:     C9CD 26 06                          bne     loc_C9D5
 6826:     C9CF 12 22 80 02                    brset   <BitFlags66_t3 $80 loc_C9D5
 6827:     C9D3 20 0B                          bra     loc_C9E0
 6828:                                 
 6829:     C9D5                        loc_C9D5:
 6830:     C9D5 15 2C 80                       bclr    <BitFlags2c $80
 6831:     C9D8 14 2C 08                       bset    <BitFlags2c $08
 6832:     C9DB B6 867C                        ldaa    byte_867C
 6833:     C9DE 97 B7                          staa    <CounterDn_b7_o2
 6834:                                 
 6835:     C9E0                        loc_C9E0:
 6836:     C9E0 18FE 84DB                      ldy     word_84DB
 6837:     C9E4 13 2C 80 04                    brclr   <BitFlags2c $80 loc_C9EC
 6838:     C9E8 4F                             clra
 6839:     C9E9 5F                             clrb
 6840:     C9EA 20 11                          bra     loc_C9FD
 6841:                                 
 6842:     C9EC                        loc_C9EC:
 6843:     C9EC DC 73                          ldd     <Ram_73
 6844:     C9EE 1A93 71                        cpd     <Ram_71
 6845:     C9F1 24 02                          bcc     loc_C9F5
 6846:     C9F3 DC 71                          ldd     <Ram_71
 6847:                                 
 6848:     C9F5                        loc_C9F5:
 6849:     C9F5 1AB3 84DB                      cpd     word_84DB
 6850:     C9F9 24 02                          bcc     loc_C9FD
 6851:     C9FB 188F                           xgdy
 6852:                                 
 6853:     C9FD                        loc_C9FD:
 6854:     C9FD CE 6481                        ldx     #UNe_6481
 6855:     CA00 1F 00 04 0E                    brclr   $00,x $04 loc_CA12
 6856:     CA04 B6 6483                        ldaa    UNe_6483
 6857:     CA07 5F                             clrb
 6858:     CA08 1E 00 08 03                    brset   $00,x $08 loc_CA0F
 6859:     CA0C F6 6484                        ldab    UNe_6484
 6860:                                 
 6861:     CA0F                        loc_CA0F:
 6862:     CA0F 04                             lsrd
 6863:     CA10 04                             lsrd
 6864:     CA11 04                             lsrd
 6865:                                 
 6866:     CA12                        loc_CA12:
 6867:     CA12 DD 6F                          std     <InjectorPulsewidth_HB
 6868:     CA14 39                             rts
 6869:                                 
 6870:     CA15                        unk_CA15:
 6871:     CA15 00                             fcb $00
 6872:     CA16 00                             fcb $00
 6873:     CA17 00                             fcb $00
 6874:     CA18 20                             fcb $20
 6875:     CA19 20                             fcb $20
 6876:     CA1A 30                             fcb $30
 6877:     CA1B 20                             fcb $20
 6878:     CA1C 00                             fcb $00
 6879:     CA1D 20                             fcb $20
 6880:     CA1E 20                             fcb $20
 6881:     CA1F 20                             fcb $20
 6882:     CA20 00                             fcb $00
 6883:     CA21 30                             fcb $30
 6884:     CA22 30                             fcb $30
 6885:     CA23 30                             fcb $30
 6886:     CA24 30                             fcb $30
 6887:     CA25 30                             fcb $30
 6888:     CA26 20                             fcb $20
 6889:     CA27 20                             fcb $20
 6890:     CA28 20                             fcb $20
 6891:                                 
 6892:     CA29                        sub_CA29:
 6893:     CA29 BD DDB8                        jsr     sub_DDB8
 6894:     CA2C BD DEAD                        jsr     sub_DEAD
 6895:     CA2F D6 DB                          ldab    <DRBSerialMode
 6896:     CA31 C5 C0                          bitb    #$C0
 6897:     CA33 26 5F                          bne     locret_CA94
 6898:     CA35 B6 102B                        ldaa    BAUD_SerialBaudRate
 6899:     CA38 84 37                          anda    #$37
 6900:     CA3A 81 22                          cmpa    #$22
 6901:     CA3C 27 06                          beq     loc_CA44
 6902:     CA3E 86 22                          ldaa    #$22
 6903:     CA40 B7 102B                        staa    BAUD_SerialBaudRate
 6904:     CA43 39                             rts
 6905:                                 
 6906:     CA44                        loc_CA44:
 6907:     CA44 B6 102E                        ldaa    SCSR_SerialStatus
 6908:     CA47 85 0E                          bita    #$0E
 6909:     CA49 27 04                          beq     loc_CA4F
 6910:     CA4B B6 102F                        ldaa    SCDR_SerialData
 6911:     CA4E 39                             rts
 6912:                                 
 6913:     CA4F                        loc_CA4F:
 6914:     CA4F 85 20                          bita    #$20
 6915:     CA51 26 13                          bne     loc_CA66
 6916:     CA53 12 DB 0F 04                    brset   <DRBSerialMode $0F loc_CA5B
 6917:     CA57 5C                             incb
 6918:     CA58 D7 DB                          stab    <DRBSerialMode
 6919:     CA5A 39                             rts
 6920:                                 
 6921:     CA5B                        loc_CA5B:
 6922:     CA5B 13 DB 30 06                    brclr   <DRBSerialMode $30 locret_CA65
 6923:     CA5F 15 DB 30                       bclr    <DRBSerialMode $30
 6924:     CA62 7F 00D8                        clr     DRBPointer1
 6925:                                 
 6926:     CA65                        locret_CA65:
 6927:     CA65 39                             rts
 6928:                                 
 6929:     CA66                        loc_CA66:
 6930:     CA66 B6 102F                        ldaa    SCDR_SerialData
 6931:     CA69 B7 102F                        staa    SCDR_SerialData
 6932:     CA6C C4 F0                          andb    #$F0
 6933:     CA6E D7 DB                          stab    <DRBSerialMode
 6934:     CA70 C5 30                          bitb    #$30
 6935:     CA72 26 21                          bne     loc_CA95
 6936:     CA74 97 D8                          staa    <DRBPointer1
 6937:     CA76 81 14                          cmpa    #$14
 6938:     CA78 27 03                          beq     loc_CA7D
 6939:     CA7A 15 28 08                       bclr    <BitFlags6d_t3 $08
 6940:                                 
 6941:     CA7D                        loc_CA7D:
 6942:     CA7D 7F 00D9                        clr     DRBPointer2
 6943:     CA80 7F 00DA                        clr     DRBPointer3
 6944:     CA83 16                             tab
 6945:     CA84 C0 10                          subb    #$10
 6946:     CA86 C1 14                          cmpb    #$14
 6947:     CA88 24 0A                          bcc     locret_CA94
 6948:     CA8A CE CA15                        ldx     #unk_CA15
 6949:     CA8D 3A                             abx
 6950:     CA8E E6 00                          ldab    $00,x
 6951:     CA90 DA DB                          orab    <DRBSerialMode
 6952:     CA92 D7 DB                          stab    <DRBSerialMode
 6953:                                 
 6954:     CA94                        locret_CA94:
 6955:     CA94 39                             rts
 6956:                                 
 6957:     CA95                        loc_CA95:
 6958:     CA95 C5 20                          bitb    #$20
 6959:     CA97 27 03                          beq     loc_CA9C
 6960:     CA99 7E CAB7                        jmp     loc_CAB7
 6961:                                 
 6962:     CA9C                        loc_CA9C:
 6963:     CA9C C5 10                          bitb    #$10
 6964:     CA9E 26 03                          bne     loc_CAA3
 6965:     CAA0 7E CAD4                        jmp     loc_CAD4
 6966:                                 
 6967:     CAA3                        loc_CAA3:
 6968:     CAA3 97 DA                          staa    <DRBPointer3
 6969:     CAA5 C4 CF                          andb    #$CF
 6970:     CAA7 D7 DB                          stab    <DRBSerialMode
 6971:     CAA9 39                             rts
 6972:                                 
 6973:     CAAA                        SendECUIDToSCI:
 6974:     CAAA 7F 00D8                        clr     DRBPointer1
 6975:     CAAD D6 DA                          ldab    <DRBPointer3
 6976:     CAAF 96 D9                          ldaa    <DRBPointer2
 6977:     CAB1 8F                             xgdx
 6978:     CAB2 A6 00                          ldaa    $00,x
 6979:                                 
 6980:     CAB4                        loc_CAB4:
 6981:     CAB4 7E CD22                        jmp     sub_CD22
 6982:                                 
 6983:     CAB7                        loc_CAB7:
 6984:     CAB7 97 D9                          staa    <DRBPointer2
 6985:     CAB9 C4 DF                          andb    #$DF
 6986:     CABB D7 DB                          stab    <DRBSerialMode
 6987:     CABD D6 D8                          ldab    <DRBPointer1
 6988:     CABF 1A83 1014                      cpd     #$1014
 6989:     CAC3 26 18                          bne     loc_CADD
 6990:     CAC5 12 22 80 0B                    brset   <BitFlags66_t3 $80 loc_CAD4
 6991:     CAC9 12 27 01 15                    brset   <BitFlags27 $01 loc_CAE2
 6992:     CACD 13 25 10 11                    brclr   <BitFlags68_t3 $10 loc_CAE2
 6993:     CAD1 15 25 80                       bclr    <BitFlags68_t3 $80
 6994:                                 
 6995:     CAD4                        loc_CAD4:
 6996:     CAD4 7F 00D8                        clr     DRBPointer1
 6997:     CAD7 7F 00D9                        clr     DRBPointer2
 6998:     CADA 7F 00DA                        clr     DRBPointer3
 6999:                                 
 7000:     CADD                        loc_CADD:
 7001:     CADD 15 28 08                       bclr    <BitFlags6d_t3 $08
 7002:     CAE0 20 03                          bra     locret_CAE5
 7003:                                 
 7004:     CAE2                        loc_CAE2:
 7005:     CAE2 14 28 08                       bset    <BitFlags6d_t3 $08
 7006:                                 
 7007:     CAE5                        locret_CAE5:
 7008:     CAE5 39                             rts
 7009:                                 
 7010:     CAE6                        DRB_ResetEMR:
 7011:     CAE6 7F 00D8                        clr     DRBPointer1
 7012:     CAE9 12 26 40 15                    brset   <BitFlags6a_t3 $40 loc_CB02
 7013:     CAED 12 26 20 11                    brset   <BitFlags6a_t3 $20 loc_CB02
 7014:     CAF1 14 26 40                       bset    <BitFlags6a_t3 $40
 7015:     CAF4 96 DA                          ldaa    <DRBPointer3
 7016:     CAF6 B7 64B1                        staa    DRBOffsetStored_LB
 7017:     CAF9 D6 D9                          ldab    <DRBPointer2
 7018:     CAFB F7 64B0                        stab    DRBOffsetStored_HB
 7019:     CAFE 86 E2                          ldaa    #$E2
 7020:     CB00 20 B2                          bra     loc_CAB4
 7021:                                 
 7022:     CB02                        loc_CB02:
 7023:     CB02 4F                             clra
 7024:     CB03 20 AF                          bra     loc_CAB4
 7025:                                 
 7026:     CB05                        DRB_UseRAMForSpecialProgramRoutine:
 7027:     CB05 CE 0000                        ldx     #$0000
 7028:     CB08 20 23                          bra     loc_CB2D
 7029:                                 
 7030:     CB0A                        DRB_UseRAM2ForSpecialProgramRoutine:
 7031:     CB0A CE 6480                        ldx     #CountdownTimerFromKeyOn
 7032:     CB0D 20 1E                          bra     loc_CB2D
 7033:                                 
 7034:     CB0F                        DRB_CheckSpecialProgramSize:
 7035:     CB0F CE 64C9                        ldx     #DRB_ProgramModeFlag
 7036:     CB12 96 D9                          ldaa    <DRBPointer2
 7037:     CB14 26 14                          bne     loc_CB2A
 7038:     CB16 D6 DA                          ldab    <DRBPointer3
 7039:     CB18 3A                             abx
 7040:     CB19 8C 64D0                        cpx     #UNk_64D0
 7041:     CB1C 25 0C                          bcs     loc_CB2A
 7042:     CB1E 86 FF                          ldaa    #$FF
 7043:     CB20 B7 64C9                        staa    DRB_ProgramModeFlag
 7044:                                 
 7045:     CB23                        loc_CB23:
 7046:     CB23 7F 00D8                        clr     DRBPointer1
 7047:     CB26 4F                             clra
 7048:     CB27 7E CD22                        jmp     sub_CD22
 7049:                                 
 7050:     CB2A                        loc_CB2A:
 7051:     CB2A CE 64C9                        ldx     #DRB_ProgramModeFlag
 7052:                                 
 7053:     CB2D                        loc_CB2D:
 7054:     CB2D 7F 00D8                        clr     DRBPointer1
 7055:     CB30 D6 D9                          ldab    <DRBPointer2
 7056:     CB32 96 DA                          ldaa    <DRBPointer3
 7057:     CB34 3A                             abx
 7058:     CB35 A7 00                          staa    $00,x
 7059:     CB37 86 E5                          ldaa    #$E5
 7060:     CB39 7E CD22                        jmp     sub_CD22
 7061:                                 
 7062:     CB3C                        DRB_SpecialProgramMode:
 7063:     CB3C CE 64C9                        ldx     #DRB_ProgramModeFlag
 7064:     CB3F D6 DA                          ldab    <DRBPointer3
 7065:     CB41 E1 01                          cmpb    $01,x
 7066:     CB43 27 05                          beq     loc_CB4A
 7067:     CB45 53                             comb
 7068:     CB46 E1 01                          cmpb    $01,x
 7069:     CB48 26 2B                          bne     loc_CB75
 7070:                                 
 7071:     CB4A                        loc_CB4A:
 7072:     CB4A D6 D9                          ldab    <DRBPointer2
 7073:     CB4C E1 00                          cmpb    $00,x
 7074:     CB4E 26 29                          bne     loc_CB79
 7075:     CB50 3A                             abx
 7076:     CB51 A6 01                          ldaa    $01,x
 7077:     CB53 81 39                          cmpa    #$39
 7078:     CB55 26 CC                          bne     loc_CB23
 7079:     CB57 CE 64C9                        ldx     #DRB_ProgramModeFlag
 7080:     CB5A 4F                             clra
 7081:                                 
 7082:     CB5B                        loc_CB5B:
 7083:     CB5B 08                             inx
 7084:     CB5C AB 01                          adda    $01,x
 7085:     CB5E 5A                             decb
 7086:     CB5F 26 FA                          bne     loc_CB5B
 7087:     CB61 91 DA                          cmpa    <DRBPointer3
 7088:     CB63 27 09                          beq     loc_CB6E
 7089:     CB65 D6 DA                          ldab    <DRBPointer3
 7090:     CB67 53                             comb
 7091:     CB68 11                             cba
 7092:     CB69 26 0A                          bne     loc_CB75
 7093:     CB6B 7E 64CB                        jmp     DRB_SpecialProgramRoutine
 7094:                                 
 7095:     CB6E                        loc_CB6E:
 7096:     CB6E 73 00DA                        com     DRBPointer3
 7097:     CB71 86 E4                          ldaa    #$E4
 7098:     CB73 20 30                          bra     loc_CBA5
 7099:                                 
 7100:     CB75                        loc_CB75:
 7101:     CB75 86 01                          ldaa    #$01
 7102:     CB77 20 06                          bra     loc_CB7F
 7103:                                 
 7104:     CB79                        loc_CB79:
 7105:     CB79 86 02                          ldaa    #$02
 7106:     CB7B 20 02                          bra     loc_CB7F
 7107:                                 
 7108:     CB7D                        loc_CB7D:
 7109:     CB7D 86 03                          ldaa    #$03
 7110:                                 
 7111:     CB7F                        loc_CB7F:
 7112:     CB7F 7F 00D8                        clr     DRBPointer1
 7113:     CB82 20 21                          bra     loc_CBA5
 7114:                                 
 7115:     CB84                        DRB_Special1:
 7116:     CB84 96 D9                          ldaa    <DRBPointer2
 7117:     CB86 26 05                          bne     loc_CB8D
 7118:     CB88 15 2A 01                       bclr    <BitFlags2a $01
 7119:     CB8B 20 96                          bra     loc_CB23
 7120:                                 
 7121:     CB8D                        loc_CB8D:
 7122:     CB8D 96 DA                          ldaa    <DRBPointer3
 7123:     CB8F 26 17                          bne     loc_CBA8
 7124:     CB91 12 22 80 E4                    brset   <BitFlags66_t3 $80 loc_CB79
 7125:     CB95 12 27 01 04                    brset   <BitFlags27 $01 loc_CB9D
 7126:     CB99 12 25 10 E0                    brset   <BitFlags68_t3 $10 loc_CB7D
 7127:                                 
 7128:     CB9D                        loc_CB9D:
 7129:     CB9D 43                             coma
 7130:     CB9E 97 DA                          staa    <DRBPointer3
 7131:     CBA0 86 01                          ldaa    #$01
 7132:     CBA2 14 2A 01                       bset    <BitFlags2a $01
 7133:                                 
 7134:     CBA5                        loc_CBA5:
 7135:     CBA5 7E CD22                        jmp     sub_CD22
 7136:                                 
 7137:     CBA8                        loc_CBA8:
 7138:     CBA8 12 22 80 08                    brset   <BitFlags66_t3 $80 loc_CBB4
 7139:     CBAC 12 27 01 07                    brset   <BitFlags27 $01 locret_CBB7
 7140:     CBB0 13 25 10 03                    brclr   <BitFlags68_t3 $10 locret_CBB7
 7141:                                 
 7142:     CBB4                        loc_CBB4:
 7143:     CBB4 7F 00D8                        clr     DRBPointer1
 7144:                                 
 7145:     CBB7                        locret_CBB7:
 7146:     CBB7 39                             rts
 7147:                                 
 7148:     CBB8                        DRB_Special2:
 7149:     CBB8 96 DA                          ldaa    <DRBPointer3
 7150:     CBBA 27 25                          beq     loc_CBE1
 7151:     CBBC 96 D9                          ldaa    <DRBPointer2
 7152:     CBBE 81 01                          cmpa    #$01
 7153:     CBC0 27 0A                          beq     loc_CBCC
 7154:     CBC2 81 02                          cmpa    #$02
 7155:     CBC4 27 0A                          beq     loc_CBD0
 7156:     CBC6 81 03                          cmpa    #$03
 7157:     CBC8 27 0A                          beq     loc_CBD4
 7158:     CBCA 20 E8                          bra     loc_CBB4
 7159:                                 
 7160:     CBCC                        loc_CBCC:
 7161:     CBCC DC 46                          ldd     <EngineRpm_HB
 7162:     CBCE 20 06                          bra     loc_CBD6
 7163:                                 
 7164:     CBD0                        loc_CBD0:
 7165:     CBD0 DC 6F                          ldd     <InjectorPulsewidth_HB
 7166:     CBD2 20 02                          bra     loc_CBD6
 7167:                                 
 7168:     CBD4                        loc_CBD4:
 7169:     CBD4 DC 6D                          ldd     <TargetIdleSpeedHB
 7170:                                 
 7171:     CBD6                        loc_CBD6:
 7172:     CBD6 F7 6499                        stab    Temp0
 7173:     CBD9 BD CD22                        jsr     sub_CD22
 7174:     CBDC B6 6499                        ldaa    Temp0
 7175:     CBDF 20 C4                          bra     loc_CBA5
 7176:                                 
 7177:     CBE1                        loc_CBE1:
 7178:     CBE1 43                             coma
 7179:     CBE2 97 DA                          staa    <DRBPointer3
 7180:     CBE4 39                             rts
 7181:                                 
 7182:     CBE5                        DRB_ClearAdaptiveMemory:
 7183:     CBE5 7F 00D8                        clr     DRBPointer1
 7184:     CBE8 D6 35                          ldab    <TimerOverflowsBetweenCamPulses
 7185:     CBEA C1 50                          cmpb    #$50
 7186:     CBEC 23 02                          bls     loc_CBF0
 7187:     CBEE 20 04                          bra     loc_CBF4
 7188:                                 
 7189:     CBF0                        loc_CBF0:
 7190:     CBF0 4F                             clra
 7191:     CBF1 7E CD22                        jmp     sub_CD22
 7192:                                 
 7193:     CBF4                        loc_CBF4:
 7194:     CBF4 96 D9                          ldaa    <DRBPointer2
 7195:     CBF6 81 01                          cmpa    #$01
 7196:     CBF8 27 11                          beq     loc_CC0B
 7197:     CBFA 81 02                          cmpa    #$02
 7198:     CBFC 27 1E                          beq     loc_CC1C
 7199:     CBFE 81 03                          cmpa    #$03
 7200:     CC00 27 22                          beq     loc_CC24
 7201:     CC02 81 04                          cmpa    #$04
 7202:     CC04 27 2A                          beq     loc_CC30
 7203:     CC06 86 01                          ldaa    #$01
 7204:     CC08 7E CD22                        jmp     sub_CD22
 7205:                                 
 7206:     CC0B                        loc_CC0B:
 7207:     CC0B 13 26 40 05                    brclr   <BitFlags6a_t3 $40 loc_CC14
 7208:     CC0F 86 02                          ldaa    #$02
 7209:     CC11 7E CD22                        jmp     sub_CD22
 7210:                                 
 7211:     CC14                        loc_CC14:
 7212:     CC14 BD CC37                        jsr     sub_CC37
 7213:                                 
 7214:     CC17                        loc_CC17:
 7215:     CC17 86 F0                          ldaa    #$F0
 7216:     CC19 7E CD22                        jmp     sub_CD22
 7217:                                 
 7218:     CC1C                        loc_CC1C:
 7219:     CC1C 86 80                          ldaa    #$80
 7220:     CC1E 97 0A                          staa    <ValueFromAdaptiveMemory
 7221:     CC20 97 0B                          staa    <Ram_0B
 7222:     CC22 20 F3                          bra     loc_CC17
 7223:                                 
 7224:     CC24                        loc_CC24:
 7225:     CC24 0F                             sei
 7226:     CC25 14 07 40                       bset    <BitFlags36_t3 $40
 7227:     CC28 86 DF                          ldaa    #$DF
 7228:     CC2A 97 08                          staa    <CurrentAisPosition
 7229:     CC2C 0E                             cli
 7230:     CC2D 7E CC17                        jmp     loc_CC17
 7231:                                 
 7232:     CC30                        loc_CC30:
 7233:     CC30 B6 801B                        ldaa    byte_801B
 7234:     CC33 97 06                          staa    <LowestSessionTpsVolts
 7235:     CC35 20 E0                          bra     loc_CC17
 7236:                                 
 7237:     CC37                        sub_CC37:
 7238:     CC37 4F                             clra
 7239:     CC38 5F                             clrb
 7240:     CC39 DD 15                          std     <ErrorBitRegister0
 7241:     CC3B DD 17                          std     <ErrorBitRegister2
 7242:     CC3D DD 19                          std     <ErrorBitRegisterStored0
 7243:     CC3F DD 1B                          std     <ErrorBitRegisterStored2
 7244:     CC41 DD 1D                          std     <ErrorCodeUpdateKeyOnCount
 7245:     CC43 97 1F                          staa    <ErrorCodeUpdateKeyOnCount3
 7246:     CC45 DD D5                          std     <b5C_IPL1_t3
 7247:     CC47 97 D7                          staa    <b5d_IPL2
 7248:     CC49 B7 64B9                        staa    UNe_64B9
 7249:     CC4C BD E9F1                        jsr     sub_E9F1
 7250:     CC4F 39                             rts
 7251:                                 
 7252:     CC50                        off_CC50:
 7253:     CC50 CD2B                           fdb OutputErrorCodes
 7254:     CC52 CD57                           fdb OutputErrorBits
 7255:     CC54 CD67                           fdb SetupHiSpeedDataTransfer
 7256:     CC56 CCE1                           fdb SetupATM
 7257:     CC58 CD79                           fdb DRB_Return
 7258:     CC5A CAAA                           fdb SendECUIDToSCI
 7259:     CC5C CD81                           fdb SendConstValues
 7260:     CC5E CCA3                           fdb ClearErrorCodes
 7261:     CC60 CD79                           fdb DRB_Return
 7262:     CC62 CD79                           fdb DRB_Return
 7263:     CC64 CD79                           fdb DRB_Return
 7264:     CC66 CD7A                           fdb InitByteModeDownload
 7265:     CC68 CAE6                           fdb DRB_ResetEMR
 7266:     CC6A CB05                           fdb DRB_UseRAMForSpecialProgramRoutine
 7267:     CC6C CB0A                           fdb DRB_UseRAM2ForSpecialProgramRoutine
 7268:     CC6E CB0F                           fdb DRB_CheckSpecialProgramSize
 7269:     CC70 CB3C                           fdb DRB_SpecialProgramMode
 7270:     CC72 CB84                           fdb DRB_Special1
 7271:     CC74 CBB8                           fdb DRB_Special2
 7272:     CC76 CBE5                           fdb DRB_ClearAdaptiveMemory
 7273:                                 
 7274:     CC78                        sub_CC78:
 7275:     CC78 96 DB                          ldaa    <DRBSerialMode
 7276:     CC7A 85 30                          bita    #$30
 7277:     CC7C 27 01                          beq     loc_CC7F
 7278:     CC7E 39                             rts
 7279:                                 
 7280:     CC7F                        loc_CC7F:
 7281:     CC7F 96 D8                          ldaa    <DRBPointer1
 7282:     CC81 27 1F                          beq     locret_CCA2
 7283:     CC83 81 0A                          cmpa    #$0A
 7284:     CC85 27 1B                          beq     locret_CCA2
 7285:     CC87 16                             tab
 7286:     CC88 CE CC50                        ldx     #off_CC50
 7287:     CC8B C0 10                          subb    #$10
 7288:     CC8D 25 0A                          bcs     loc_CC99
 7289:     CC8F 58                             aslb
 7290:     CC90 C1 28                          cmpb    #$28
 7291:     CC92 24 05                          bcc     loc_CC99
 7292:     CC94 3A                             abx
 7293:     CC95 EE 00                          ldx     $00,x
 7294:     CC97 6E 00                          jmp     $00,x
 7295:                                 
 7296:     CC99                        loc_CC99:
 7297:     CC99 15 DB 30                       bclr    <DRBSerialMode $30
 7298:     CC9C 4F                             clra
 7299:     CC9D 97 D8                          staa    <DRBPointer1
 7300:     CC9F 7E CD22                        jmp     sub_CD22
 7301:                                 
 7302:     CCA2                        locret_CCA2:
 7303:     CCA2 39                             rts
 7304:                                 
 7305:     CCA3                        ClearErrorCodes:
 7306:     CCA3 4F                             clra
 7307:     CCA4 D6 35                          ldab    <TimerOverflowsBetweenCamPulses
 7308:     CCA6 C1 50                          cmpb    #$50
 7309:     CCA8 22 08                          bhi     loc_CCB2
 7310:     CCAA 97 D8                          staa    <DRBPointer1
 7311:     CCAC 15 DB 30                       bclr    <DRBSerialMode $30
 7312:     CCAF 7E CD22                        jmp     sub_CD22
 7313:                                 
 7314:     CCB2                        loc_CCB2:
 7315:     CCB2 D6 DB                          ldab    <DRBSerialMode
 7316:     CCB4 C4 0F                          andb    #$0F
 7317:     CCB6 C1 03                          cmpb    #$03
 7318:     CCB8 23 03                          bls     loc_CCBD
 7319:     CCBA 7F 64B3                        clr     BitFlags65_t3
 7320:                                 
 7321:     CCBD                        loc_CCBD:
 7322:     CCBD B6 64B3                        ldaa    BitFlags65_t3
 7323:     CCC0 4C                             inca
 7324:     CCC1 81 18                          cmpa    #$18
 7325:     CCC3 23 12                          bls     loc_CCD7
 7326:     CCC5 12 26 40 11                    brset   <BitFlags6a_t3 $40 loc_CCDA
 7327:     CCC9 4F                             clra
 7328:     CCCA 97 D8                          staa    <DRBPointer1
 7329:     CCCC B7 64B3                        staa    BitFlags65_t3
 7330:     CCCF BD CC37                        jsr     sub_CC37
 7331:     CCD2 86 E0                          ldaa    #$E0
 7332:     CCD4 7E CD22                        jmp     sub_CD22
 7333:                                 
 7334:     CCD7                        loc_CCD7:
 7335:     CCD7 B7 64B3                        staa    BitFlags65_t3
 7336:                                 
 7337:     CCDA                        loc_CCDA:
 7338:     CCDA CC FF00                        ldd     #$FF00
 7339:     CCDD D7 D8                          stab    <DRBPointer1
 7340:     CCDF 20 41                          bra     sub_CD22
 7341:                                 
 7342:     CCE1                        SetupATM:
 7343:     CCE1 D6 35                          ldab    <TimerOverflowsBetweenCamPulses
 7344:     CCE3 C1 50                          cmpb    #$50
 7345:     CCE5 23 2C                          bls     loc_CD13
 7346:     CCE7 96 D9                          ldaa    <DRBPointer2
 7347:     CCE9 48                             asla
 7348:     CCEA 25 27                          bcs     loc_CD13
 7349:     CCEC 81 4E                          cmpa    #$4E
 7350:     CCEE 22 23                          bhi     loc_CD13
 7351:     CCF0 CE CDDB                        ldx     #ATMFunctionTable - $02
 7352:     CCF3 D6 D9                          ldab    <DRBPointer2
 7353:     CCF5 58                             aslb
 7354:     CCF6 3A                             abx
 7355:     CCF7 EC 00                          ldd     $00,x
 7356:     CCF9 1A83 D09C                      cpd     #ATM_SerialOut_0
 7357:     CCFD 27 14                          beq     loc_CD13
 7358:     CCFF 96 D9                          ldaa    <DRBPointer2
 7359:     CD01 12 27 01 06                    brset   <BitFlags27 $01 loc_CD0B
 7360:     CD05 81 17                          cmpa    #$17
 7361:     CD07 27 0A                          beq     loc_CD13
 7362:     CD09 20 0D                          bra     loc_CD18
 7363:                                 
 7364:     CD0B                        loc_CD0B:
 7365:     CD0B 81 0F                          cmpa    #$0F
 7366:     CD0D 27 04                          beq     loc_CD13
 7367:     CD0F 81 16                          cmpa    #$16
 7368:     CD11 26 05                          bne     loc_CD18
 7369:                                 
 7370:     CD13                        loc_CD13:
 7371:     CD13 4F                             clra
 7372:     CD14 97 D8                          staa    <DRBPointer1
 7373:     CD16 97 D9                          staa    <DRBPointer2
 7374:                                 
 7375:     CD18                        loc_CD18:
 7376:     CD18 91 E0                          cmpa    <ATMOffset
 7377:     CD1A 27 06                          beq     sub_CD22
 7378:     CD1C 97 E0                          staa    <ATMOffset
 7379:     CD1E C6 02                          ldab    #$02
 7380:     CD20 D7 44                          stab    <KeyOnOrEngineRunningTime
 7381:                                 
 7382:     CD22                        sub_CD22:
 7383:     CD22 F6 102E                        ldab    SCSR_SerialStatus
 7384:     CD25 2A FB                          bpl     sub_CD22
 7385:     CD27 B7 102F                        staa    SCDR_SerialData
 7386:     CD2A 39                             rts
 7387:                                 
 7388:     CD2B                        OutputErrorCodes:
 7389:     CD2B CE 0015                        ldx     #$0015
 7390:     CD2E D6 D9                          ldab    <DRBPointer2
 7391:     CD30 C1 07                          cmpb    #$07
 7392:     CD32 22 0D                          bhi     loc_CD41
 7393:     CD34 50                             negb
 7394:     CD35 CB 07                          addb    #$07
 7395:     CD37 3A                             abx
 7396:     CD38 7C 00D9                        inc     DRBPointer2
 7397:     CD3B A6 00                          ldaa    $00,x
 7398:     CD3D 27 02                          beq     loc_CD41
 7399:     CD3F 20 E1                          bra     sub_CD22
 7400:                                 
 7401:     CD41                        loc_CD41:
 7402:     CD41 7F 00D8                        clr     DRBPointer1
 7403:     CD44 86 FE                          ldaa    #$FE
 7404:     CD46 8D DA                          bsr     sub_CD22
 7405:     CD48 8B 10                          adda    #$10
 7406:     CD4A CE 0014                        ldx     #$0014
 7407:                                 
 7408:     CD4D                        loc_CD4D:
 7409:     CD4D 08                             inx
 7410:     CD4E 8C 001D                        cpx     #$001D
 7411:     CD51 24 CF                          bcc     sub_CD22
 7412:     CD53 AB 00                          adda    $00,x
 7413:     CD55 20 F6                          bra     loc_CD4D
 7414:                                 
 7415:     CD57                        OutputErrorBits:
 7416:     CD57 96 DC                          ldaa    <ErrorBitsAssociatedWithPIA1AndReg1eTo25_HB
 7417:     CD59 13 D9 FF 05                    brclr   <DRBPointer2 $FF loc_CD62
 7418:     CD5D 96 DD                          ldaa    <ErrorBitsAssociatedWithPIA1AndReg1eTo25_LB
 7419:     CD5F 7F 00D8                        clr     DRBPointer1
 7420:                                 
 7421:     CD62                        loc_CD62:
 7422:     CD62 7C 00D9                        inc     DRBPointer2
 7423:     CD65 20 BB                          bra     sub_CD22
 7424:                                 
 7425:     CD67                        SetupHiSpeedDataTransfer:
 7426:     CD67 14 DB 80                       bset    <DRBSerialMode $80
 7427:     CD6A 7F 00D8                        clr     DRBPointer1
 7428:                                 
 7429:     CD6D                        loc_CD6D:
 7430:     CD6D B6 102E                        ldaa    SCSR_SerialStatus
 7431:     CD70 85 40                          bita    #$40
 7432:     CD72 27 F9                          beq     loc_CD6D
 7433:     CD74 86 01                          ldaa    #$01
 7434:     CD76 B7 102B                        staa    BAUD_SerialBaudRate
 7435:                                 
 7436:     CD79                        DRB_Return:
 7437:     CD79 39                             rts
 7438:                                 
 7439:     CD7A                        InitByteModeDownload:
 7440:     CD7A 14 DB 40                       bset    <DRBSerialMode $40
 7441:     CD7D 7F 00D8                        clr     DRBPointer1
 7442:     CD80 39                             rts
 7443:                                 
 7444:     CD81                        SendConstValues:
 7445:     CD81 96 D9                          ldaa    <DRBPointer2
 7446:     CD83 81 80                          cmpa    #$80
 7447:     CD85 27 0C                          beq     loc_CD93
 7448:     CD87 81 81                          cmpa    #$81
 7449:     CD89 27 33                          beq     loc_CDBE
 7450:     CD8B 81 82                          cmpa    #$82
 7451:     CD8D 27 34                          beq     loc_CDC3
 7452:     CD8F 7F 00D8                        clr     DRBPointer1
 7453:     CD92 39                             rts
 7454:                                 
 7455:     CD93                        loc_CD93:
 7456:     CD93 CE 8002                        ldx     #unk_8002
 7457:     CD96 13 26 02 03                    brclr   <BitFlags6a_t3 $02 loc_CD9D
 7458:     CD9A CE 8007                        ldx     #unk_8007
 7459:                                 
 7460:     CD9D                        loc_CD9D:
 7461:     CD9D D6 DA                          ldab    <DRBPointer3
 7462:     CD9F C1 04                          cmpb    #$04
 7463:     CDA1 27 09                          beq     loc_CDAC
 7464:     CDA3 7C 00DA                        inc     DRBPointer3
 7465:     CDA6 3A                             abx
 7466:     CDA7 A6 00                          ldaa    $00,x
 7467:     CDA9 7E CD22                        jmp     sub_CD22
 7468:                                 
 7469:     CDAC                        loc_CDAC:
 7470:     CDAC A6 00                          ldaa    $00,x
 7471:     CDAE AB 01                          adda    $01,x
 7472:     CDB0 AB 02                          adda    $02,x
 7473:     CDB2 AB 03                          adda    $03,x
 7474:                                 
 7475:     CDB4                        loc_CDB4:
 7476:     CDB4 8B 16                          adda    #$16
 7477:     CDB6 9B D9                          adda    <DRBPointer2
 7478:     CDB8 7F 00D8                        clr     DRBPointer1
 7479:                                 
 7480:     CDBB                        loc_CDBB:
 7481:     CDBB 7E CD22                        jmp     sub_CD22
 7482:                                 
 7483:     CDBE                        loc_CDBE:
 7484:     CDBE CE 800D                        ldx     #unk_800D
 7485:     CDC1 20 DA                          bra     loc_CD9D
 7486:                                 
 7487:     CDC3                        loc_CDC3:
 7488:     CDC3 7C 00DA                        inc     DRBPointer3
 7489:     CDC6 B6 8006                        ldaa    byte_8006
 7490:     CDC9 13 26 02 03                    brclr   <BitFlags6a_t3 $02 loc_CDD0
 7491:     CDCD B6 800B                        ldaa    byte_800B
 7492:                                 
 7493:     CDD0                        loc_CDD0:
 7494:     CDD0 D6 DA                          ldab    <DRBPointer3
 7495:     CDD2 C1 01                          cmpb    #$01
 7496:     CDD4 27 E5                          beq     loc_CDBB
 7497:     CDD6 C1 05                          cmpb    #$05
 7498:     CDD8 24 DA                          bcc     loc_CDB4
 7499:     CDDA 4F                             clra
 7500:     CDDB 20 DE                          bra     loc_CDBB
 7501:                                 
 7502:     CDDD                        ATMFunctionTable:
 7503:     CDDD CFBD                           fdb ATM_IgnitionCoil1
 7504:     CDDF D09C                           fdb ATM_SerialOut_0
 7505:     CDE1 D09C                           fdb ATM_SerialOut_0
 7506:     CDE3 D067                           fdb ATM_InjBank4
 7507:     CDE5 D062                           fdb ATM_InjBank3
 7508:     CDE7 D05D                           fdb ATM_InjBank2
 7509:     CDE9 CF4E                           fdb ATM_AISMotorOpenClose
 7510:     CDEB CF25                           fdb ATM_FanRelay
 7511:     CDED CF16                           fdb ATM_ACClutchRelay
 7512:     CDEF CEC0                           fdb ATM_ASDRelay
 7513:     CDF1 CEB4                           fdb ATM_PurgeSolenoid
 7514:     CDF3 CEA0                           fdb ATM_SCServoSolenoid
 7515:     CDF5 CF99                           fdb ATM_Tachometer
 7516:     CDF7 D091                           fdb ATM_PTUIndicator
 7517:     CDF9 CF33                           fdb ATM_EGRSolenoid
 7518:     CDFB CF0A                           fdb Lce9f
 7519:     CDFD D09C                           fdb ATM_SerialOut_0
 7520:     CDFF D09C                           fdb ATM_SerialOut_0
 7521:     CE01 D09C                           fdb ATM_SerialOut_0
 7522:     CE03 CF5B                           fdb ATM_AllSolenoidsRelays
 7523:     CE05 CEFE                           fdb Lce93
 7524:     CE07 CF3F                           fdb Lced4
 7525:     CE09 CF33                           fdb ATM_EGRSolenoid
 7526:     CE0B D09C                           fdb ATM_SerialOut_0
 7527:     CE0D D09C                           fdb ATM_SerialOut_0
 7528:     CE0F D09C                           fdb ATM_SerialOut_0
 7529:     CE11 D09C                           fdb ATM_SerialOut_0
 7530:     CE13 CED9                           fdb ATM_BaroReadSolenoid
 7531:     CE15 D058                           fdb ATM_InjBank1
 7532:     CE17 D01D                           fdb Lcfb2
 7533:     CE19 D00D                           fdb Lcfa2
 7534:     CE1B D09C                           fdb ATM_SerialOut_0
 7535:     CE1D D09C                           fdb ATM_SerialOut_0
 7536:     CE1F D09C                           fdb ATM_SerialOut_0
 7537:     CE21 D09C                           fdb ATM_SerialOut_0
 7538:     CE23 D09C                           fdb ATM_SerialOut_0
 7539:     CE25 D09C                           fdb ATM_SerialOut_0
 7540:     CE27 D09C                           fdb ATM_SerialOut_0
 7541:                                         ;fdb loc_D004 ; included in V8 function table
 7542:                                         ;fdb loc_CFF4 ; included in V8 function table
 7543:     CE29 CE                             fcb $CE
 7544:                                 
 7545:     CE2A                        Byt_DRBMemoryTable:
 7546:     CE2A DF                             fcb $DF
 7547:     CE2B FF                             fcb $FF
 7548:     CE2C 53                             fcb $53
 7549:     CE2D FF                             fcb $FF
 7550:     CE2E FF                             fcb $FF
 7551:     CE2F 54                             fcb $54
 7552:     CE30 59                             fcb $59
 7553:     CE31 5A                             fcb $5A
 7554:     CE32 06                             fcb $06
 7555:     CE33 FF                             fcb $FF
 7556:     CE34 5B                             fcb $5B
 7557:     CE35 50                             fcb $50
 7558:     CE36 08                             fcb $08
 7559:     CE37 0A                             fcb $0A
 7560:     CE38 0B                             fcb $0B
 7561:     CE39 0D                             fcb $0D
 7562:     CE3A 46                             fcb $46
 7563:     CE3B 46                             fcb $46
 7564:     CE3C FF                             fcb $FF
 7565:     CE3D 1D                             fcb $1D
 7566:     CE3E FF                             fcb $FF
 7567:     CE3F 4E                             fcb $4E
 7568:     CE40 FF                             fcb $FF
 7569:     CE41 FF                             fcb $FF
 7570:     CE42 FF                             fcb $FF
 7571:     CE43 FF                             fcb $FF
 7572:     CE44 FF                             fcb $FF
 7573:     CE45 52                             fcb $52
 7574:     CE46 58                             fcb $58
 7575:     CE47 C4                             fcb $C4
 7576:     CE48 1E                             fcb $1E
 7577:     CE49 1F                             fcb $1F
 7578:     CE4A 33                             fcb $33
 7579:     CE4B FF                             fcb $FF
 7580:     CE4C 4B                             fcb $4B
 7581:     CE4D 65                             fcb $65
 7582:     CE4E 64                             fcb $64
 7583:     CE4F FF                             fcb $FF
 7584:     CE50 FF                             fcb $FF
 7585:     CE51 E1                             fcb $E1
 7586:     CE52 FF                             fcb $FF
 7587:     CE53 FF                             fcb $FF
 7588:     CE54 FF                             fcb $FF
 7589:     CE55 FF                             fcb $FF
 7590:     CE56 FF                             fcb $FF
 7591:     CE57 67                             fcb $67
 7592:                                 
 7593:     CE58                        off_CE58:
 7594:     CE58 D108                           fdb SCI_MAPVolts
 7595:     CE5A D119                           fdb SCI_Speed
 7596:     CE5C D11D                           fdb SCI_O2Volts
 7597:     CE5E D132                           fdb SCI_Ld0c7
 7598:     CE60 D135                           fdb SCI_Ld0ca
 7599:     CE62 D138                           fdb SendBaro
 7600:     CE64 D142                           fdb SendTPS
 7601:                                 
 7602:     CE66                        off_CE66:
 7603:     CE66 D15A                           fdb SCI_Ld0ef
 7604:     CE68 D0E6                           fdb SCI_LD07B
 7605:     CE6A D0F7                           fdb SCI_Ld08c
 7606:     CE6C D0FB                           fdb SCI_Ld090
 7607:     CE6E D101                           fdb SCI_Ld096
 7608:                                 
 7609:     CE70                        sub_CE70:
 7610:     CE70 96 35                          ldaa    <TimerOverflowsBetweenCamPulses
 7611:     CE72 81 50                          cmpa    #$50
 7612:     CE74 22 03                          bhi     loc_CE79
 7613:     CE76 7F 00E0                        clr     ATMOffset
 7614:                                 
 7615:     CE79                        loc_CE79:
 7616:     CE79 D6 E0                          ldab    <ATMOffset
 7617:     CE7B 26 03                          bne     loc_CE80
 7618:     CE7D 7E D09C                        jmp     ATM_SerialOut_0
 7619:                                 
 7620:     CE80                        loc_CE80:
 7621:     CE80 96 44                          ldaa    <KeyOnOrEngineRunningTime
 7622:     CE82 81 96                          cmpa    #$96
 7623:     CE84 25 11                          bcs     loc_CE97
 7624:     CE86 5F                             clrb
 7625:     CE87 96 D8                          ldaa    <DRBPointer1
 7626:     CE89 81 13                          cmpa    #$13
 7627:     CE8B 26 04                          bne     loc_CE91
 7628:     CE8D D7 D8                          stab    <DRBPointer1
 7629:     CE8F D7 D9                          stab    <DRBPointer2
 7630:                                 
 7631:     CE91                        loc_CE91:
 7632:     CE91 7F 00E0                        clr     ATMOffset
 7633:     CE94 7E D09C                        jmp     ATM_SerialOut_0
 7634:                                 
 7635:     CE97                        loc_CE97:
 7636:     CE97 CE CDDB                        ldx     #ATMFunctionTable - $02
 7637:     CE9A 58                             aslb
 7638:     CE9B 3A                             abx
 7639:     CE9C EE 00                          ldx     $00,x
 7640:     CE9E 6E 00                          jmp     $00,x
 7641:                                 
 7642:     CEA0                        ATM_SCServoSolenoid:
 7643:     CEA0 96 CE                          ldaa    <PIA2_Buffer_t3
 7644:     CEA2 8A C0                          oraa    #$C0
 7645:     CEA4 D6 45                          ldab    <Counter_MainLoop
 7646:     CEA6 C1 55                          cmpb    #$55
 7647:     CEA8 25 76                          bcs     loc_CF20
 7648:     CEAA 84 3F                          anda    #$3F
 7649:     CEAC C1 AA                          cmpb    #$AA
 7650:     CEAE 25 70                          bcs     loc_CF20
 7651:     CEB0 8A 80                          oraa    #$80
 7652:     CEB2 20 6C                          bra     loc_CF20
 7653:                                 
 7654:     CEB4                        ATM_PurgeSolenoid:
 7655:     CEB4 96 CE                          ldaa    <PIA2_Buffer_t3
 7656:     CEB6 8A 20                          oraa    #$20
 7657:     CEB8 12 45 80 64                    brset   <Counter_MainLoop $80 loc_CF20
 7658:     CEBC 84 DF                          anda    #$DF
 7659:     CEBE 20 60                          bra     loc_CF20
 7660:                                 
 7661:     CEC0                        ATM_ASDRelay:
 7662:     CEC0 B6 1020                        ldaa    TCTL1_TimerControlReg1
 7663:     CEC3 84 FE                          anda    #$FE
 7664:     CEC5 B7 1020                        staa    TCTL1_TimerControlReg1
 7665:     CEC8 86 08                          ldaa    #$08
 7666:     CECA B7 100B                        staa    CFORC_TimerForceCompare
 7667:     CECD 96 CE                          ldaa    <PIA2_Buffer_t3
 7668:     CECF 8A 10                          oraa    #$10
 7669:     CED1 12 45 80 4B                    brset   <Counter_MainLoop $80 loc_CF20
 7670:     CED5 84 EF                          anda    #$EF
 7671:     CED7 20 47                          bra     loc_CF20
 7672:                                 
 7673:     CED9                        ATM_BaroReadSolenoid:
 7674:     CED9 96 CE                          ldaa    <PIA2_Buffer_t3
 7675:     CEDB 84 EF                          anda    #$EF
 7676:     CEDD 20 41                          bra     loc_CF20
 7677:     CEDF 12 27 08 0C                    brset   <BitFlags27 $08 loc_CEEF
 7678:     CEE3 96 CE                          ldaa    <PIA2_Buffer_t3
 7679:     CEE5 8A 08                          oraa    #$08
 7680:     CEE7 12 45 80 35                    brset   <Counter_MainLoop $80 loc_CF20
 7681:     CEEB 84 F7                          anda    #$F7
 7682:     CEED 20 31                          bra     loc_CF20
 7683:                                 
 7684:     CEEF                        loc_CEEF:
 7685:     CEEF 96 CD                          ldaa    <PIA1_Buffer_t3
 7686:     CEF1 8A 80                          oraa    #$80
 7687:     CEF3 12 45 80 02                    brset   <Counter_MainLoop $80 loc_CEF9
 7688:     CEF7 84 7F                          anda    #$7F
 7689:                                 
 7690:     CEF9                        loc_CEF9:
 7691:     CEF9 97 CD                          staa    <PIA1_Buffer_t3
 7692:     CEFB 7E D09C                        jmp     ATM_SerialOut_0
 7693:                                 
 7694:     CEFE                        Lce93:
 7695:     CEFE 96 CE                          ldaa    <PIA2_Buffer_t3
 7696:     CF00 8A 04                          oraa    #$04
 7697:     CF02 12 45 80 1A                    brset   <Counter_MainLoop $80 loc_CF20
 7698:     CF06 84 FB                          anda    #$FB
 7699:     CF08 20 16                          bra     loc_CF20
 7700:                                 
 7701:     CF0A                        Lce9f:
 7702:     CF0A 96 CE                          ldaa    <PIA2_Buffer_t3
 7703:     CF0C 8A 02                          oraa    #$02
 7704:     CF0E 12 45 80 0E                    brset   <Counter_MainLoop $80 loc_CF20
 7705:     CF12 84 FD                          anda    #$FD
 7706:     CF14 20 0A                          bra     loc_CF20
 7707:                                 
 7708:     CF16                        ATM_ACClutchRelay:
 7709:     CF16 96 CE                          ldaa    <PIA2_Buffer_t3
 7710:     CF18 8A 01                          oraa    #$01
 7711:     CF1A 12 45 80 02                    brset   <Counter_MainLoop $80 loc_CF20
 7712:     CF1E 84 FE                          anda    #$FE
 7713:                                 
 7714:     CF20                        loc_CF20:
 7715:     CF20 97 CE                          staa    <PIA2_Buffer_t3
 7716:     CF22 7E D09C                        jmp     ATM_SerialOut_0
 7717:                                 
 7718:     CF25                        ATM_FanRelay:
 7719:     CF25 96 CD                          ldaa    <PIA1_Buffer_t3
 7720:     CF27 84 7F                          anda    #$7F
 7721:     CF29 D6 45                          ldab    <Counter_MainLoop
 7722:     CF2B C4 78                          andb    #$78
 7723:     CF2D 27 1A                          beq     loc_CF49
 7724:     CF2F 8A 80                          oraa    #$80
 7725:     CF31 20 16                          bra     loc_CF49
 7726:                                 
 7727:     CF33                        ATM_EGRSolenoid:
 7728:     CF33 96 CD                          ldaa    <PIA1_Buffer_t3
 7729:     CF35 8A 20                          oraa    #$20
 7730:     CF37 12 45 80 0E                    brset   <Counter_MainLoop $80 loc_CF49
 7731:     CF3B 84 DF                          anda    #$DF
 7732:     CF3D 20 0A                          bra     loc_CF49
 7733:                                 
 7734:     CF3F                        Lced4:
 7735:     CF3F 96 CD                          ldaa    <PIA1_Buffer_t3
 7736:     CF41 8A 10                          oraa    #$10
 7737:     CF43 12 45 80 02                    brset   <Counter_MainLoop $80 loc_CF49
 7738:     CF47 84 EF                          anda    #$EF
 7739:                                 
 7740:     CF49                        loc_CF49:
 7741:     CF49 97 CD                          staa    <PIA1_Buffer_t3
 7742:     CF4B 7E D09C                        jmp     ATM_SerialOut_0
 7743:                                 
 7744:     CF4E                        ATM_AISMotorOpenClose:
 7745:     CF4E 86 10                          ldaa    #$10
 7746:     CF50 12 45 80 02                    brset   <Counter_MainLoop $80 loc_CF56
 7747:     CF54 86 70                          ldaa    #$70
 7748:                                 
 7749:     CF56                        loc_CF56:
 7750:     CF56 97 69                          staa    <DesiredNewAisPosition
 7751:     CF58 7E D09C                        jmp     ATM_SerialOut_0
 7752:                                 
 7753:     CF5B                        ATM_AllSolenoidsRelays:
 7754:     CF5B DC CD                          ldd     <PIA1_Buffer_t3
 7755:     CF5D 8A 10                          oraa    #$10
 7756:     CF5F 12 27 01 02                    brset   <BitFlags27 $01 loc_CF65
 7757:     CF63 8A 20                          oraa    #$20
 7758:                                 
 7759:     CF65                        loc_CF65:
 7760:     CF65 12 27 08 04                    brset   <BitFlags27 $08 loc_CF6D
 7761:     CF69 CA EB                          orab    #$EB
 7762:     CF6B 20 04                          bra     loc_CF71
 7763:                                 
 7764:     CF6D                        loc_CF6D:
 7765:     CF6D 8A 80                          oraa    #$80
 7766:     CF6F CA E3                          orab    #$E3
 7767:                                 
 7768:     CF71                        loc_CF71:
 7769:     CF71 12 2D 10 02                    brset   <BitFlags2d $10 loc_CF77
 7770:     CF75 CA 10                          orab    #$10
 7771:                                 
 7772:     CF77                        loc_CF77:
 7773:     CF77 12 45 80 1A                    brset   <Counter_MainLoop $80 loc_CF95
 7774:     CF7B 84 EF                          anda    #$EF
 7775:     CF7D 12 27 01 02                    brset   <BitFlags27 $01 loc_CF83
 7776:     CF81 84 DF                          anda    #$DF
 7777:                                 
 7778:     CF83                        loc_CF83:
 7779:     CF83 12 27 08 04                    brset   <BitFlags27 $08 loc_CF8B
 7780:     CF87 C4 14                          andb    #$14
 7781:     CF89 20 04                          bra     loc_CF8F
 7782:                                 
 7783:     CF8B                        loc_CF8B:
 7784:     CF8B 84 7F                          anda    #$7F
 7785:     CF8D C4 1C                          andb    #$1C
 7786:                                 
 7787:     CF8F                        loc_CF8F:
 7788:     CF8F 12 2D 10 02                    brset   <BitFlags2d $10 loc_CF95
 7789:     CF93 C4 EF                          andb    #$EF
 7790:                                 
 7791:     CF95                        loc_CF95:
 7792:     CF95 DD CD                          std     <PIA1_Buffer_t3
 7793:     CF97 20 B5                          bra     ATM_AISMotorOpenClose
 7794:                                 
 7795:     CF99                        ATM_Tachometer:
 7796:     CF99 15 CE 10                       bclr    <PIA2_Buffer_t3 $10
 7797:     CF9C CE 6400                        ldx     #SwitchPortAccessReg1
 7798:     CF9F 0F                             sei
 7799:     CFA0 B6 6400                        ldaa    SwitchPortAccessReg1
 7800:     CFA3 84 FB                          anda    #$FB
 7801:     CFA5 12 45 80 02                    brset   <Counter_MainLoop $80 loc_CFAB
 7802:     CFA9 8A 04                          oraa    #$04
 7803:                                 
 7804:     CFAB                        loc_CFAB:
 7805:     CFAB B7 6400                        staa    SwitchPortAccessReg1
 7806:     CFAE 1C 02 04                       bset    $02,x $04
 7807:     CFB1 86 14                          ldaa    #$14
 7808:                                 
 7809:     CFB3                        loc_CFB3:
 7810:     CFB3 4A                             deca
 7811:     CFB4 26 FD                          bne     loc_CFB3
 7812:     CFB6 1D 02 04                       bclr    $02,x $04
 7813:     CFB9 0E                             cli
 7814:     CFBA 7E D09C                        jmp     ATM_SerialOut_0
 7815:                                 
 7816:     CFBD                        ATM_IgnitionCoil1:
 7817:     CFBD 15 CE 10                       bclr    <PIA2_Buffer_t3 $10
 7818:     CFC0 D6 45                          ldab    <Counter_MainLoop
 7819:     CFC2 58                             aslb
 7820:     CFC3 27 03                          beq     loc_CFC8
 7821:     CFC5 7E D09C                        jmp     ATM_SerialOut_0
 7822:                                 
 7823:     CFC8                        loc_CFC8:
 7824:     CFC8 0F                             sei
 7825:     CFC9 B6 1020                        ldaa    TCTL1_TimerControlReg1
 7826:     CFCC 8A 03                          oraa    #$03
 7827:     CFCE B7 1020                        staa    TCTL1_TimerControlReg1
 7828:     CFD1 C6 08                          ldab    #$08
 7829:     CFD3 F7 100B                        stab    CFORC_TimerForceCompare
 7830:     CFD6 FC 100E                        ldd     TCNT_Counter_FreeRunning16bit
 7831:     CFD9 C3 06D6                        addd    #$06D6
 7832:     CFDC FD 101E                        std     TOC5_Counter_OC5_Dwell
 7833:     CFDF B6 1020                        ldaa    TCTL1_TimerControlReg1
 7834:     CFE2 84 FE                          anda    #$FE
 7835:     CFE4 B7 1020                        staa    TCTL1_TimerControlReg1
 7836:     CFE7 0E                             cli
 7837:     CFE8 7E D09C                        jmp     ATM_SerialOut_0
 7838:                                 
 7839:     CFEB                        AtmToggleOC2:
 7840:     CFEB 40                             fcb $40
 7841:     CFEC                        AtmToggleOC2_ForceCompare:
 7842:     CFEC 40                             fcb $40
 7843:     CFED                        AtmClrOC2SetOC3SetOC4SetOC5:
 7844:     CFED BF                             fcb $BF
 7845:     CFEE                        AtmToggleOC3:
 7846:     CFEE 10                             fcb $10
 7847:     CFEF                        AtmToggleOC3_ForceCompare:
 7848:     CFEF 20                             fcb $20
 7849:     CFF0                        AtmSetOC2ClrOC3SetOC4SetOC5:
 7850:     CFF0 EF                             fcb $EF
 7851:     CFF1                        AtmToggleOC4:
 7852:     CFF1 04                             fcb $04
 7853:     CFF2                        AtmToggleOC4_ForceCompare:
 7854:     CFF2 10                             fcb $10
 7855:     CFF3                        AtmSetOC2SetOC3ClrOC4SetOC5:
 7856:     CFF3 FB                             fcb $FB
 7857:                                 
 7858:     CFF4                        loc_CFF4: ; found in V8 ATMFunctionTable #38
 7859:     CFF4 12 27 10 03                    brset   <BitFlags27 $10 loc_CFFB
 7860:     CFF8 7E D09C                        jmp     ATM_SerialOut_0
 7861:                                 
 7862:     CFFB                        loc_CFFB:
 7863:     CFFB CE 101C                        ldx     #TOC4_Counter_OC4
 7864:     CFFE 18CE CFF1                      ldy     #AtmToggleOC4
 7865:     D002 20 27                          bra     loc_D02B
 7866:                                 
 7867:     D004                        loc_D004: ; found in V8 ATMFunctionTable #37
 7868:     D004 12 27 10 03                    brset   <BitFlags27 $10 loc_D00B
 7869:     D008 7E D09C                        jmp     ATM_SerialOut_0
 7870:                                 
 7871:     D00B                        loc_D00B:
 7872:     D00B 20 07                          bra     loc_D014
 7873:                                 
 7874:     D00D                        Lcfa2:
 7875:     D00D 12 27 40 03                    brset   <BitFlags27 $40 loc_D014
 7876:     D011 7E D09C                        jmp     ATM_SerialOut_0
 7877:                                 
 7878:     D014                        loc_D014:
 7879:     D014 CE 101A                        ldx     #TOC3_Counter_OC3
 7880:     D017 18CE CFEE                      ldy     #AtmToggleOC3
 7881:     D01B 20 0E                          bra     loc_D02B
 7882:                                 
 7883:     D01D                        Lcfb2:
 7884:     D01D 12 27 40 03                    brset   <BitFlags27 $40 loc_D024
 7885:     D021 7E D09C                        jmp     ATM_SerialOut_0
 7886:                                 
 7887:     D024                        loc_D024:
 7888:     D024 CE 1018                        ldx     #TOC2_Counter_OC2
 7889:     D027 18CE CFEB                      ldy     #AtmToggleOC2
 7890:                                 
 7891:     D02B                        loc_D02B:
 7892:     D02B 15 CE 10                       bclr    <PIA2_Buffer_t3 $10
 7893:     D02E D6 45                          ldab    <Counter_MainLoop
 7894:     D030 58                             aslb
 7895:     D031 27 03                          beq     loc_D036
 7896:     D033 7E D09C                        jmp     ATM_SerialOut_0
 7897:                                 
 7898:     D036                        loc_D036:
 7899:     D036 0F                             sei
 7900:     D037 18EC 00                        ldd     $00,y
 7901:     D03A BA 1020                        oraa    TCTL1_TimerControlReg1
 7902:     D03D B7 1020                        staa    TCTL1_TimerControlReg1
 7903:     D040 F7 100B                        stab    CFORC_TimerForceCompare
 7904:     D043 FC 100E                        ldd     TCNT_Counter_FreeRunning16bit
 7905:     D046 C3 01A9                        addd    #$01A9
 7906:     D049 ED 00                          std     $00,x
 7907:     D04B 18A6 02                        ldaa    $02,y
 7908:     D04E B4 1020                        anda    TCTL1_TimerControlReg1
 7909:     D051 B7 1020                        staa    TCTL1_TimerControlReg1
 7910:     D054 0E                             cli
 7911:     D055 7E D09C                        jmp     ATM_SerialOut_0
 7912:                                 
 7913:     D058                        ATM_InjBank1:
 7914:     D058 CE 6408                        ldx     #InjectorPulsewidth_HB_Cyl1
 7915:     D05B 20 0D                          bra     loc_D06A
 7916:                                 
 7917:     D05D                        ATM_InjBank2:
 7918:     D05D CE 640A                        ldx     #InjectorPulsewidth_HB_Cyl2
 7919:     D060 20 08                          bra     loc_D06A
 7920:                                 
 7921:     D062                        ATM_InjBank3:
 7922:     D062 CE 640C                        ldx     #InjectorPulsewidth_HB_Cyl3
 7923:     D065 20 03                          bra     loc_D06A
 7924:                                 
 7925:     D067                        ATM_InjBank4:
 7926:     D067 CE 640E                        ldx     #InjectorPulsewidth_HB_Cyl4
 7927:                                 
 7928:     D06A                        loc_D06A:
 7929:     D06A 15 CE 10                       bclr    <PIA2_Buffer_t3 $10
 7930:     D06D D6 45                          ldab    <Counter_MainLoop
 7931:     D06F 58                             aslb
 7932:     D070 26 2A                          bne     ATM_SerialOut_0
 7933:     D072 0F                             sei
 7934:     D073 B6 6403                        ldaa    PIA_Ctrl_2
 7935:     D076 85 F0                          bita    #$F0
 7936:     D078 27 05                          beq     loc_D07F
 7937:     D07A 84 0F                          anda    #$0F
 7938:     D07C B7 6403                        staa    PIA_Ctrl_2
 7939:                                 
 7940:     D07F                        loc_D07F:
 7941:     D07F 86 F8                          ldaa    #$F8
 7942:     D081 B1 6406                        cmpa    PIA_Ctrl_5
 7943:     D084 27 03                          beq     loc_D089
 7944:     D086 B7 6406                        staa    PIA_Ctrl_5
 7945:                                 
 7946:     D089                        loc_D089:
 7947:     D089 CC 01A9                        ldd     #$01A9
 7948:     D08C ED 00                          std     $00,x
 7949:     D08E 0E                             cli
 7950:     D08F 20 0B                          bra     ATM_SerialOut_0
 7951:                                 
 7952:     D091                        ATM_PTUIndicator:
 7953:     D091 96 CF                          ldaa    <PIA3_Buffer_t3
 7954:     D093 88 02                          eora    #$02
 7955:     D095 97 CF                          staa    <PIA3_Buffer_t3
 7956:     D097 B7 6440                        staa    PIA3_Buffer_2_t3
 7957:     D09A 20 00                          bra     ATM_SerialOut_0
 7958:                                 
 7959:     D09C                        ATM_SerialOut_0:
 7960:     D09C 96 D8                          ldaa    <DRBPointer1
 7961:     D09E 81 14                          cmpa    #$14
 7962:     D0A0 27 05                          beq     loc_D0A7
 7963:     D0A2 81 1A                          cmpa    #$1A
 7964:     D0A4 27 30                          beq     loc_D0D6
 7965:                                 
 7966:     D0A6                        locret_D0A6:
 7967:     D0A6 39                             rts
 7968:                                 
 7969:     D0A7                        loc_D0A7:
 7970:     D0A7 D6 D9                          ldab    <DRBPointer2
 7971:     D0A9 C1 40                          cmpb    #$40
 7972:     D0AB 24 18                          bcc     loc_D0C5
 7973:     D0AD C1 00                          cmpb    #$00
 7974:     D0AF 27 F5                          beq     locret_D0A6
 7975:     D0B1 C1 2D                          cmpb    #$2D
 7976:     D0B3 22 F1                          bhi     locret_D0A6
 7977:     D0B5 CE CE2A                        ldx     #Byt_DRBMemoryTable
 7978:     D0B8 4F                             clra
 7979:     D0B9 3A                             abx
 7980:     D0BA E6 00                          ldab    $00,x
 7981:     D0BC C1 FF                          cmpb    #$FF
 7982:     D0BE 27 E6                          beq     locret_D0A6
 7983:     D0C0 8F                             xgdx
 7984:     D0C1 A6 00                          ldaa    $00,x
 7985:     D0C3 20 6A                          bra     loc_D12F
 7986:                                 
 7987:     D0C5                        loc_D0C5:
 7988:     D0C5 C0 40                          subb    #$40
 7989:     D0C7 58                             aslb
 7990:     D0C8 25 DC                          bcs     locret_D0A6
 7991:     D0CA C1 10                          cmpb    #$10
 7992:     D0CC 24 D8                          bcc     locret_D0A6
 7993:     D0CE CE CE58                        ldx     #off_CE58
 7994:                                 
 7995:     D0D1                        loc_D0D1:
 7996:     D0D1 3A                             abx
 7997:     D0D2 EE 00                          ldx     $00,x
 7998:     D0D4 6E 00                          jmp     $00,x
 7999:                                 
 8000:     D0D6                        loc_D0D6:
 8001:     D0D6 CE CE66                        ldx     #off_CE66
 8002:     D0D9 D6 D9                          ldab    <DRBPointer2
 8003:     D0DB 58                             aslb
 8004:     D0DC C1 00                          cmpb    #$00
 8005:     D0DE 27 C6                          beq     locret_D0A6
 8006:     D0E0 C1 08                          cmpb    #$08
 8007:     D0E2 23 ED                          bls     loc_D0D1
 8008:     D0E4 20 C0                          bra     locret_D0A6
 8009:                                 
 8010:     D0E6                        SCI_LD07B:
 8011:     D0E6 96 61                          ldaa    <StartupSwitchMirror1
 8012:     D0E8 13 27 C0 43                    brclr   <BitFlags27 $C0 loc_D12F
 8013:     D0EC F6 8011                        ldab    byte_8011
 8014:     D0EF 27 02                          beq     loc_D0F3
 8015:     D0F1 88 02                          eora    #$02
 8016:                                 
 8017:     D0F3                        loc_D0F3:
 8018:     D0F3 88 80                          eora    #$80
 8019:     D0F5 20 38                          bra     loc_D12F
 8020:                                 
 8021:     D0F7                        SCI_Ld08c:
 8022:     D0F7 96 CE                          ldaa    <PIA2_Buffer_t3
 8023:     D0F9 20 34                          bra     loc_D12F
 8024:                                 
 8025:     D0FB                        SCI_Ld090:
 8026:     D0FB 96 CD                          ldaa    <PIA1_Buffer_t3
 8027:     D0FD 88 08                          eora    #$08
 8028:     D0FF 20 2E                          bra     loc_D12F
 8029:                                 
 8030:     D101                        SCI_Ld096:
 8031:     D101 B6 6400                        ldaa    SwitchPortAccessReg1
 8032:     D104 84 70                          anda    #$70
 8033:     D106 20 27                          bra     loc_D12F
 8034:                                 
 8035:     D108                        SCI_MAPVolts:
 8036:     D108 0F                             sei
 8037:     D109 86 10                          ldaa    #$10
 8038:     D10B B7 1030                        staa    ADCTL_A2DControlReg
 8039:                                 
 8040:     D10E                        loc_D10E:
 8041:     D10E B6 1030                        ldaa    ADCTL_A2DControlReg
 8042:     D111 2A FB                          bpl     loc_D10E
 8043:     D113 B6 1031                        ldaa    ADR1_A2DResults1
 8044:     D116 0E                             cli
 8045:     D117 20 16                          bra     loc_D12F
 8046:                                 
 8047:     D119                        SCI_Speed:
 8048:     D119 96 5F                          ldaa    <VehicleSpeedx8_Scaled
 8049:     D11B 20 12                          bra     loc_D12F
 8050:                                 
 8051:     D11D                        SCI_O2Volts:
 8052:     D11D D6 53                          ldab    <O2SensorVolts
 8053:     D11F 86 FF                          ldaa    #$FF
 8054:     D121 F1 8A53                        cmpb    byte_8A53
 8055:     D124 22 07                          bhi     loc_D12D
 8056:     D126 F1 8A54                        cmpb    byte_8A54
 8057:     D129 22 04                          bhi     loc_D12F
 8058:     D12B 84 A0                          anda    #$A0
 8059:                                 
 8060:     D12D                        loc_D12D:
 8061:     D12D 84 B1                          anda    #$B1
 8062:                                 
 8063:     D12F                        loc_D12F:
 8064:     D12F 7E CD22                        jmp     sub_CD22
 8065:                                 
 8066:     D132                        SCI_Ld0c7:
 8067:     D132 7E D0A6                        jmp     locret_D0A6
 8068:                                 
 8069:     D135                        SCI_Ld0ca:
 8070:     D135 7E D0A6                        jmp     locret_D0A6
 8071:                                 
 8072:     D138                        SendBaro:
 8073:     D138 96 0D                          ldaa    <BaroPressure
 8074:     D13A 90 50                          suba    <MapValue
 8075:     D13C 24 01                          bcc     loc_D13F
 8076:     D13E 4F                             clra
 8077:                                 
 8078:     D13F                        loc_D13F:
 8079:     D13F 7E D12F                        jmp     loc_D12F
 8080:                                 
 8081:     D142                        SendTPS:
 8082:     D142 96 51                          ldaa    <TpsVolts
 8083:     D144 90 06                          suba    <LowestSessionTpsVolts
 8084:     D146 24 01                          bcc     loc_D149
 8085:     D148 4F                             clra
 8086:                                 
 8087:     D149                        loc_D149:
 8088:     D149 F6 8A64                        ldab    byte_8A64
 8089:     D14C B7 6499                        staa    Temp0
 8090:     D14F 3D                             mul
 8091:     D150 B9 6499                        adca    Temp0
 8092:     D153 24 02                          bcc     loc_D157
 8093:     D155 86 FF                          ldaa    #$FF
 8094:                                 
 8095:     D157                        loc_D157:
 8096:     D157 7E D12F                        jmp     loc_D12F
 8097:                                 
 8098:     D15A                        SCI_Ld0ef:
 8099:     D15A 96 4E                          ldaa    <CalculatedSparkAdvance
 8100:     D15C 7E D12F                        jmp     loc_D12F
 8101:                                 
 8102:     D15F                        sub_D15F:
 8103:     D15F CE 8000                        ldx     #$8000
 8104:     D162 CC 9200                        ldd     #$9200
 8105:     D165 FD 6499                        std     Temp0
 8106:     D168 4F                             clra
 8107:     D169 C6 08                          ldab    #$08
 8108:                                 
 8109:     D16B                        loc_D16B:
 8110:     D16B 8D 18                          bsr     sub_D185
 8111:     D16D 36                             psha
 8112:     D16E 37                             pshb
 8113:     D16F BD E7E0                        jsr     sub_E7E0
 8114:     D172 86 12                          ldaa    #$12
 8115:     D174 BB 6499                        adda    Temp0
 8116:     D177 B7 6499                        staa    Temp0
 8117:     D17A B6 6400                        ldaa    SwitchPortAccessReg1
 8118:     D17D 85 40                          bita    #$40
 8119:     D17F 33                             pulb
 8120:     D180 32                             pula
 8121:     D181 27 2B                          beq     locret_D1AE
 8122:     D183 20 E6                          bra     loc_D16B
 8123:                                 
 8124:     D185                        sub_D185:
 8125:     D185 8C B600                        cpx     #MCU_eeprom
 8126:     D188 26 09                          bne     loc_D193
 8127:     D18A 7C 6499                        inc     Temp0
 8128:     D18D 7C 6499                        inc     Temp0
 8129:     D190 CE B800                        ldx     #$B800
 8130:                                 
 8131:     D193                        loc_D193:
 8132:     D193 AB 00                          adda    $00,x
 8133:     D195 AB 01                          adda    $01,x
 8134:     D197 AB 02                          adda    $02,x
 8135:     D199 AB 03                          adda    $03,x
 8136:     D19B AB 04                          adda    $04,x
 8137:     D19D AB 05                          adda    $05,x
 8138:     D19F AB 06                          adda    $06,x
 8139:     D1A1 AB 07                          adda    $07,x
 8140:     D1A3 3A                             abx
 8141:     D1A4 BC 6499                        cpx     Temp0
 8142:     D1A7 26 EA                          bne     loc_D193
 8143:     D1A9 7D 6499                        tst     Temp0
 8144:     D1AC 27 01                          beq     loc_D1AF
 8145:                                 
 8146:     D1AE                        locret_D1AE:
 8147:     D1AE 39                             rts
 8148:                                 
 8149:     D1AF                        loc_D1AF:
 8150:     D1AF 38                             pulx
 8151:     D1B0 B0 8005                        suba    byte_8005
 8152:     D1B3 27 F9                          beq     locret_D1AE
 8153:     D1B5 CC 0201                        ldd     #$0201
 8154:     D1B8 7E D2C9                        jmp     ThrowNonCriticalError
 8155:                                 
 8156:     D1BB                        loc_D1BB:
 8157:     D1BB 96 45                          ldaa    <Counter_MainLoop
 8158:     D1BD 48                             asla
 8159:     D1BE 48                             asla
 8160:     D1BF 26 10                          bne     locret_D1D1
 8161:     D1C1 B6 64B2                        ldaa    LastCamFallingEdgeTime2
 8162:     D1C4 85 70                          bita    #$70
 8163:     D1C6 27 0A                          beq     loc_D1D2
 8164:     D1C8 80 10                          suba    #$10
 8165:     D1CA 85 70                          bita    #$70
 8166:     D1CC 27 04                          beq     loc_D1D2
 8167:     D1CE B7 64B2                        staa    LastCamFallingEdgeTime2
 8168:                                 
 8169:     D1D1                        locret_D1D1:
 8170:     D1D1 39                             rts
 8171:                                 
 8172:     D1D2                        loc_D1D2:
 8173:     D1D2 D6 CD                          ldab    <PIA1_Buffer_t3
 8174:     D1D4 C8 40                          eorb    #$40
 8175:     D1D6 D7 CD                          stab    <PIA1_Buffer_t3
 8176:     D1D8 85 0F                          bita    #$0F
 8177:     D1DA 27 09                          beq     loc_D1E5
 8178:     D1DC 4A                             deca
 8179:     D1DD 85 0F                          bita    #$0F
 8180:     D1DF 27 04                          beq     loc_D1E5
 8181:     D1E1 8A 10                          oraa    #$10
 8182:     D1E3 20 35                          bra     loc_D21A
 8183:                                 
 8184:     D1E5                        loc_D1E5:
 8185:     D1E5 4D                             tsta
 8186:     D1E6 2B 36                          bmi     loc_D21E
 8187:     D1E8 86 AA                          ldaa    #$AA
 8188:     D1EA D6 D9                          ldab    <DRBPointer2
 8189:     D1EC C1 FE                          cmpb    #$FE
 8190:     D1EE 27 1E                          beq     loc_D20E
 8191:     D1F0 5D                             tstb
 8192:     D1F1 2B 27                          bmi     loc_D21A
 8193:     D1F3 C1 08                          cmpb    #$08
 8194:     D1F5 25 0A                          bcs     loc_D201
 8195:     D1F7 CE B618                        ldx     #MCU_eeprom + $18
 8196:     D1FA 3A                             abx
 8197:     D1FB 1E 00 FF 67                    brset   $00,x $FF loc_D266
 8198:     D1FF 20 07                          bra     loc_D208
 8199:                                 
 8200:     D201                        loc_D201:
 8201:     D201 50                             negb
 8202:     D202 CB 07                          addb    #$07
 8203:     D204 CE 0015                        ldx     #$0015
 8204:     D207 3A                             abx
 8205:                                 
 8206:     D208                        loc_D208:
 8207:     D208 E6 00                          ldab    $00,x
 8208:     D20A 27 0E                          beq     loc_D21A
 8209:     D20C 20 01                          bra     loc_D20F
 8210:                                 
 8211:     D20E                        loc_D20E:
 8212:     D20E 5F                             clrb
 8213:                                 
 8214:     D20F                        loc_D20F:
 8215:     D20F CE D277                        ldx     #ErrorCodesToDash_Table
 8216:     D212 3A                             abx
 8217:     D213 A6 00                          ldaa    $00,x
 8218:     D215 84 0F                          anda    #$0F
 8219:     D217 48                             asla
 8220:     D218 8A A0                          oraa    #$A0
 8221:                                 
 8222:     D21A                        loc_D21A:
 8223:     D21A B7 64B2                        staa    LastCamFallingEdgeTime2
 8224:     D21D 39                             rts
 8225:                                 
 8226:     D21E                        loc_D21E:
 8227:     D21E D6 D9                          ldab    <DRBPointer2
 8228:     D220 C1 FF                          cmpb    #$FF
 8229:     D222 26 0C                          bne     loc_D230
 8230:     D224 96 1D                          ldaa    <ErrorCodeUpdateKeyOnCount
 8231:     D226 81 32                          cmpa    #$32
 8232:     D228 22 06                          bhi     loc_D230
 8233:     D22A 5A                             decb
 8234:     D22B D7 D9                          stab    <DRBPointer2
 8235:     D22D 5F                             clrb
 8236:     D22E 20 25                          bra     loc_D255
 8237:                                 
 8238:     D230                        loc_D230:
 8239:     D230 C1 FE                          cmpb    #$FE
 8240:     D232 26 01                          bne     loc_D235
 8241:     D234 5C                             incb
 8242:                                 
 8243:     D235                        loc_D235:
 8244:     D235 5C                             incb
 8245:     D236 D7 D9                          stab    <DRBPointer2
 8246:     D238 C1 08                          cmpb    #$08
 8247:     D23A 25 0E                          bcs     loc_D24A
 8248:     D23C 12 D9 80 2F                    brset   <DRBPointer2 $80 loc_D26F
 8249:     D240 CE B618                        ldx     #MCU_eeprom + $18
 8250:     D243 3A                             abx
 8251:     D244 1E 00 FF 1E                    brset   $00,x $FF loc_D266
 8252:     D248 20 07                          bra     loc_D251
 8253:                                 
 8254:     D24A                        loc_D24A:
 8255:     D24A 50                             negb
 8256:     D24B CB 07                          addb    #$07
 8257:     D24D CE 0015                        ldx     #$0015
 8258:     D250 3A                             abx
 8259:                                 
 8260:     D251                        loc_D251:
 8261:     D251 E6 00                          ldab    $00,x
 8262:     D253 27 11                          beq     loc_D266
 8263:                                 
 8264:     D255                        loc_D255:
 8265:     D255 CE D277                        ldx     #ErrorCodesToDash_Table
 8266:     D258 3A                             abx
 8267:     D259 A6 00                          ldaa    $00,x
 8268:     D25B 44                             lsra
 8269:     D25C 44                             lsra
 8270:     D25D 44                             lsra
 8271:     D25E 44                             lsra
 8272:     D25F 48                             asla
 8273:     D260 8A 40                          oraa    #$40
 8274:     D262 B7 64B2                        staa    LastCamFallingEdgeTime2
 8275:     D265 39                             rts
 8276:                                 
 8277:     D266                        loc_D266:
 8278:     D266 86 4A                          ldaa    #$4A
 8279:     D268 B7 64B2                        staa    LastCamFallingEdgeTime2
 8280:     D26B 14 D9 80                       bset    <DRBPointer2 $80
 8281:     D26E 39                             rts
 8282:                                 
 8283:     D26F                        loc_D26F:
 8284:     D26F 4F                             clra
 8285:     D270 97 D8                          staa    <DRBPointer1
 8286:     D272 97 DB                          staa    <DRBSerialMode
 8287:     D274 97 D9                          staa    <DRBPointer2
 8288:     D276 39                             rts
 8289:                                 
 8290:     D277                        ErrorCodesToDash_Table:
 8291:     D277 12                             fcb $12
 8292:     D278 54                             fcb $54
 8293:     D279 53                             fcb $53
 8294:     D27A 52                             fcb $52
 8295:     D27B 51                             fcb $51
 8296:     D27C 47                             fcb $47
 8297:     D27D 46                             fcb $46
 8298:     D27E 45                             fcb $45
 8299:     D27F 44                             fcb $44
 8300:     D280 43                             fcb $43
 8301:     D281 42                             fcb $42
 8302:     D282 41                             fcb $41
 8303:     D283 37                             fcb $37
 8304:     D284 36                             fcb $36
 8305:     D285 35                             fcb $35
 8306:     D286 34                             fcb $34
 8307:     D287 33                             fcb $33
 8308:     D288 32                             fcb $32
 8309:     D289 31                             fcb $31
 8310:     D28A 27                             fcb $27
 8311:     D28B 27                             fcb $27
 8312:     D28C 27                             fcb $27
 8313:     D28D 26                             fcb $26
 8314:     D28E 26                             fcb $26
 8315:     D28F 26                             fcb $26
 8316:     D290 25                             fcb $25
 8317:     D291 24                             fcb $24
 8318:     D292 24                             fcb $24
 8319:     D293 23                             fcb $23
 8320:     D294 23                             fcb $23
 8321:     D295 22                             fcb $22
 8322:     D296 22                             fcb $22
 8323:     D297 21                             fcb $21
 8324:     D298 17                             fcb $17
 8325:     D299 16                             fcb $16
 8326:     D29A 15                             fcb $15
 8327:     D29B 14                             fcb $14
 8328:     D29C 14                             fcb $14
 8329:     D29D 13                             fcb $13
 8330:     D29E 13                             fcb $13
 8331:     D29F 11                             fcb $11
 8332:     D2A0 43                             fcb $43
 8333:     D2A1 43                             fcb $43
 8334:     D2A2 43                             fcb $43
 8335:     D2A3 42                             fcb $42
 8336:     D2A4 52                             fcb $52
 8337:     D2A5 32                             fcb $32
 8338:     D2A6 61                             fcb $61
 8339:     D2A7 62                             fcb $62
 8340:     D2A8 63                             fcb $63
 8341:     D2A9 45                             fcb $45
 8342:     D2AA 36                             fcb $36
 8343:     D2AB 35                             fcb $35
 8344:     D2AC 35                             fcb $35
 8345:     D2AD 32                             fcb $32
 8346:     D2AE 64                             fcb $64
 8347:     D2AF 65                             fcb $65
 8348:     D2B0 23                             fcb $23
 8349:     D2B1 23                             fcb $23
 8350:     D2B2 21                             fcb $21
 8351:     D2B3 51                             fcb $51
 8352:     D2B4 27                             fcb $27
 8353:     D2B5 21                             fcb $21
 8354:     D2B6 67                             fcb $67
 8355:     D2B7 52                             fcb $52
 8356:     D2B8 66                             fcb $66
 8357:     D2B9 66                             fcb $66
 8358:     D2BA 36                             fcb $36
 8359:     D2BB 53                             fcb $53
 8360:     D2BC 27                             fcb $27
 8361:     D2BD 27                             fcb $27
 8362:     D2BE 44                             fcb $44
 8363:     D2BF 16                             fcb $16
 8364:     D2C0 71                             fcb $71
 8365:     D2C1 72                             fcb $72
 8366:     D2C2 73                             fcb $73
 8367:     D2C3 74                             fcb $74
 8368:     D2C4 75                             fcb $75
 8369:     D2C5 51                             fcb $51
 8370:     D2C6 27                             fcb $27
 8371:     D2C7 27                             fcb $27
 8372:     D2C8 76                             fcb $76
 8373:                                 
 8374:     D2C9                        ThrowNonCriticalError:
 8375:     D2C9 CE 8A32                        ldx     #unk_8A32
 8376:                                 
 8377:     D2CC                        loc_D2CC:
 8378:     D2CC 1F 00 FF 07                    brclr   $00,x $FF loc_D2D7
 8379:     D2D0 A1 00                          cmpa    $00,x
 8380:     D2D2 27 4F                          beq     loc_D323
 8381:     D2D4 08                             inx
 8382:     D2D5 20 F5                          bra     loc_D2CC
 8383:                                 
 8384:     D2D7                        loc_D2D7:
 8385:     D2D7 5D                             tstb
 8386:     D2D8 2B 08                          bmi     loc_D2E2
 8387:     D2DA 91 1C                          cmpa    <ErrorBitRegisterStored3
 8388:     D2DC 27 42                          beq     loc_D320
 8389:     D2DE 91 1B                          cmpa    <ErrorBitRegisterStored2
 8390:     D2E0 27 34                          beq     loc_D316
 8391:                                 
 8392:     D2E2                        loc_D2E2:
 8393:     D2E2 C4 7F                          andb    #$7F
 8394:     D2E4 F7 6499                        stab    Temp0
 8395:     D2E7 18CE 00DC                      ldy     #$00DC
 8396:     D2EB 18A1 00                        cmpa    $00,y
 8397:     D2EE 27 13                          beq     loc_D303
 8398:     D2F0 1808                           iny
 8399:     D2F2 18A1 00                        cmpa    $00,y
 8400:     D2F5 27 0C                          beq     loc_D303
 8401:     D2F7 186D 00                        tst     $00,y
 8402:     D2FA 27 07                          beq     loc_D303
 8403:     D2FC 1809                           dey
 8404:     D2FE 186D 00                        tst     $00,y
 8405:     D301 26 20                          bne     loc_D323
 8406:                                 
 8407:     D303                        loc_D303:
 8408:     D303 18A7 00                        staa    $00,y
 8409:     D306 18E6 02                        ldab    $02,y
 8410:     D309 5C                             incb
 8411:     D30A 27 1A                          beq     loc_D326
 8412:     D30C F1 6499                        cmpb    Temp0
 8413:     D30F 24 15                          bcc     loc_D326
 8414:     D311 18E7 02                        stab    $02,y
 8415:     D314 0C                             clc
 8416:     D315 39                             rts
 8417:                                 
 8418:     D316                        loc_D316:
 8419:     D316 DC 1B                          ldd     <ErrorBitRegisterStored2
 8420:     D318 97 1C                          staa    <ErrorBitRegisterStored3
 8421:     D31A D7 1B                          stab    <ErrorBitRegisterStored2
 8422:     D31C 96 1D                          ldaa    <ErrorCodeUpdateKeyOnCount
 8423:     D31E 97 1E                          staa    <ErrorCodeUpdateKeyOnCount2
 8424:                                 
 8425:     D320                        loc_D320:
 8426:     D320 7F 001D                        clr     ErrorCodeUpdateKeyOnCount
 8427:                                 
 8428:     D323                        loc_D323:
 8429:     D323 4F                             clra
 8430:     D324 0C                             clc
 8431:     D325 39                             rts
 8432:                                 
 8433:     D326                        loc_D326:
 8434:     D326 7D 0015                        tst     ErrorBitRegister0
 8435:     D329 27 0B                          beq     loc_D336
 8436:     D32B 12 26 40 04                    brset   <BitFlags6a_t3 $40 loc_D333
 8437:     D32F 13 26 20 03                    brclr   <BitFlags6a_t3 $20 loc_D336
 8438:                                 
 8439:     D333                        loc_D333:
 8440:     D333 7E D3BE                        jmp     loc_D3BE
 8441:                                 
 8442:     D336                        loc_D336:
 8443:     D336 186F 00                        clr     $00,y
 8444:     D339 186F 02                        clr     $02,y
 8445:     D33C CE 0015                        ldx     #$0015
 8446:                                 
 8447:     D33F                        loc_D33F:
 8448:     D33F A1 00                          cmpa    $00,x
 8449:     D341 26 05                          bne     loc_D348
 8450:     D343 5F                             clrb
 8451:     D344 E7 00                          stab    $00,x
 8452:     D346 20 08                          bra     loc_D350
 8453:                                 
 8454:     D348                        loc_D348:
 8455:     D348 08                             inx
 8456:     D349 8C 001C                        cpx     #$001C
 8457:     D34C 23 F1                          bls     loc_D33F
 8458:     D34E C6 FF                          ldab    #$FF
 8459:                                 
 8460:     D350                        loc_D350:
 8461:     D350 CE 001C                        ldx     #$001C
 8462:     D353 18CE 001D                      ldy     #$001D
 8463:     D357 F7 6499                        stab    Temp0
 8464:                                 
 8465:     D35A                        loc_D35A:
 8466:     D35A 8C 001A                        cpx     #$001A
 8467:     D35D 25 10                          bcs     loc_D36F
 8468:     D35F 36                             psha
 8469:     D360 18E6 00                        ldab    $00,y
 8470:     D363 B6 6499                        ldaa    Temp0
 8471:     D366 18A7 00                        staa    $00,y
 8472:     D369 1808                           iny
 8473:     D36B F7 6499                        stab    Temp0
 8474:     D36E 32                             pula
 8475:                                 
 8476:     D36F                        loc_D36F:
 8477:     D36F E6 00                          ldab    $00,x
 8478:     D371 A7 00                          staa    $00,x
 8479:     D373 17                             tba
 8480:     D374 27 33                          beq     loc_D3A9
 8481:     D376 09                             dex
 8482:     D377 8C 0015                        cpx     #$0015
 8483:     D37A 24 DE                          bcc     loc_D35A
 8484:     D37C 7F 001D                        clr     ErrorCodeUpdateKeyOnCount
 8485:     D37F 0F                             sei
 8486:     D380 12 26 40 3A                    brset   <BitFlags6a_t3 $40 loc_D3BE
 8487:     D384 12 26 20 36                    brset   <BitFlags6a_t3 $20 loc_D3BE
 8488:     D388 14 26 40                       bset    <BitFlags6a_t3 $40
 8489:     D38B 0E                             cli
 8490:     D38C B7 64B1                        staa    DRBOffsetStored_LB
 8491:     D38F CE B61F                        ldx     #MCU_eeprom + $1F
 8492:                                 
 8493:     D392                        loc_D392:
 8494:     D392 08                             inx
 8495:     D393 E6 00                          ldab    $00,x
 8496:     D395 11                             cba
 8497:     D396 27 0C                          beq     loc_D3A4
 8498:     D398 5C                             incb
 8499:     D399 26 F7                          bne     loc_D392
 8500:     D39B 8F                             xgdx
 8501:     D39C 83 B600                        subd    #MCU_eeprom
 8502:     D39F F7 64B0                        stab    DRBOffsetStored_HB
 8503:     D3A2 0D                             sec
 8504:     D3A3 39                             rts
 8505:                                 
 8506:     D3A4                        loc_D3A4:
 8507:     D3A4 15 26 40                       bclr    <BitFlags6a_t3 $40
 8508:     D3A7 0D                             sec
 8509:     D3A8 39                             rts
 8510:                                 
 8511:     D3A9                        loc_D3A9:
 8512:     D3A9 188C 001F                      cpy     #$001F
 8513:     D3AD 22 0A                          bhi     loc_D3B9
 8514:     D3AF D6 1D                          ldab    <ErrorCodeUpdateKeyOnCount
 8515:     D3B1 27 09                          beq     loc_D3BC
 8516:     D3B3 F6 6499                        ldab    Temp0
 8517:     D3B6 18E7 00                        stab    $00,y
 8518:     D3B9                        loc_D3B9:
 8519:     D3B9 5F                             clrb
 8520:     D3BA D7 1D                          stab    <ErrorCodeUpdateKeyOnCount
 8521:                                 
 8522:     D3BC                        loc_D3BC:
 8523:     D3BC 0D                             sec
 8524:     D3BD 39                             rts
 8525:                                 
 8526:     D3BE                        loc_D3BE:
 8527:     D3BE 0C                             clc
 8528:     D3BF 0E                             cli
 8529:     D3C0 39                             rts
 8530:                                 
 8531:     D3C1                        gw_PIA1AManipulation_Table2:
 8532:     D3C1 00                             fcb $00
 8533:     D3C2 00                             fcb $00
 8534:     D3C3 04                             fcb $04
 8535:     D3C4 00                             fcb $00
 8536:     D3C5 10                             fcb $10
 8537:     D3C6 20                             fcb $20
 8538:     D3C7 00                             fcb $00
 8539:     D3C8 80                             fcb $80
 8540:     D3C9 00                             fcb $00
 8541:     D3CA 00                             fcb $00
 8542:     D3CB 19                             fcb $19
 8543:     D3CC 00                             fcb $00
 8544:     D3CD 32                             fcb $32
 8545:     D3CE 0C                             fcb $0C
 8546:     D3CF 00                             fcb $00
 8547:     D3D0 0E                             fcb $0E
 8548:                                 
 8549:     D3D1                        gw_PIA1AManipulation_Table:
 8550:     D3D1 01                             fcb $01
 8551:     D3D2 02                             fcb $02
 8552:     D3D3 04                             fcb $04
 8553:     D3D4 08                             fcb $08
 8554:     D3D5 10                             fcb $10
 8555:     D3D6 20                             fcb $20
 8556:     D3D7 00                             fcb $00
 8557:     D3D8 00                             fcb $00
 8558:     D3D9 10                             fcb $10
 8559:     D3DA 11                             fcb $11
 8560:     D3DB 33                             fcb $33
 8561:     D3DC 51                             fcb $51
 8562:     D3DD 0A                             fcb $0A
 8563:     D3DE 12                             fcb $12
 8564:     D3DF 00                             fcb $00
 8565:     D3E0 00                             fcb $00
 8566:                                 
 8567:     D3E1                        sub_D3E1:
 8568:     D3E1 0F                             sei
 8569:     D3E2 F6 1028                        ldab    SPCR_SerialPeripheralControl
 8570:     D3E5 CA 01                          orab    #$01
 8571:     D3E7 F7 1028                        stab    SPCR_SerialPeripheralControl
 8572:     D3EA 15 CF 04                       bclr    <PIA3_Buffer_t3 $04
 8573:     D3ED D6 CF                          ldab    <PIA3_Buffer_t3
 8574:     D3EF F7 6440                        stab    PIA3_Buffer_2_t3
 8575:     D3F2 96 CE                          ldaa    <PIA2_Buffer_t3
 8576:     D3F4 B1 1029                        cmpa    SPSR_SerialPeripheralStatus
 8577:     D3F7 B7 102A                        staa    SPDR_SerialPeripheralDataIO
 8578:     D3FA 3D                             mul
 8579:     D3FB 3D                             mul
 8580:     D3FC 01                             nop
 8581:     D3FD 14 CF 04                       bset    <PIA3_Buffer_t3 $04
 8582:     D400 96 CF                          ldaa    <PIA3_Buffer_t3
 8583:     D402 B7 6440                        staa    PIA3_Buffer_2_t3
 8584:     D405 B6 102A                        ldaa    SPDR_SerialPeripheralDataIO
 8585:     D408 F6 1028                        ldab    SPCR_SerialPeripheralControl
 8586:     D40B C4 FC                          andb    #$FC
 8587:     D40D F7 1028                        stab    SPCR_SerialPeripheralControl
 8588:     D410 B7 64B6                        staa    Temp1_t3
 8589:     D413 0E                             cli
 8590:     D414 13 2E 40 63                    brclr   <BitFlags2e $40 loc_D47B
 8591:     D418 B8 64B7                        eora    PIA2_Buffer_t3_Temp
 8592:     D41B B4 8A39                        anda    byte_8A39
 8593:     D41E CE D3D1                        ldx     #gw_PIA1AManipulation_Table
 8594:     D421 D6 45                          ldab    <Counter_MainLoop
 8595:     D423 C4 07                          andb    #$07
 8596:     D425 3A                             abx
 8597:     D426 A5 00                          bita    $00,x
 8598:     D428 27 51                          beq     loc_D47B
 8599:     D42A B6 6480                        ldaa    CountdownTimerFromKeyOn
 8600:     D42D 26 4C                          bne     loc_D47B
 8601:     D42F B6 6400                        ldaa    SwitchPortAccessReg1
 8602:     D432 85 40                          bita    #$40
 8603:     D434 26 45                          bne     loc_D47B
 8604:     D436 96 5B                          ldaa    <BatteryVolts
 8605:     D438 81 A0                          cmpa    #$A0
 8606:     D43A 25 3F                          bcs     loc_D47B
 8607:     D43C A6 08                          ldaa    $08,x
 8608:     D43E C6 A0                          ldab    #$A0
 8609:     D440 81 11                          cmpa    #$11
 8610:     D442 27 0F                          beq     loc_D453
 8611:     D444 81 12                          cmpa    #$12
 8612:     D446 27 19                          beq     loc_D461
 8613:     D448 81 33                          cmpa    #$33
 8614:     D44A 27 23                          beq     loc_D46F
 8615:     D44C C6 20                          ldab    #$20
 8616:     D44E BD D2C9                        jsr     ThrowNonCriticalError
 8617:     D451 20 28                          bra     loc_D47B
 8618:                                 
 8619:     D453                        loc_D453:
 8620:     D453 12 D6 08 24                    brset   <b5D_IPL2_t3 $08 loc_D47B
 8621:     D457 BD D2C9                        jsr     ThrowNonCriticalError
 8622:     D45A 24 1F                          bcc     loc_D47B
 8623:     D45C 14 D6 08                       bset    <b5D_IPL2_t3 $08
 8624:     D45F 20 1A                          bra     loc_D47B
 8625:                                 
 8626:     D461                        loc_D461:
 8627:     D461 12 D6 20 16                    brset   <b5D_IPL2_t3 $20 loc_D47B
 8628:     D465 BD D2C9                        jsr     ThrowNonCriticalError
 8629:     D468 24 11                          bcc     loc_D47B
 8630:     D46A 14 D6 20                       bset    <b5D_IPL2_t3 $20
 8631:     D46D 20 0C                          bra     loc_D47B
 8632:                                 
 8633:     D46F                        loc_D46F:
 8634:     D46F 12 D6 04 08                    brset   <b5D_IPL2_t3 $04 loc_D47B
 8635:     D473 BD D2C9                        jsr     ThrowNonCriticalError
 8636:     D476 24 03                          bcc     loc_D47B
 8637:     D478 14 D6 04                       bset    <b5D_IPL2_t3 $04
 8638:                                 
 8639:     D47B                        loc_D47B:
 8640:     D47B 96 CE                          ldaa    <PIA2_Buffer_t3
 8641:     D47D B7 64B7                        staa    PIA2_Buffer_t3_Temp
 8642:     D480 14 2E 40                       bset    <BitFlags2e $40
 8643:     D483 39                             rts
 8644:                                 
 8645:     D484                        sub_D484:
 8646:     D484 96 46                          ldaa    <EngineRpm_HB
 8647:     D486 81 3F                          cmpa    #$3F
 8648:     D488 25 1B                          bcs     loc_D4A5
 8649:     D48A 13 27 20 17                    brclr   <BitFlags27 $20 loc_D4A5
 8650:     D48E 96 3A                          ldaa    <BitFlags_BF_t3
 8651:     D490 81 83                          cmpa    #$83
 8652:     D492 27 11                          beq     loc_D4A5
 8653:     D494 81 81                          cmpa    #$81
 8654:     D496 27 0D                          beq     loc_D4A5
 8655:     D498 FC 100E                        ldd     TCNT_Counter_FreeRunning16bit
 8656:     D49B B3 1010                        subd    TIC1_Counter_IC1_CamSensor
 8657:     D49E 1A83 00FA                      cpd     #$00FA
 8658:     D4A2 25 01                          bcs     loc_D4A5
 8659:     D4A4 39                             rts
 8660:                                 
 8661:     D4A5                        loc_D4A5:
 8662:     D4A5 96 CD                          ldaa    <PIA1_Buffer_t3
 8663:     D4A7 8B C3                          adda    #$C3
 8664:     D4A9 B7 6499                        staa    Temp0
 8665:     D4AC C6 40                          ldab    #$40
 8666:     D4AE 86 61                          ldaa    #$61
 8667:     D4B0 18CE 1000                      ldy     #$1000
 8668:     D4B4 CE 6400                        ldx     #SwitchPortAccessReg1
 8669:     D4B7 0F                             sei
 8670:     D4B8 1C 00 08                       bset    $00,x $08
 8671:     D4BB 181D 08 20                     bclr    $08,y $20
 8672:     D4BF F1 1029                        cmpb    SPSR_SerialPeripheralStatus
 8673:     D4C2 B7 102A                        staa    SPDR_SerialPeripheralDataIO
 8674:     D4C5 1C 02 08                       bset    $02,x $08
 8675:     D4C8 1D 02 08                       bclr    $02,x $08
 8676:     D4CB 01                             nop
 8677:     D4CC B6 102A                        ldaa    SPDR_SerialPeripheralDataIO
 8678:     D4CF B1 1029                        cmpa    SPSR_SerialPeripheralStatus
 8679:     D4D2 86 62                          ldaa    #$62
 8680:                                 
 8681:     D4D4                        loc_D4D4:
 8682:     D4D4 1F 00 08 06                    brclr   $00,x $08 loc_D4DE
 8683:     D4D8 5A                             decb
 8684:     D4D9 26 F9                          bne     loc_D4D4
 8685:     D4DB 7E D640                        jmp     loc_D640
 8686:                                 
 8687:     D4DE                        loc_D4DE:
 8688:     D4DE C6 0B                          ldab    #$0B
 8689:     D4E0 B7 102A                        staa    SPDR_SerialPeripheralDataIO
 8690:     D4E3 1C 02 08                       bset    $02,x $08
 8691:     D4E6 1D 02 08                       bclr    $02,x $08
 8692:     D4E9 01                             nop
 8693:     D4EA B6 102A                        ldaa    SPDR_SerialPeripheralDataIO
 8694:     D4ED B7 649A                        staa    Temp1
 8695:     D4F0 B1 1029                        cmpa    SPSR_SerialPeripheralStatus
 8696:     D4F3 86 00                          ldaa    #$00
 8697:                                 
 8698:     D4F5                        loc_D4F5:
 8699:     D4F5 1F 00 08 06                    brclr   $00,x $08 loc_D4FF
 8700:     D4F9 5A                             decb
 8701:     D4FA 26 F9                          bne     loc_D4F5
 8702:     D4FC 7E D640                        jmp     loc_D640
 8703:                                 
 8704:     D4FF                        loc_D4FF:
 8705:     D4FF C6 0B                          ldab    #$0B
 8706:     D501 B7 102A                        staa    SPDR_SerialPeripheralDataIO
 8707:     D504 1C 02 08                       bset    $02,x $08
 8708:     D507 1D 02 08                       bclr    $02,x $08
 8709:     D50A 01                             nop
 8710:     D50B B6 102A                        ldaa    SPDR_SerialPeripheralDataIO
 8711:     D50E B7 649B                        staa    Temp2
 8712:     D511 B1 1029                        cmpa    SPSR_SerialPeripheralStatus
 8713:     D514 96 CD                          ldaa    <PIA1_Buffer_t3
 8714:                                 
 8715:     D516                        loc_D516:
 8716:     D516 1F 00 08 06                    brclr   $00,x $08 loc_D520
 8717:     D51A 5A                             decb
 8718:     D51B 26 F9                          bne     loc_D516
 8719:     D51D 7E D640                        jmp     loc_D640
 8720:                                 
 8721:     D520                        loc_D520:
 8722:     D520 C6 0B                          ldab    #$0B
 8723:     D522 B7 102A                        staa    SPDR_SerialPeripheralDataIO
 8724:     D525 1C 02 08                       bset    $02,x $08
 8725:     D528 1D 02 08                       bclr    $02,x $08
 8726:     D52B 01                             nop
 8727:     D52C B6 102A                        ldaa    SPDR_SerialPeripheralDataIO
 8728:     D52F B7 649C                        staa    Temp3
 8729:     D532 B1 1029                        cmpa    SPSR_SerialPeripheralStatus
 8730:     D535 86 00                          ldaa    #$00
 8731:                                 
 8732:     D537                        loc_D537:
 8733:     D537 1F 00 08 06                    brclr   $00,x $08 loc_D541
 8734:     D53B 5A                             decb
 8735:     D53C 26 F9                          bne     loc_D537
 8736:     D53E 7E D640                        jmp     loc_D640
 8737:                                 
 8738:     D541                        loc_D541:
 8739:     D541 C6 0B                          ldab    #$0B
 8740:     D543 B7 102A                        staa    SPDR_SerialPeripheralDataIO
 8741:     D546 1C 02 08                       bset    $02,x $08
 8742:     D549 1D 02 08                       bclr    $02,x $08
 8743:     D54C 01                             nop
 8744:     D54D B6 102A                        ldaa    SPDR_SerialPeripheralDataIO
 8745:     D550 B7 649D                        staa    Temp4
 8746:                                 
 8747:     D553                        loc_D553:
 8748:     D553 B1 1029                        cmpa    SPSR_SerialPeripheralStatus
 8749:     D556 B6 6499                        ldaa    Temp0
 8750:                                 
 8751:     D559                        loc_D559:
 8752:     D559 1F 00 08 06                    brclr   $00,x $08 loc_D563
 8753:     D55D 5A                             decb
 8754:     D55E 26 F9                          bne     loc_D559
 8755:     D560 7E D640                        jmp     loc_D640
 8756:                                 
 8757:     D563                        loc_D563:
 8758:     D563 C6 0B                          ldab    #$0B
 8759:     D565 B7 102A                        staa    SPDR_SerialPeripheralDataIO
 8760:     D568 1C 02 08                       bset    $02,x $08
 8761:     D56B 1D 02 08                       bclr    $02,x $08
 8762:     D56E 01                             nop
 8763:                                 
 8764:     D56F                        loc_D56F:
 8765:     D56F 181E 29 80 06                  brset   $29,y $80 loc_D57A
 8766:     D574 5A                             decb
 8767:     D575 26 F8                          bne     loc_D56F
 8768:     D577 7E D640                        jmp     loc_D640
 8769:                                 
 8770:     D57A                        loc_D57A:
 8771:     D57A B6 102A                        ldaa    SPDR_SerialPeripheralDataIO
 8772:     D57D 181C 08 20                     bset    $08,y $20
 8773:     D581 0E                             cli
 8774:     D582 F6 649A                        ldab    Temp1
 8775:     D585 FB 649B                        addb    Temp2
 8776:     D588 FB 649C                        addb    Temp3
 8777:     D58B FB 649D                        addb    Temp4
 8778:     D58E 11                             cba
 8779:     D58F 27 03                          beq     loc_D594
 8780:     D591 7E D63B                        jmp     locret_D63B
 8781:                                 
 8782:     D594                        loc_D594:
 8783:     D594 B6 649B                        ldaa    Temp2
 8784:     D597 13 27 C0 3D                    brclr   <BitFlags27 $C0 loc_D5D8
 8785:     D59B F6 8011                        ldab    byte_8011
 8786:     D59E 27 0C                          beq     loc_D5AC
 8787:     D5A0 C1 02                          cmpb    #$02
 8788:     D5A2 26 06                          bne     loc_D5AA
 8789:     D5A4 F6 800F                        ldab    byte_800F
 8790:     D5A7 54                             lsrb
 8791:     D5A8 25 02                          bcs     loc_D5AC
 8792:                                 
 8793:     D5AA                        loc_D5AA:
 8794:     D5AA 88 02                          eora    #$02
 8795:                                 
 8796:     D5AC                        loc_D5AC:
 8797:     D5AC 88 80                          eora    #$80
 8798:     D5AE D6 61                          ldab    <StartupSwitchMirror1
 8799:     D5B0 C4 40                          andb    #$40
 8800:     D5B2 F7 6499                        stab    Temp0
 8801:     D5B5 97 61                          staa    <StartupSwitchMirror1
 8802:     D5B7 84 40                          anda    #$40
 8803:     D5B9 B8 6499                        eora    Temp0
 8804:     D5BC 27 03                          beq     loc_D5C1
 8805:     D5BE 14 2F 20                       bset    <BitFlags2f $20
 8806:                                 
 8807:     D5C1                        loc_D5C1:
 8808:     D5C1 13 61 40 0E                    brclr   <StartupSwitchMirror1 $40 loc_D5D3
 8809:     D5C5 13 61 80 05                    brclr   <StartupSwitchMirror1 $80 loc_D5CE
 8810:     D5C9 14 25 20                       bset    <BitFlags68_t3 $20
 8811:     D5CC 20 18                          bra     loc_D5E6
 8812:                                 
 8813:     D5CE                        loc_D5CE:
 8814:     D5CE 15 25 20                       bclr    <BitFlags68_t3 $20
 8815:     D5D1 20 13                          bra     loc_D5E6
 8816:                                 
 8817:     D5D3                        loc_D5D3:
 8818:     D5D3 14 25 20                       bset    <BitFlags68_t3 $20
 8819:     D5D6 20 0E                          bra     loc_D5E6
 8820:                                 
 8821:     D5D8                        loc_D5D8:
 8822:     D5D8 97 61                          staa    <StartupSwitchMirror1
 8823:     D5DA 13 61 80 05                    brclr   <StartupSwitchMirror1 $80 loc_D5E3
 8824:     D5DE 14 25 20                       bset    <BitFlags68_t3 $20
 8825:     D5E1 20 03                          bra     loc_D5E6
 8826:                                 
 8827:     D5E3                        loc_D5E3:
 8828:     D5E3 15 25 20                       bclr    <BitFlags68_t3 $20
 8829:                                 
 8830:     D5E6                        loc_D5E6:
 8831:                                 
 8832:     D5E6 13 30 80 52                    brclr   <Ram_30 $80 loc_D63C
 8833:     D5EA B6 649D                        ldaa    Temp4
 8834:     D5ED B4 8A38                        anda    byte_8A38
 8835:     D5F0 CE D3C1                        ldx     #gw_PIA1AManipulation_Table2
 8836:     D5F3 D6 45                          ldab    <Counter_MainLoop
 8837:     D5F5 C4 07                          andb    #$07
 8838:     D5F7 3A                             abx
 8839:     D5F8 A5 00                          bita    $00,x
 8840:     D5FA 27 3F                          beq     locret_D63B
 8841:     D5FC B6 6480                        ldaa    CountdownTimerFromKeyOn
 8842:     D5FF 26 3A                          bne     locret_D63B
 8843:     D601 B6 6400                        ldaa    SwitchPortAccessReg1
 8844:     D604 85 40                          bita    #$40
 8845:     D606 26 33                          bne     locret_D63B
 8846:     D608 96 5B                          ldaa    <BatteryVolts
 8847:     D60A 81 A0                          cmpa    #$A0
 8848:     D60C 25 2D                          bcs     locret_D63B
 8849:     D60E A6 08                          ldaa    $08,x
 8850:     D610 C6 A0                          ldab    #$A0
 8851:     D612 81 0C                          cmpa    #$0C
 8852:     D614 27 12                          beq     loc_D628
 8853:     D616 81 19                          cmpa    #$19
 8854:     D618 26 1C                          bne     loc_D636
 8855:     D61A 12 D6 80 1D                    brset   <b5D_IPL2_t3 $80 locret_D63B
 8856:     D61E BD D2C9                        jsr     ThrowNonCriticalError
 8857:     D621 24 18                          bcc     locret_D63B
 8858:     D623 14 D6 80                       bset    <b5D_IPL2_t3 $80
 8859:     D626 20 13                          bra     locret_D63B
 8860:                                 
 8861:     D628                        loc_D628:
 8862:     D628 12 D7 80 0F                    brset   <b5d_IPL2 $80 locret_D63B
 8863:     D62C BD D2C9                        jsr     ThrowNonCriticalError
 8864:     D62F 24 0A                          bcc     locret_D63B
 8865:     D631 14 D7 80                       bset    <b5d_IPL2 $80
 8866:     D634 20 05                          bra     locret_D63B
 8867:                                 
 8868:     D636                        loc_D636:
 8869:     D636 C6 20                          ldab    #$20
 8870:     D638 BD D2C9                        jsr     ThrowNonCriticalError
 8871:                                 
 8872:     D63B                        locret_D63B:
 8873:     D63B 39                             rts
 8874:                                 
 8875:     D63C                        loc_D63C:
 8876:     D63C 14 30 80                       bset    <Ram_30 $80
 8877:     D63F 39                             rts
 8878:                                 
 8879:     D640                        loc_D640:
 8880:     D640 181C 08 20                     bset    $08,y $20
 8881:     D644 0E                             cli
 8882:     D645 96 26                          ldaa    <BitFlags6a_t3
 8883:     D647 85 60                          bita    #$60
 8884:     D649 26 1A                          bne     loc_D665
 8885:     D64B B6 103B                        ldaa    PPROG_EEPROMControlReg
 8886:     D64E 85 02                          bita    #$02
 8887:     D650 26 13                          bne     loc_D665
 8888:     D652 CC B618                        ldd     #MCU_eeprom + $18
 8889:     D655 17                             tba
 8890:     D656 F6 B618                        ldab    MCU_eeprom + $18
 8891:     D659 27 0A                          beq     loc_D665
 8892:     D65B 5A                             decb
 8893:     D65C B7 64B0                        staa    DRBOffsetStored_HB
 8894:     D65F F7 64B1                        stab    DRBOffsetStored_LB
 8895:     D662 14 26 40                       bset    <BitFlags6a_t3 $40
 8896:                                 
 8897:     D665                        loc_D665:
 8898:     D665 CC 4488                        ldd     #$4488
 8899:     D668 BD D2C9                        jsr     ThrowNonCriticalError
 8900:     D66B 24 13                          bcc     loc_D680
 8901:     D66D 0F                             sei
 8902:     D66E B6 6400                        ldaa    SwitchPortAccessReg1
 8903:     D671 84 FE                          anda    #$FE
 8904:     D673 B7 6400                        staa    SwitchPortAccessReg1
 8905:     D676 C6 03                          ldab    #$03
 8906:                                 
 8907:     D678                        loc_D678:
 8908:     D678 5A                             decb
 8909:     D679 26 FD                          bne     loc_D678
 8910:     D67B 8A 01                          oraa    #$01
 8911:     D67D B7 6400                        staa    SwitchPortAccessReg1
 8912:                                 
 8913:     D680                        loc_D680:
 8914:     D680 0E                             cli
 8915:     D681 39                             rts
 8916:                                 
 8917:     D682                        sub_D682:
 8918:     D682 96 F3                          ldaa    <Ram_F3
 8919:     D684 2A 13                          bpl     locret_D699
 8920:     D686 84 7F                          anda    #$7F
 8921:     D688 97 F3                          staa    <Ram_F3
 8922:     D68A CC 26A8                        ldd     #$26A8
 8923:     D68D 12 D5 80 08                    brset   <b5C_IPL1_t3 $80 locret_D699
 8924:     D691 BD D2C9                        jsr     ThrowNonCriticalError
 8925:     D694 24 03                          bcc     locret_D699
 8926:     D696 14 D5 80                       bset    <b5C_IPL1_t3 $80
 8927:                                 
 8928:     D699                        locret_D699:
 8929:     D699 39                             rts
 8930:                                 
 8931:     D69A                        sub_D69A:
 8932:     D69A C6 40                          ldab    #$40
 8933:     D69C 12 20 40 1A                    brset   <IPL1 $40 loc_D6BA
 8934:     D6A0 96 D8                          ldaa    <DRBPointer1
 8935:     D6A2 81 0A                          cmpa    #$0A
 8936:     D6A4 26 03                          bne     loc_D6A9
 8937:     D6A6 7E D1BB                        jmp     loc_D1BB
 8938:                                 
 8939:     D6A9                        loc_D6A9:
 8940:     D6A9 81 18                          cmpa    #$18
 8941:     D6AB 26 07                          bne     loc_D6B4
 8942:     D6AD 96 45                          ldaa    <Counter_MainLoop
 8943:     D6AF 48                             asla
 8944:     D6B0 2B 2C                          bmi     loc_D6DE
 8945:     D6B2 20 29                          bra     loc_D6DD
 8946:                                 
 8947:     D6B4                        loc_D6B4:
 8948:     D6B4 12 26 04 26                    brset   <BitFlags6a_t3 $04 loc_D6DE
 8949:     D6B8 20 23                          bra     loc_D6DD
 8950:                                 
 8951:     D6BA                        loc_D6BA:
 8952:     D6BA DE 44                          ldx     <KeyOnOrEngineRunningTime
 8953:     D6BC 8C 0003                        cpx     #$0003
 8954:     D6BF 23 1D                          bls     loc_D6DE
 8955:     D6C1 15 05 C0                       bclr    <Ram_05 $C0
 8956:     D6C4 13 CD 40 15                    brclr   <PIA1_Buffer_t3 $40 loc_D6DD
 8957:     D6C8 96 D5                          ldaa    <b5C_IPL1_t3
 8958:     D6CA B5 8A3A                        bita    byte_8A3A
 8959:     D6CD 26 0E                          bne     loc_D6DD
 8960:     D6CF 96 D6                          ldaa    <b5D_IPL2_t3
 8961:     D6D1 B5 8A3B                        bita    byte_8A3B
 8962:     D6D4 26 07                          bne     loc_D6DD
 8963:     D6D6 96 D7                          ldaa    <b5d_IPL2
 8964:     D6D8 B5 8A3C                        bita    byte_8A3C
 8965:     D6DB 27 01                          beq     loc_D6DE
 8966:                                 
 8967:     D6DD                        loc_D6DD:
 8968:     D6DD 5F                             clrb
 8969:                                 
 8970:     D6DE                        loc_D6DE:
 8971:     D6DE 86 BF                          ldaa    #$BF
 8972:     D6E0 94 CD                          anda    <PIA1_Buffer_t3
 8973:     D6E2 1B                             aba
 8974:     D6E3 97 CD                          staa    <PIA1_Buffer_t3
 8975:     D6E5 39                             rts
 8976:                                 
 8977:     D6E6                        sub_D6E6:
 8978:     D6E6 96 27                          ldaa    <BitFlags27
 8979:     D6E8 85 C0                          bita    #$C0
 8980:     D6EA 27 46                          beq     locret_D732
 8981:     D6EC 12 20 40 06                    brset   <IPL1 $40 loc_D6F6
 8982:     D6F0 12 26 04 36                    brset   <BitFlags6a_t3 $04 loc_D72A
 8983:     D6F4 20 39                          bra     loc_D72F
 8984:                                 
 8985:     D6F6                        loc_D6F6:
 8986:     D6F6 12 D5 20 35                    brset   <b5C_IPL1_t3 $20 loc_D72F
 8987:     D6FA 96 45                          ldaa    <Counter_MainLoop
 8988:     D6FC 85 3C                          bita    #$3C
 8989:     D6FE 26 26                          bne     loc_D726
 8990:     D700 96 64                          ldaa    <TargetBatteryVolts
 8991:     D702 90 5B                          suba    <BatteryVolts
 8992:     D704 25 19                          bcs     loc_D71F
 8993:     D706 81 11                          cmpa    #$11
 8994:     D708 25 15                          bcs     loc_D71F
 8995:     D70A DC 46                          ldd     <EngineRpm_HB
 8996:     D70C 1A83 2EE0                      cpd     #$2EE0
 8997:     D710 25 10                          bcs     loc_D722
 8998:     D712 B6 64B8                        ldaa    UNe_64B8
 8999:     D715 4C                             inca
 9000:     D716 81 56                          cmpa    #$56
 9001:     D718 25 09                          bcs     loc_D723
 9002:     D71A 14 30 20                       bset    <Ram_30 $20
 9003:     D71D 20 10                          bra     loc_D72F
 9004:                                 
 9005:     D71F                        loc_D71F:
 9006:     D71F 15 30 20                       bclr    <Ram_30 $20
 9007:                                 
 9008:     D722                        loc_D722:
 9009:     D722 4F                             clra
 9010:                                 
 9011:     D723                        loc_D723:
 9012:     D723 B7 64B8                        staa    UNe_64B8
 9013:                                 
 9014:     D726                        loc_D726:
 9015:     D726 12 30 20 05                    brset   <Ram_30 $20 loc_D72F
 9016:                                 
 9017:     D72A                        loc_D72A:
 9018:     D72A 14 CE 04                       bset    <PIA2_Buffer_t3 $04
 9019:     D72D 20 03                          bra     locret_D732
 9020:                                 
 9021:     D72F                        loc_D72F:
 9022:                                 
 9023:     D72F 15 CE 04                       bclr    <PIA2_Buffer_t3 $04
 9024:                                 
 9025:     D732                        locret_D732:
 9026:     D732 39                             rts
 9027:                                 
 9028:     D733                        sub_D733:
 9029:     D733 DC DC                          ldd     <ErrorBitsAssociatedWithPIA1AndReg1eTo25_HB
 9030:     D735 4D                             tsta
 9031:     D736 27 08                          beq     loc_D740
 9032:     D738 7A 00DE                        dec     ClearTheErrorTimer_0
 9033:     D73B 26 03                          bne     loc_D740
 9034:     D73D 7F 00DC                        clr     ErrorBitsAssociatedWithPIA1AndReg1eTo25_HB
 9035:                                 
 9036:     D740                        loc_D740:
 9037:     D740 5D                             tstb
 9038:     D741 27 08                          beq     loc_D74B
 9039:     D743 7A 00DF                        dec     ClearTheErrorTimer_1
 9040:     D746 26 03                          bne     loc_D74B
 9041:     D748 7F 00DD                        clr     ErrorBitsAssociatedWithPIA1AndReg1eTo25_LB
 9042:                                 
 9043:     D74B                        loc_D74B:
 9044:     D74B B6 64B5                        ldaa    ERRORCODERESETTIMERIN_UN_ERRORCODEIN_LN_VAR
 9045:     D74E 27 0A                          beq     locret_D75A
 9046:     D750 80 10                          suba    #$10
 9047:     D752 85 F0                          bita    #$F0
 9048:     D754 26 01                          bne     loc_D757
 9049:     D756 4F                             clra
 9050:                                 
 9051:     D757                        loc_D757:
 9052:     D757 B7 64B5                        staa    ERRORCODERESETTIMERIN_UN_ERRORCODEIN_LN_VAR
 9053:                                 
 9054:     D75A                        locret_D75A:
 9055:     D75A 39                             rts
 9056:                                 
 9057:     D75B                        sub_D75B:
 9058:     D75B 13 20 40 35                    brclr   <IPL1 $40 locret_D794
 9059:     D75F 12 28 04 31                    brset   <BitFlags6d_t3 $04 locret_D794
 9060:     D763 12 26 40 2D                    brset   <BitFlags6a_t3 $40 locret_D794
 9061:     D767 14 28 04                       bset    <BitFlags6d_t3 $04
 9062:     D76A 13 1C FF 1F                    brclr   <ErrorBitRegisterStored3 $FF loc_D78D
 9063:     D76E 96 1D                          ldaa    <ErrorCodeUpdateKeyOnCount
 9064:     D770 81 32                          cmpa    #$32
 9065:     D772 25 03                          bcs     loc_D777
 9066:     D774 7E CC37                        jmp     sub_CC37
 9067:                                 
 9068:     D777                        loc_D777:
 9069:     D777 96 1A                          ldaa    <ErrorBitRegisterStored1
 9070:     D779 27 07                          beq     loc_D782
 9071:     D77B 96 1F                          ldaa    <ErrorCodeUpdateKeyOnCount3
 9072:     D77D 4C                             inca
 9073:     D77E 27 02                          beq     loc_D782
 9074:     D780 97 1F                          staa    <ErrorCodeUpdateKeyOnCount3
 9075:                                 
 9076:     D782                        loc_D782:
 9077:     D782 96 1B                          ldaa    <ErrorBitRegisterStored2
 9078:     D784 27 07                          beq     loc_D78D
 9079:     D786 96 1E                          ldaa    <ErrorCodeUpdateKeyOnCount2
 9080:     D788 4C                             inca
 9081:     D789 27 02                          beq     loc_D78D
 9082:     D78B 97 1E                          staa    <ErrorCodeUpdateKeyOnCount2
 9083:                                 
 9084:     D78D                        loc_D78D:
 9085:     D78D 96 1D                          ldaa    <ErrorCodeUpdateKeyOnCount
 9086:     D78F 4C                             inca
 9087:     D790 27 02                          beq     locret_D794
 9088:     D792 97 1D                          staa    <ErrorCodeUpdateKeyOnCount
 9089:                                 
 9090:     D794                        locret_D794:
 9091:     D794 39                             rts
 9092:                                 
 9093:     D795                        sub_D795:
 9094:     D795 84 0F                          anda    #$0F
 9095:     D797 F6 64B5                        ldab    ERRORCODERESETTIMERIN_UN_ERRORCODEIN_LN_VAR
 9096:     D79A 27 08                          beq     loc_D7A4
 9097:     D79C C4 0F                          andb    #$0F
 9098:     D79E 11                             cba
 9099:     D79F 26 0A                          bne     locret_D7AB
 9100:     D7A1 B6 64B5                        ldaa    ERRORCODERESETTIMERIN_UN_ERRORCODEIN_LN_VAR
 9101:                                 
 9102:     D7A4                        loc_D7A4:
 9103:     D7A4 8B 10                          adda    #$10
 9104:     D7A6 25 04                          bcs     loc_D7AC
 9105:     D7A8 B7 64B5                        staa    ERRORCODERESETTIMERIN_UN_ERRORCODEIN_LN_VAR
 9106:                                 
 9107:     D7AB                        locret_D7AB:
 9108:     D7AB 39                             rts
 9109:                                 
 9110:     D7AC                        loc_D7AC:
 9111:     D7AC C6 01                          ldab    #$01
 9112:                                 
 9113:     D7AE                        loc_D7AE:
 9114:     D7AE 4A                             deca
 9115:     D7AF 27 03                          beq     loc_D7B4
 9116:     D7B1 58                             aslb
 9117:     D7B2 20 FA                          bra     loc_D7AE
 9118:                                 
 9119:     D7B4                        loc_D7B4:
 9120:     D7B4 7F 64B5                        clr     ERRORCODERESETTIMERIN_UN_ERRORCODEIN_LN_VAR
 9121:     D7B7 53                             comb
 9122:     D7B8 0F                             sei
 9123:     D7B9 D4 D5                          andb    <b5C_IPL1_t3
 9124:     D7BB D7 D5                          stab    <b5C_IPL1_t3
 9125:     D7BD 0E                             cli
 9126:     D7BE 39                             rts
 9127:                                 
 9128:     D7BF                        sub_D7BF:
 9129:     D7BF D6 46                          ldab    <EngineRpm_HB
 9130:     D7C1 C1 7D                          cmpb    #$7D
 9131:     D7C3 86 00                          ldaa    #$00
 9132:     D7C5 24 16                          bcc     loc_D7DD
 9133:     D7C7 C0 10                          subb    #$10
 9134:     D7C9 24 01                          bcc     loc_D7CC
 9135:     D7CB 5F                             clrb
 9136:                                 
 9137:     D7CC                        loc_D7CC:
 9138:     D7CC 86 29                          ldaa    #$29
 9139:     D7CE 3D                             mul
 9140:     D7CF 05                             lsld
 9141:     D7D0 58                             aslb
 9142:     D7D1 99 06                          adca    <LowestSessionTpsVolts
 9143:     D7D3 16                             tab
 9144:     D7D4 96 51                          ldaa    <TpsVolts
 9145:     D7D6 BB 8A9A                        adda    byte_8A9A
 9146:     D7D9 10                             sba
 9147:     D7DA 24 01                          bcc     loc_D7DD
 9148:     D7DC 4F                             clra
 9149:                                 
 9150:     D7DD                        loc_D7DD:
 9151:     D7DD CE 8A86                        ldx     #unk_8A86
 9152:     D7E0 BD E655                        jsr     Lookup4ByteTable
 9153:     D7E3 BB 8A99                        adda    byte_8A99
 9154:     D7E6 24 02                          bcc     locret_D7EA
 9155:     D7E8 86 FF                          ldaa    #$FF
 9156:                                 
 9157:     D7EA                        locret_D7EA:
 9158:     D7EA 39                             rts
 9159:                                 
 9160:     D7EB                        sub_D7EB:
 9161:     D7EB 13 05 01 36                    brclr   <Ram_05 $01 loc_D825
 9162:     D7EF D6 5B                          ldab    <BatteryVolts
 9163:     D7F1 F1 8A44                        cmpb    byte_8A44
 9164:     D7F4 25 20                          bcs     loc_D816
 9165:     D7F6 F1 8A43                        cmpb    byte_8A43
 9166:     D7F9 24 1B                          bcc     loc_D816
 9167:     D7FB 96 EA                          ldaa    <MapVolts_X
 9168:     D7FD 90 EB                          suba    <MapValue3
 9169:     D7FF 23 15                          bls     loc_D816
 9170:     D801 B1 8A42                        cmpa    byte_8A42
 9171:     D804 25 10                          bcs     loc_D816
 9172:     D806 0F                             sei
 9173:                                 
 9174:     D807                        loc_D807:
 9175:     D807 B6 1030                        ldaa    ADCTL_A2DControlReg
 9176:     D80A 2A FB                          bpl     loc_D807
 9177:     D80C B6 1031                        ldaa    ADR1_A2DResults1
 9178:     D80F 97 EA                          staa    <MapVolts_X
 9179:     D811 97 EB                          staa    <MapValue3
 9180:     D813 0E                             cli
 9181:     D814 20 09                          bra     loc_D81F
 9182:                                 
 9183:     D816                        loc_D816:
 9184:     D816 B6 64B9                        ldaa    UNe_64B9
 9185:     D819 84 E0                          anda    #$E0
 9186:     D81B 81 E0                          cmpa    #$E0
 9187:     D81D 26 06                          bne     loc_D825
 9188:                                 
 9189:     D81F                        loc_D81F:
 9190:     D81F CC 2828                        ldd     #$2828
 9191:     D822 BD D2C9                        jsr     ThrowNonCriticalError
 9192:                                 
 9193:     D825                        loc_D825:
 9194:     D825 12 3A 80 18                    brset   <BitFlags_BF_t3 $80 locret_D841
 9195:     D829 B6 64B9                        ldaa    UNe_64B9
 9196:     D82C 84 1F                          anda    #$1F
 9197:     D82E 81 1F                          cmpa    #$1F
 9198:     D830 26 0F                          bne     locret_D841
 9199:     D832 12 D7 40 0B                    brset   <b5d_IPL2 $40 locret_D841
 9200:     D836 CC 0181                        ldd     #$0181
 9201:     D839 BD D2C9                        jsr     ThrowNonCriticalError
 9202:     D83C 24 03                          bcc     locret_D841
 9203:     D83E 14 D7 40                       bset    <b5d_IPL2 $40
 9204:                                 
 9205:     D841                        locret_D841:
 9206:     D841 39                             rts
 9207:                                 
 9208:     D842                        sub_D842:
 9209:     D842 13 20 40 44                    brclr   <IPL1 $40 locret_D88A
 9210:     D846 DC 44                          ldd     <KeyOnOrEngineRunningTime
 9211:     D848 81 0B                          cmpa    #$0B
 9212:     D84A 25 3E                          bcs     locret_D88A
 9213:     D84C 96 54                          ldaa    <CoolantTemp
 9214:     D84E B1 8A58                        cmpa    byte_8A58
 9215:     D851 25 37                          bcs     locret_D88A
 9216:     D853 C5 1F                          bitb    #$1F
 9217:     D855 26 33                          bne     locret_D88A
 9218:     D857 12 27 01 04                    brset   <BitFlags27 $01 loc_D85F
 9219:     D85B 13 25 10 2B                    brclr   <BitFlags68_t3 $10 locret_D88A
 9220:                                 
 9221:     D85F                        loc_D85F:
 9222:     D85F 12 61 20 27                    brset   <StartupSwitchMirror1 $20 locret_D88A
 9223:     D863 13 22 80 23                    brclr   <BitFlags66_t3 $80 locret_D88A
 9224:     D867 96 46                          ldaa    <EngineRpm_HB
 9225:     D869 B1 8A56                        cmpa    byte_8A56
 9226:     D86C 25 1C                          bcs     locret_D88A
 9227:     D86E 96 4F                          ldaa    <MapVolts
 9228:     D870 B1 8A57                        cmpa    byte_8A57
 9229:     D873 24 15                          bcc     locret_D88A
 9230:     D875 96 5F                          ldaa    <VehicleSpeedx8_Scaled
 9231:     D877 81 02                          cmpa    #$02
 9232:     D879 24 0F                          bcc     locret_D88A
 9233:     D87B 12 D6 10 0B                    brset   <b5D_IPL2_t3 $10 locret_D88A
 9234:     D87F CC 23A0                        ldd     #$23A0
 9235:     D882 BD D2C9                        jsr     ThrowNonCriticalError
 9236:     D885 24 03                          bcc     locret_D88A
 9237:     D887 14 D6 10                       bset    <b5D_IPL2_t3 $10
 9238:                                 
 9239:     D88A                        locret_D88A:
 9240:     D88A 39                             rts
 9241:                                 
 9242:     D88B                        sub_D88B:
 9243:     D88B B6 6400                        ldaa    SwitchPortAccessReg1
 9244:     D88E 85 40                          bita    #$40
 9245:     D890 27 01                          beq     loc_D893
 9246:     D892 39                             rts
 9247:                                 
 9248:     D893                        loc_D893:
 9249:     D893 12 20 40 03                    brset   <IPL1 $40 loc_D89A
 9250:     D897 7E D8DD                        jmp     loc_D8DD
 9251:                                 
 9252:     D89A                        loc_D89A:
 9253:     D89A 96 44                          ldaa    <KeyOnOrEngineRunningTime
 9254:     D89C 81 2C                          cmpa    #$2C
 9255:     D89E 25 3D                          bcs     loc_D8DD
 9256:     D8A0 96 54                          ldaa    <CoolantTemp
 9257:     D8A2 81 CD                          cmpa    #$CD
 9258:     D8A4 25 37                          bcs     loc_D8DD
 9259:     D8A6 13 2E 04 38                    brclr   <BitFlags2e $04 loc_D8E2
 9260:     D8AA 96 F1                          ldaa    <Counter_O2Diagnostics
 9261:     D8AC 81 13                          cmpa    #$13
 9262:     D8AE 25 28                          bcs     loc_D8D8
 9263:     D8B0 96 53                          ldaa    <O2SensorVolts
 9264:     D8B2 81 4D                          cmpa    #$4D
 9265:     D8B4 25 27                          bcs     loc_D8DD
 9266:     D8B6 96 F2                          ldaa    <Timer_O2MiddleDiagnostics
 9267:     D8B8 81 2A                          cmpa    #$2A
 9268:     D8BA 25 11                          bcs     loc_D8CD
 9269:     D8BC 12 D7 02 0B                    brset   <b5d_IPL2 $02 loc_D8CB
 9270:     D8C0 CC 2081                        ldd     #$2081
 9271:     D8C3 BD D2C9                        jsr     ThrowNonCriticalError
 9272:     D8C6 24 73                          bcc     locret_D93B
 9273:     D8C8 14 D7 02                       bset    <b5d_IPL2 $02
 9274:                                 
 9275:     D8CB                        loc_D8CB:
 9276:     D8CB 20 6E                          bra     locret_D93B
 9277:                                 
 9278:     D8CD                        loc_D8CD:
 9279:     D8CD D6 45                          ldab    <Counter_MainLoop
 9280:     D8CF C5 7F                          bitb    #$7F
 9281:     D8D1 26 68                          bne     locret_D93B
 9282:     D8D3 4C                             inca
 9283:     D8D4 97 F2                          staa    <Timer_O2MiddleDiagnostics
 9284:     D8D6 20 63                          bra     locret_D93B
 9285:                                 
 9286:     D8D8                        loc_D8D8:
 9287:     D8D8 4C                             inca
 9288:     D8D9 97 F1                          staa    <Counter_O2Diagnostics
 9289:     D8DB 20 5E                          bra     locret_D93B
 9290:                                 
 9291:     D8DD                        loc_D8DD:
 9292:     D8DD 15 2E 04                       bclr    <BitFlags2e $04
 9293:     D8E0 20 30                          bra     loc_D912
 9294:                                 
 9295:     D8E2                        loc_D8E2:
 9296:     D8E2 96 53                          ldaa    <O2SensorVolts
 9297:     D8E4 B1 8A53                        cmpa    byte_8A53
 9298:     D8E7 22 29                          bhi     loc_D912
 9299:     D8E9 B1 8A54                        cmpa    byte_8A54
 9300:     D8EC 25 24                          bcs     loc_D912
 9301:     D8EE 96 F2                          ldaa    <Timer_O2MiddleDiagnostics
 9302:     D8F0 81 15                          cmpa    #$15
 9303:     D8F2 25 15                          bcs     loc_D909
 9304:     D8F4 14 2E 04                       bset    <BitFlags2e $04
 9305:     D8F7 4F                             clra
 9306:     D8F8 97 F2                          staa    <Timer_O2MiddleDiagnostics
 9307:     D8FA 97 F1                          staa    <Counter_O2Diagnostics
 9308:     D8FC 0F                             sei
 9309:     D8FD 96 CF                          ldaa    <PIA3_Buffer_t3
 9310:     D8FF 8A 08                          oraa    #$08
 9311:     D901 97 CF                          staa    <PIA3_Buffer_t3
 9312:     D903 B7 6440                        staa    PIA3_Buffer_2_t3
 9313:     D906 0E                             cli
 9314:     D907 20 32                          bra     locret_D93B
 9315:                                 
 9316:     D909                        loc_D909:
 9317:     D909 D6 45                          ldab    <Counter_MainLoop
 9318:     D90B C5 7F                          bitb    #$7F
 9319:     D90D 26 06                          bne     loc_D915
 9320:     D90F 4C                             inca
 9321:     D910 20 01                          bra     loc_D913
 9322:                                 
 9323:     D912                        loc_D912:
 9324:     D912 4F                             clra
 9325:                                 
 9326:     D913                        loc_D913:
 9327:     D913 97 F2                          staa    <Timer_O2MiddleDiagnostics
 9328:                                 
 9329:     D915                        loc_D915:
 9330:     D915 0F                             sei
 9331:     D916 96 CF                          ldaa    <PIA3_Buffer_t3
 9332:     D918 84 F7                          anda    #$F7
 9333:     D91A 97 CF                          staa    <PIA3_Buffer_t3
 9334:     D91C B7 6440                        staa    PIA3_Buffer_2_t3
 9335:     D91F 0E                             cli
 9336:     D920 96 45                          ldaa    <Counter_MainLoop
 9337:     D922 85 0F                          bita    #$0F
 9338:     D924 26 15                          bne     locret_D93B
 9339:     D926 12 D7 04 11                    brset   <b5d_IPL2 $04 locret_D93B
 9340:     D92A 96 53                          ldaa    <O2SensorVolts
 9341:     D92C 81 3E                          cmpa    #$3E
 9342:     D92E 23 0B                          bls     locret_D93B
 9343:     D930 CC 3E8F                        ldd     #$3E8F
 9344:     D933 BD D2C9                        jsr     ThrowNonCriticalError
 9345:     D936 24 03                          bcc     locret_D93B
 9346:     D938 14 D7 04                       bset    <b5d_IPL2 $04
 9347:                                 
 9348:     D93B                        locret_D93B:
 9349:     D93B 39                             rts
 9350:                                 
 9351:     D93C                        sub_D93C:
 9352:     D93C 96 E0                          ldaa    <ATMOffset
 9353:     D93E 81 0D                          cmpa    #$0D
 9354:     D940 27 31                          beq     loc_D973
 9355:     D942 12 D7 10 2D                    brset   <b5d_IPL2 $10 loc_D973
 9356:     D946 0F                             sei
 9357:     D947 B6 6400                        ldaa    SwitchPortAccessReg1
 9358:     D94A 85 10                          bita    #$10
 9359:     D94C 27 25                          beq     loc_D973
 9360:     D94E 85 40                          bita    #$40
 9361:     D950 26 21                          bne     loc_D973
 9362:     D952 12 CE 10 1D                    brset   <PIA2_Buffer_t3 $10 loc_D973
 9363:     D956 13 2E 20 13                    brclr   <BitFlags2e $20 loc_D96D
 9364:     D95A 44                             lsra
 9365:     D95B 98 24                          eora    <BitFlags24
 9366:     D95D 85 02                          bita    #$02
 9367:     D95F 0E                             cli
 9368:     D960 27 0B                          beq     loc_D96D
 9369:     D962 CC 0BA0                        ldd     #$0BA0
 9370:     D965 BD D2C9                        jsr     ThrowNonCriticalError
 9371:     D968 24 03                          bcc     loc_D96D
 9372:     D96A 14 D7 10                       bset    <b5d_IPL2 $10
 9373:                                 
 9374:     D96D                        loc_D96D:
 9375:     D96D 0E                             cli
 9376:     D96E 14 2E 20                       bset    <BitFlags2e $20
 9377:     D971 20 04                          bra     locret_D977
 9378:                                 
 9379:     D973                        loc_D973:
 9380:     D973 0E                             cli
 9381:     D974 15 2E 20                       bclr    <BitFlags2e $20
 9382:                                 
 9383:     D977                        locret_D977:
 9384:     D977 39                             rts
 9385:                                 
 9386:     D978                        sub_D978:
 9387:     D978 13 2E 02 22                    brclr   <BitFlags2e $02 loc_D99E
 9388:     D97C 96 5B                          ldaa    <BatteryVolts
 9389:     D97E 81 82                          cmpa    #$82
 9390:     D980 25 1B                          bcs     locret_D99D
 9391:     D982 96 45                          ldaa    <Counter_MainLoop
 9392:     D984 85 04                          bita    #$04
 9393:     D986 26 15                          bne     locret_D99D
 9394:     D988 96 35                          ldaa    <TimerOverflowsBetweenCamPulses
 9395:     D98A 26 11                          bne     locret_D99D
 9396:     D98C 12 36 80 0D                    brset   <DistributorFallingEdgePulsewidth_HB $80 locret_D99D
 9397:     D990 B6 6400                        ldaa    SwitchPortAccessReg1
 9398:     D993 85 50                          bita    #$50
 9399:     D995 26 06                          bne     locret_D99D
 9400:     D997 CC 2C14                        ldd     #$2C14
 9401:     D99A BD D2C9                        jsr     ThrowNonCriticalError
 9402:                                 
 9403:     D99D                        locret_D99D:
 9404:     D99D 39                             rts
 9405:                                 
 9406:     D99E                        loc_D99E:
 9407:     D99E 14 2E 02                       bset    <BitFlags2e $02
 9408:     D9A1 39                             rts
 9409:                                 
 9410:     D9A2                        sub_D9A2:
 9411:     D9A2 96 ED                          ldaa    <BitFlags608D
 9412:     D9A4 84 0F                          anda    #$0F
 9413:     D9A6 4C                             inca
 9414:     D9A7 B1 8A6A                        cmpa    byte_8A6A
 9415:     D9AA 24 06                          bcc     loc_D9B2
 9416:     D9AC 7C 00ED                        inc     BitFlags608D
 9417:     D9AF 7E DA30                        jmp     locret_DA30
 9418:                                 
 9419:     D9B2                        loc_D9B2:
 9420:     D9B2 96 ED                          ldaa    <BitFlags608D
 9421:     D9B4 84 F0                          anda    #$F0
 9422:     D9B6 97 ED                          staa    <BitFlags608D
 9423:     D9B8 96 EA                          ldaa    <MapVolts_X
 9424:     D9BA 90 EB                          suba    <MapValue3
 9425:     D9BC F6 1031                        ldab    ADR1_A2DResults1
 9426:     D9BF D7 EA                          stab    <MapVolts_X
 9427:     D9C1 D7 EB                          stab    <MapValue3
 9428:     D9C3 12 D5 80 27                    brset   <b5C_IPL1_t3 $80 loc_D9EE
 9429:     D9C7 B1 8A68                        cmpa    byte_8A68
 9430:     D9CA 24 64                          bcc     locret_DA30
 9431:     D9CC DC 46                          ldd     <EngineRpm_HB
 9432:     D9CE 1AB3 8A7B                      cpd     word_8A7B
 9433:     D9D2 25 5C                          bcs     locret_DA30
 9434:     D9D4 1AB3 8A7D                      cpd     word_8A7D
 9435:     D9D8 24 56                          bcc     locret_DA30
 9436:     D9DA 96 EA                          ldaa    <MapVolts_X
 9437:     D9DC B1 8A7F                        cmpa    byte_8A7F
 9438:     D9DF 25 4F                          bcs     locret_DA30
 9439:     D9E1 B1 8A80                        cmpa    byte_8A80
 9440:     D9E4 24 4A                          bcc     locret_DA30
 9441:     D9E6 96 F3                          ldaa    <Ram_F3
 9442:     D9E8 8A 80                          oraa    #$80
 9443:     D9EA 97 F3                          staa    <Ram_F3
 9444:     D9EC 20 42                          bra     locret_DA30
 9445:                                 
 9446:     D9EE                        loc_D9EE:
 9447:     D9EE D6 ED                          ldab    <BitFlags608D
 9448:     D9F0 CB 10                          addb    #$10
 9449:     D9F2 24 02                          bcc     loc_D9F6
 9450:     D9F4 CA F0                          orab    #$F0
 9451:                                 
 9452:     D9F6                        loc_D9F6:
 9453:     D9F6 D7 ED                          stab    <BitFlags608D
 9454:     D9F8 B0 8A68                        suba    byte_8A68
 9455:     D9FB 25 33                          bcs     locret_DA30
 9456:     D9FD B1 8A69                        cmpa    byte_8A69
 9457:     DA00 25 2E                          bcs     locret_DA30
 9458:     DA02 96 5F                          ldaa    <VehicleSpeedx8_Scaled
 9459:     DA04 26 12                          bne     loc_DA18
 9460:     DA06 12 22 80 0E                    brset   <BitFlags66_t3 $80 loc_DA18
 9461:     DA0A DC 46                          ldd     <EngineRpm_HB
 9462:     DA0C 93 6D                          subd    <TargetIdleSpeedHB
 9463:     DA0E 24 02                          bcc     loc_DA12
 9464:     DA10 43                             coma
 9465:     DA11 53                             comb
 9466:                                 
 9467:     DA12                        loc_DA12:
 9468:     DA12 1AB3 8A81                      cpd     word_8A81
 9469:     DA16 25 18                          bcs     locret_DA30
 9470:                                 
 9471:     DA18                        loc_DA18:
 9472:     DA18 F6 8A6A                        ldab    byte_8A6A
 9473:     DA1B CE 8A6B                        ldx     #unk_8A6B
 9474:     DA1E 3A                             abx
 9475:     DA1F A6 00                          ldaa    $00,x
 9476:     DA21 91 ED                          cmpa    <BitFlags608D
 9477:     DA23 22 0B                          bhi     locret_DA30
 9478:     DA25 86 08                          ldaa    #$08
 9479:     DA27 BD D795                        jsr     sub_D795
 9480:     DA2A 96 ED                          ldaa    <BitFlags608D
 9481:     DA2C 84 0F                          anda    #$0F
 9482:     DA2E 97 ED                          staa    <BitFlags608D
 9483:                                 
 9484:     DA30                        locret_DA30:
 9485:     DA30 39                             rts
 9486:                                 
 9487:     DA31                        sub_DA31:
 9488:     DA31 96 45                          ldaa    <Counter_MainLoop
 9489:     DA33 85 07                          bita    #$07
 9490:     DA35 26 53                          bne     loc_DA8A
 9491:     DA37 12 D5 80 37                    brset   <b5C_IPL1_t3 $80 loc_DA72
 9492:     DA3B 7D 005F                        tst     VehicleSpeedx8_Scaled
 9493:     DA3E 26 32                          bne     loc_DA72
 9494:     DA40 12 22 80 2E                    brset   <BitFlags66_t3 $80 loc_DA72
 9495:     DA44 DC 46                          ldd     <EngineRpm_HB
 9496:     DA46 93 6D                          subd    <TargetIdleSpeedHB
 9497:     DA48 24 02                          bcc     loc_DA4C
 9498:     DA4A 43                             coma
 9499:     DA4B 53                             comb
 9500:                                 
 9501:     DA4C                        loc_DA4C:
 9502:     DA4C 1AB3 8A81                      cpd     word_8A81
 9503:     DA50 24 20                          bcc     loc_DA72
 9504:     DA52 96 0D                          ldaa    <BaroPressure
 9505:     DA54 90 50                          suba    <MapValue
 9506:     DA56 25 0F                          bcs     loc_DA67
 9507:     DA58 D6 0D                          ldab    <BaroPressure
 9508:     DA5A CE 8A84                        ldx     #unk_8A84
 9509:     DA5D F1 8A83                        cmpb    byte_8A83
 9510:     DA60 24 01                          bcc     loc_DA63
 9511:     DA62 08                             inx
 9512:                                 
 9513:     DA63                        loc_DA63:
 9514:     DA63 A1 00                          cmpa    $00,x
 9515:     DA65 24 0B                          bcc     loc_DA72
 9516:                                 
 9517:     DA67                        loc_DA67:
 9518:     DA67 CC 2794                        ldd     #$2794
 9519:     DA6A BD D2C9                        jsr     ThrowNonCriticalError
 9520:     DA6D 24 03                          bcc     loc_DA72
 9521:     DA6F 14 D5 80                       bset    <b5C_IPL1_t3 $80
 9522:                                 
 9523:     DA72                        loc_DA72:
 9524:     DA72 13 2E 80 16                    brclr   <BitFlags2e $80 loc_DA8C
 9525:     DA76 0F                             sei
 9526:                                 
 9527:     DA77                        loc_DA77:
 9528:     DA77 B6 1030                        ldaa    ADCTL_A2DControlReg
 9529:     DA7A 2A FB                          bpl     loc_DA77
 9530:     DA7C B6 1031                        ldaa    ADR1_A2DResults1
 9531:     DA7F 0E                             cli
 9532:     DA80 B1 8A67                        cmpa    byte_8A67
 9533:     DA83 25 41                          bcs     locret_DAC6
 9534:     DA85 B1 8A66                        cmpa    byte_8A66
 9535:     DA88 25 41                          bcs     loc_DACB
 9536:                                 
 9537:     DA8A                        loc_DA8A:
 9538:     DA8A 20 3A                          bra     locret_DAC6
 9539:                                 
 9540:     DA8C                        loc_DA8C:
 9541:     DA8C DE 46                          ldx     <EngineRpm_HB
 9542:     DA8E 8C 0C80                        cpx     #$0C80
 9543:     DA91 25 33                          bcs     locret_DAC6
 9544:     DA93 8C 2EE0                        cpx     #$2EE0
 9545:     DA96 24 2E                          bcc     locret_DAC6
 9546:     DA98 96 5C                          ldaa    <TpsVolts_Minus_LowestSessionTpsVolts
 9547:     DA9A 81 32                          cmpa    #$32
 9548:     DA9C 24 28                          bcc     locret_DAC6
 9549:     DA9E 0F                             sei
 9550:                                 
 9551:     DA9F                        loc_DA9F:
 9552:     DA9F B6 1030                        ldaa    ADCTL_A2DControlReg
 9553:     DAA2 2A FB                          bpl     loc_DA9F
 9554:     DAA4 B6 1031                        ldaa    ADR1_A2DResults1
 9555:     DAA7 0E                             cli
 9556:     DAA8 B1 8A66                        cmpa    byte_8A66
 9557:     DAAB 24 0A                          bcc     loc_DAB7
 9558:     DAAD B1 8A65                        cmpa    byte_8A65
 9559:     DAB0 24 15                          bcc     loc_DAC7
 9560:     DAB2 CC 2494                        ldd     #$2494
 9561:     DAB5 20 03                          bra     loc_DABA
 9562:                                 
 9563:     DAB7                        loc_DAB7:
 9564:     DAB7 CC 2594                        ldd     #$2594
 9565:                                 
 9566:     DABA                        loc_DABA:
 9567:     DABA 12 D5 08 08                    brset   <b5C_IPL1_t3 $08 locret_DAC6
 9568:     DABE BD D2C9                        jsr     ThrowNonCriticalError
 9569:     DAC1 24 03                          bcc     locret_DAC6
 9570:     DAC3 14 D5 08                       bset    <b5C_IPL1_t3 $08
 9571:                                 
 9572:     DAC6                        locret_DAC6:
 9573:     DAC6 39                             rts
 9574:                                 
 9575:     DAC7                        loc_DAC7:
 9576:     DAC7 13 D5 08 FB                    brclr   <b5C_IPL1_t3 $08 locret_DAC6
 9577:                                 
 9578:     DACB                        loc_DACB:
 9579:     DACB 86 04                          ldaa    #$04
 9580:     DACD BD D795                        jsr     sub_D795
 9581:     DAD0 12 D5 08 F2                    brset   <b5C_IPL1_t3 $08 locret_DAC6
 9582:     DAD4 15 2E 80                       bclr    <BitFlags2e $80
 9583:     DAD7 20 ED                          bra     locret_DAC6
 9584:                                 
 9585:     DAD9                        sub_DAD9:
 9586:     DAD9 96 45                          ldaa    <Counter_MainLoop
 9587:     DADB 85 1F                          bita    #$1F
 9588:     DADD 26 21                          bne     locret_DB00
 9589:     DADF 13 20 40 1D                    brclr   <IPL1 $40 locret_DB00
 9590:     DAE3 96 5B                          ldaa    <BatteryVolts
 9591:     DAE5 90 64                          suba    <TargetBatteryVolts
 9592:     DAE7 25 14                          bcs     loc_DAFD
 9593:     DAE9 81 10                          cmpa    #$10
 9594:     DAEB 25 10                          bcs     loc_DAFD
 9595:     DAED 12 D5 20 0F                    brset   <b5C_IPL1_t3 $20 locret_DB00
 9596:     DAF1 CC 06A0                        ldd     #$06A0
 9597:     DAF4 BD D2C9                        jsr     ThrowNonCriticalError
 9598:     DAF7 24 07                          bcc     locret_DB00
 9599:     DAF9 14 D5 20                       bset    <b5C_IPL1_t3 $20
 9600:     DAFC 39                             rts
 9601:                                 
 9602:     DAFD                        loc_DAFD:
 9603:     DAFD 15 D5 20                       bclr    <b5C_IPL1_t3 $20
 9604:                                 
 9605:     DB00                        locret_DB00:
 9606:     DB00 39                             rts
 9607:                                 
 9608:     DB01                        sub_DB01:
 9609:     DB01 12 D5 02 31                    brset   <b5C_IPL1_t3 $02 locret_DB36
 9610:     DB05 96 54                          ldaa    <CoolantTemp
 9611:     DB07 B1 8A3F                        cmpa    byte_8A3F
 9612:     DB0A 25 05                          bcs     loc_DB11
 9613:     DB0C 14 28 02                       bset    <BitFlags6d_t3 $02
 9614:     DB0F 20 25                          bra     locret_DB36
 9615:                                 
 9616:     DB11                        loc_DB11:
 9617:     DB11 12 28 02 21                    brset   <BitFlags6d_t3 $02 locret_DB36
 9618:     DB15 13 20 40 1D                    brclr   <IPL1 $40 locret_DB36
 9619:     DB19 96 44                          ldaa    <KeyOnOrEngineRunningTime
 9620:     DB1B 81 FF                          cmpa    #$FF
 9621:     DB1D 26 17                          bne     locret_DB36
 9622:     DB1F 96 5F                          ldaa    <VehicleSpeedx8_Scaled
 9623:     DB21 B1 8A40                        cmpa    byte_8A40
 9624:     DB24 25 10                          bcs     locret_DB36
 9625:     DB26 F6 64B4                        ldab    Timer_ThermostatDiagnostics
 9626:     DB29 F1 8A41                        cmpb    byte_8A41
 9627:     DB2C 27 09                          beq     loc_DB37
 9628:     DB2E 96 45                          ldaa    <Counter_MainLoop
 9629:     DB30 26 04                          bne     locret_DB36
 9630:     DB32 5C                             incb
 9631:     DB33 F7 64B4                        stab    Timer_ThermostatDiagnostics
 9632:                                 
 9633:     DB36                        locret_DB36:
 9634:     DB36 39                             rts
 9635:                                 
 9636:     DB37                        loc_DB37:
 9637:     DB37 CC 2101                        ldd     #$2101
 9638:     DB3A BD D2C9                        jsr     ThrowNonCriticalError
 9639:     DB3D 24 03                          bcc     locret_DB42
 9640:     DB3F 14 28 02                       bset    <BitFlags6d_t3 $02
 9641:                                 
 9642:     DB42                        locret_DB42:
 9643:     DB42 39                             rts
 9644:                                 
 9645:     DB43                        sub_DB43:
 9646:     DB43 12 2D 08 2F                    brset   <BitFlags2d $08 loc_DB76
 9647:     DB47 13 2D 04 2B                    brclr   <BitFlags2d $04 loc_DB76
 9648:     DB4B 13 20 40 27                    brclr   <IPL1 $40 loc_DB76
 9649:     DB4F 0F                             sei
 9650:     DB50 96 26                          ldaa    <BitFlags6a_t3
 9651:     DB52 85 60                          bita    #$60
 9652:     DB54 26 1E                          bne     loc_DB74
 9653:     DB56 14 2D 08                       bset    <BitFlags2d $08
 9654:     DB59 CE B613                        ldx     #MCU_eeprom + $13
 9655:     DB5C A6 00                          ldaa    $00,x
 9656:     DB5E 4C                             inca
 9657:     DB5F 27 13                          beq     loc_DB74
 9658:     DB61 B1 884E                        cmpa    byte_884E
 9659:     DB64 25 03                          bcs     loc_DB69
 9660:     DB66 14 2D 02                       bset    <BitFlags2d $02
 9661:                                 
 9662:     DB69                        loc_DB69:
 9663:     DB69 B7 64B1                        staa    DRBOffsetStored_LB
 9664:     DB6C 86 13                          ldaa    #$13
 9665:     DB6E B7 64B0                        staa    DRBOffsetStored_HB
 9666:     DB71 14 26 40                       bset    <BitFlags6a_t3 $40
 9667:                                 
 9668:     DB74                        loc_DB74:
 9669:     DB74 0E                             cli
 9670:     DB75 01                             nop
 9671:                                 
 9672:     DB76                        loc_DB76:
 9673:     DB76 0F                             sei
 9674:     DB77 12 26 40 7E                    brset   <BitFlags6a_t3 $40 loc_DBF9
 9675:     DB7B CE B616                        ldx     #MCU_eeprom + $16
 9676:     DB7E 13 2D 10 38                    brclr   <BitFlags2d $10 loc_DBBA
 9677:     DB82 12 2D 01 34                    brset   <BitFlags2d $01 loc_DBBA
 9678:     DB86 86 16                          ldaa    #$16
 9679:     DB88 C6 4A                          ldab    #$4A
 9680:     DB8A 13 26 20 23                    brclr   <BitFlags6a_t3 $20 loc_DBB1
 9681:     DB8E B1 64B0                        cmpa    DRBOffsetStored_HB
 9682:     DB91 27 17                          beq     loc_DBAA
 9683:     DB93 4C                             inca
 9684:     DB94 B1 64B0                        cmpa    DRBOffsetStored_HB
 9685:     DB97 26 21                          bne     loc_DBBA
 9686:     DB99 14 26 40                       bset    <BitFlags6a_t3 $40
 9687:     DB9C 15 26 20                       bclr    <BitFlags6a_t3 $20
 9688:     DB9F 14 2D 01                       bset    <BitFlags2d $01
 9689:     DBA2 86 13                          ldaa    #$13
 9690:     DBA4 5F                             clrb
 9691:     DBA5 F7 64AF                        stab    Counter_ACControl1
 9692:     DBA8 20 0A                          bra     loc_DBB4
 9693:                                 
 9694:     DBAA                        loc_DBAA:
 9695:     DBAA 14 26 40                       bset    <BitFlags6a_t3 $40
 9696:     DBAD 4C                             inca
 9697:     DBAE 53                             comb
 9698:     DBAF 20 03                          bra     loc_DBB4
 9699:                                 
 9700:     DBB1                        loc_DBB1:
 9701:     DBB1 14 26 60                       bset    <BitFlags6a_t3 $60
 9702:                                 
 9703:     DBB4                        loc_DBB4:
 9704:     DBB4 B7 64B0                        staa    DRBOffsetStored_HB
 9705:     DBB7 F7 64B1                        stab    DRBOffsetStored_LB
 9706:                                 
 9707:     DBBA                        loc_DBBA:
 9708:     DBBA A6 01                          ldaa    $01,x
 9709:     DBBC 43                             coma
 9710:     DBBD A1 00                          cmpa    $00,x
 9711:     DBBF 26 09                          bne     loc_DBCA
 9712:     DBC1 81 4A                          cmpa    #$4A
 9713:     DBC3 26 05                          bne     loc_DBCA
 9714:     DBC5 14 2D 04                       bset    <BitFlags2d $04
 9715:     DBC8 20 03                          bra     loc_DBCD
 9716:                                 
 9717:     DBCA                        loc_DBCA:
 9718:     DBCA 15 2D 04                       bclr    <BitFlags2d $04
 9719:                                 
 9720:     DBCD                        loc_DBCD:
 9721:     DBCD 0E                             cli
 9722:     DBCE 13 2D 02 28                    brclr   <BitFlags2d $02 locret_DBFA
 9723:     DBD2 0F                             sei
 9724:     DBD3 12 26 40 22                    brset   <BitFlags6a_t3 $40 loc_DBF9
 9725:     DBD7 86 16                          ldaa    #$16
 9726:     DBD9 C6 EE                          ldab    #$EE
 9727:     DBDB 13 26 20 11                    brclr   <BitFlags6a_t3 $20 loc_DBF0
 9728:     DBDF B1 64B0                        cmpa    DRBOffsetStored_HB
 9729:     DBE2 26 15                          bne     loc_DBF9
 9730:     DBE4 4C                             inca
 9731:     DBE5 14 26 40                       bset    <BitFlags6a_t3 $40
 9732:     DBE8 15 26 20                       bclr    <BitFlags6a_t3 $20
 9733:     DBEB 15 2D 02                       bclr    <BitFlags2d $02
 9734:     DBEE 20 03                          bra     loc_DBF3
 9735:                                 
 9736:     DBF0                        loc_DBF0:
 9737:     DBF0 14 26 60                       bset    <BitFlags6a_t3 $60
 9738:                                 
 9739:     DBF3                        loc_DBF3:
 9740:     DBF3 B7 64B0                        staa    DRBOffsetStored_HB
 9741:     DBF6 F7 64B1                        stab    DRBOffsetStored_LB
 9742:                                 
 9743:     DBF9                        loc_DBF9:
 9744:     DBF9 0E                             cli
 9745:                                 
 9746:     DBFA                        locret_DBFA:
 9747:     DBFA 39                             rts
 9748:                                 
 9749:     DBFB                        sub_DBFB:
 9750:     DBFB 12 21 04 2F                    brset   <BitFlags21 $04 loc_DC2E
 9751:     DBFF 13 21 02 2B                    brclr   <BitFlags21 $02 loc_DC2E
 9752:     DC03 13 20 40 27                    brclr   <IPL1 $40 loc_DC2E
 9753:     DC07 0F                             sei
 9754:     DC08 96 26                          ldaa    <BitFlags6a_t3
 9755:     DC0A 85 60                          bita    #$60
 9756:     DC0C 26 1E                          bne     loc_DC2C
 9757:     DC0E 14 21 04                       bset    <BitFlags21 $04
 9758:     DC11 CE B6E0                        ldx     #MCU_eeprom + $E0
 9759:     DC14 A6 00                          ldaa    $00,x
 9760:     DC16 4C                             inca
 9761:     DC17 27 13                          beq     loc_DC2C
 9762:     DC19 B1 8AB6                        cmpa    byte_8AB6
 9763:     DC1C 25 03                          bcs     loc_DC21
 9764:     DC1E 14 20 08                       bset    <IPL1 $08
 9765:                                 
 9766:     DC21                        loc_DC21:
 9767:     DC21 B7 64B1                        staa    DRBOffsetStored_LB
 9768:     DC24 86 E0                          ldaa    #$E0
 9769:     DC26 B7 64B0                        staa    DRBOffsetStored_HB
 9770:     DC29 14 26 40                       bset    <BitFlags6a_t3 $40
 9771:                                 
 9772:     DC2C                        loc_DC2C:
 9773:     DC2C 0E                             cli
 9774:     DC2D 01                             nop
 9775:                                 
 9776:     DC2E                        loc_DC2E:
 9777:     DC2E 0F                             sei
 9778:     DC2F 12 26 40 7B                    brset   <BitFlags6a_t3 $40 loc_DCAE
 9779:     DC33 CE B6E1                        ldx     #MCU_eeprom + $E1
 9780:     DC36 13 2D 10 35                    brclr   <BitFlags2d $10 loc_DC6F
 9781:     DC3A 12 21 01 31                    brset   <BitFlags21 $01 loc_DC6F
 9782:     DC3E 86 E1                          ldaa    #$E1
 9783:     DC40 C6 4A                          ldab    #$4A
 9784:     DC42 13 26 20 20                    brclr   <BitFlags6a_t3 $20 loc_DC66
 9785:     DC46 B1 64B0                        cmpa    DRBOffsetStored_HB
 9786:     DC49 27 14                          beq     loc_DC5F
 9787:     DC4B 4C                             inca
 9788:     DC4C B1 64B0                        cmpa    DRBOffsetStored_HB
 9789:     DC4F 26 1E                          bne     loc_DC6F
 9790:     DC51 14 26 40                       bset    <BitFlags6a_t3 $40
 9791:     DC54 15 26 20                       bclr    <BitFlags6a_t3 $20
 9792:     DC57 14 21 01                       bset    <BitFlags21 $01
 9793:     DC5A 86 E0                          ldaa    #$E0
 9794:     DC5C 5F                             clrb
 9795:     DC5D 20 0A                          bra     loc_DC69
 9796:                                 
 9797:     DC5F                        loc_DC5F:
 9798:     DC5F 14 26 40                       bset    <BitFlags6a_t3 $40
 9799:     DC62 4C                             inca
 9800:     DC63 53                             comb
 9801:     DC64 20 03                          bra     loc_DC69
 9802:                                 
 9803:     DC66                        loc_DC66:
 9804:     DC66 14 26 60                       bset    <BitFlags6a_t3 $60
 9805:                                 
 9806:     DC69                        loc_DC69:
 9807:     DC69 B7 64B0                        staa    DRBOffsetStored_HB
 9808:     DC6C F7 64B1                        stab    DRBOffsetStored_LB
 9809:                                 
 9810:     DC6F                        loc_DC6F:
 9811:     DC6F A6 01                          ldaa    $01,x
 9812:     DC71 43                             coma
 9813:     DC72 A1 00                          cmpa    $00,x
 9814:     DC74 26 09                          bne     loc_DC7F
 9815:     DC76 81 4A                          cmpa    #$4A
 9816:     DC78 26 05                          bne     loc_DC7F
 9817:     DC7A 14 21 02                       bset    <BitFlags21 $02
 9818:     DC7D 20 03                          bra     loc_DC82
 9819:                                 
 9820:     DC7F                        loc_DC7F:
 9821:     DC7F 15 21 02                       bclr    <BitFlags21 $02
 9822:                                 
 9823:     DC82                        loc_DC82:
 9824:     DC82 0E                             cli
 9825:     DC83 13 20 08 28                    brclr   <IPL1 $08 locret_DCAF
 9826:     DC87 0F                             sei
 9827:     DC88 12 26 40 22                    brset   <BitFlags6a_t3 $40 loc_DCAE
 9828:     DC8C 86 E1                          ldaa    #$E1
 9829:     DC8E C6 EE                          ldab    #$EE
 9830:     DC90 13 26 20 11                    brclr   <BitFlags6a_t3 $20 loc_DCA5
 9831:     DC94 B1 64B0                        cmpa    DRBOffsetStored_HB
 9832:     DC97 26 15                          bne     loc_DCAE
 9833:     DC99 4C                             inca
 9834:     DC9A 14 26 40                       bset    <BitFlags6a_t3 $40
 9835:     DC9D 15 26 20                       bclr    <BitFlags6a_t3 $20
 9836:     DCA0 15 20 08                       bclr    <IPL1 $08
 9837:     DCA3 20 03                          bra     loc_DCA8
 9838:                                 
 9839:     DCA5                        loc_DCA5:
 9840:     DCA5 14 26 60                       bset    <BitFlags6a_t3 $60
 9841:                                 
 9842:     DCA8                        loc_DCA8:
 9843:     DCA8 B7 64B0                        staa    DRBOffsetStored_HB
 9844:     DCAB F7 64B1                        stab    DRBOffsetStored_LB
 9845:                                 
 9846:     DCAE                        loc_DCAE:
 9847:     DCAE 0E                             cli
 9848:                                 
 9849:     DCAF                        locret_DCAF:
 9850:     DCAF 39                             rts
 9851:                                 
 9852:     DCB0                        sub_DCB0:
 9853:     DCB0 13 29 08 07                    brclr   <BitFlags29 $08 loc_DCBB
 9854:     DCB4 13 2F 40 03                    brclr   <BitFlags2f $40 loc_DCBB
 9855:     DCB8 14 30 10                       bset    <Ram_30 $10
 9856:                                 
 9857:     DCBB                        loc_DCBB:
 9858:     DCBB 0F                             sei
 9859:     DCBC 12 26 40 78                    brset   <BitFlags6a_t3 $40 loc_DD38
 9860:     DCC0 CE B6E3                        ldx     #MCU_eeprom + $E3
 9861:     DCC3 13 2D 10 32                    brclr   <BitFlags2d $10 loc_DCF9
 9862:     DCC7 12 24 04 2E                    brset   <BitFlags24 $04 loc_DCF9
 9863:     DCCB 86 E3                          ldaa    #$E3
 9864:     DCCD C6 4A                          ldab    #$4A
 9865:     DCCF 13 26 20 1D                    brclr   <BitFlags6a_t3 $20 loc_DCF0
 9866:     DCD3 B1 64B0                        cmpa    DRBOffsetStored_HB
 9867:     DCD6 27 11                          beq     loc_DCE9
 9868:     DCD8 4C                             inca
 9869:     DCD9 B1 64B0                        cmpa    DRBOffsetStored_HB
 9870:     DCDC 26 1B                          bne     loc_DCF9
 9871:     DCDE 14 26 40                       bset    <BitFlags6a_t3 $40
 9872:     DCE1 15 26 20                       bclr    <BitFlags6a_t3 $20
 9873:     DCE4 14 24 04                       bset    <BitFlags24 $04
 9874:     DCE7 20 10                          bra     loc_DCF9
 9875:                                 
 9876:     DCE9                        loc_DCE9:
 9877:     DCE9 14 26 40                       bset    <BitFlags6a_t3 $40
 9878:     DCEC 4C                             inca
 9879:     DCED 53                             comb
 9880:     DCEE 20 03                          bra     loc_DCF3
 9881:                                 
 9882:     DCF0                        loc_DCF0:
 9883:     DCF0 14 26 60                       bset    <BitFlags6a_t3 $60
 9884:                                 
 9885:     DCF3                        loc_DCF3:
 9886:     DCF3 B7 64B0                        staa    DRBOffsetStored_HB
 9887:     DCF6 F7 64B1                        stab    DRBOffsetStored_LB
 9888:                                 
 9889:     DCF9                        loc_DCF9:
 9890:     DCF9 A6 01                          ldaa    $01,x
 9891:     DCFB 43                             coma
 9892:     DCFC A1 00                          cmpa    $00,x
 9893:     DCFE 26 09                          bne     loc_DD09
 9894:     DD00 81 4A                          cmpa    #$4A
 9895:     DD02 26 05                          bne     loc_DD09
 9896:     DD04 14 29 08                       bset    <BitFlags29 $08
 9897:     DD07 20 03                          bra     loc_DD0C
 9898:                                 
 9899:     DD09                        loc_DD09:
 9900:     DD09 15 29 08                       bclr    <BitFlags29 $08
 9901:                                 
 9902:     DD0C                        loc_DD0C:
 9903:     DD0C 0E                             cli
 9904:     DD0D 13 30 10 28                    brclr   <Ram_30 $10 locret_DD39
 9905:     DD11 0F                             sei
 9906:     DD12 12 26 40 22                    brset   <BitFlags6a_t3 $40 loc_DD38
 9907:     DD16 86 E3                          ldaa    #$E3
 9908:     DD18 C6 EE                          ldab    #$EE
 9909:     DD1A 13 26 20 11                    brclr   <BitFlags6a_t3 $20 loc_DD2F
 9910:     DD1E B1 64B0                        cmpa    DRBOffsetStored_HB
 9911:     DD21 26 15                          bne     loc_DD38
 9912:     DD23 4C                             inca
 9913:     DD24 14 26 40                       bset    <BitFlags6a_t3 $40
 9914:     DD27 15 26 20                       bclr    <BitFlags6a_t3 $20
 9915:     DD2A 15 30 10                       bclr    <Ram_30 $10
 9916:     DD2D 20 03                          bra     loc_DD32
 9917:                                 
 9918:     DD2F                        loc_DD2F:
 9919:     DD2F 14 26 60                       bset    <BitFlags6a_t3 $60
 9920:                                 
 9921:     DD32                        loc_DD32:
 9922:     DD32 B7 64B0                        staa    DRBOffsetStored_HB
 9923:     DD35 F7 64B1                        stab    DRBOffsetStored_LB
 9924:                                 
 9925:     DD38                        loc_DD38:
 9926:     DD38 0E                             cli
 9927:                                 
 9928:     DD39                        locret_DD39:
 9929:     DD39 39                             rts
 9930:                                 
 9931:     DD3A                        sub_DD3A:
 9932:     DD3A 12 21 20 70                    brset   <BitFlags21 $20 loc_DDAE
 9933:     DD3E 96 D7                          ldaa    <b5d_IPL2
 9934:     DD40 85 18                          bita    #$18
 9935:     DD42 26 6A                          bne     loc_DDAE
 9936:     DD44 96 64                          ldaa    <TargetBatteryVolts
 9937:     DD46 0F                             sei
 9938:                                 
 9939:     DD47                        loc_DD47:
 9940:     DD47 F6 1030                        ldab    ADCTL_A2DControlReg
 9941:     DD4A 2A FB                          bpl     loc_DD47
 9942:     DD4C B0 1032                        suba    ADR2_A2DResults2
 9943:     DD4F 0E                             cli
 9944:     DD50 25 5C                          bcs     loc_DDAE
 9945:     DD52 B1 8A4B                        cmpa    byte_8A4B
 9946:     DD55 25 57                          bcs     loc_DDAE
 9947:     DD57 DC 46                          ldd     <EngineRpm_HB
 9948:     DD59 1AB3 8A4C                      cpd     word_8A4C
 9949:     DD5D 25 4F                          bcs     loc_DDAE
 9950:     DD5F 86 0F                          ldaa    #$0F
 9951:     DD61 13 2E 01 01                    brclr   <BitFlags2e $01 loc_DD66
 9952:     DD65 4F                             clra
 9953:                                 
 9954:     DD66                        loc_DD66:
 9955:     DD66 94 45                          anda    <Counter_MainLoop
 9956:     DD68 26 16                          bne     locret_DD80
 9957:     DD6A 96 F0                          ldaa    <BatVoltsDiagCounter
 9958:     DD6C 4C                             inca
 9959:     DD6D 27 02                          beq loc_DD71
 9960:     DD6F 97 F0                          staa    <BatVoltsDiagCounter
 9961:                                 
 9962:     DD71                        loc_DD71:
 9963:     DD71 12 2E 01 0C                    brset   <BitFlags2e $01 loc_DD81
 9964:     DD75 B1 8A4E                        cmpa    byte_8A4E
 9965:     DD78 25 06                          bcs     locret_DD80
 9966:     DD7A 4F                             clra
 9967:     DD7B 97 F0                          staa    <BatVoltsDiagCounter
 9968:     DD7D 14 2E 01                       bset    <BitFlags2e $01
 9969:                                 
 9970:     DD80                        locret_DD80:
 9971:     DD80 39                             rts
 9972:                                 
 9973:     DD81                        loc_DD81:
 9974:     DD81 12 21 10 0C                    brset   <BitFlags21 $10 loc_DD91
 9975:     DD85 B1 8A4F                        cmpa    byte_8A4F
 9976:     DD88 25 F6                          bcs     locret_DD80
 9977:     DD8A 4F                             clra
 9978:     DD8B 97 F0                          staa    <BatVoltsDiagCounter
 9979:     DD8D 14 21 10                       bset    <BitFlags21 $10
 9980:     DD90 39                             rts
 9981:                                 
 9982:     DD91                        loc_DD91:
 9983:     DD91 B1 8A51                        cmpa    byte_8A51
 9984:     DD94 25 EA                          bcs     locret_DD80
 9985:     DD96 4F                             clra
 9986:     DD97 97 F0                          staa    <BatVoltsDiagCounter
 9987:     DD99 15 21 10                       bclr    <BitFlags21 $10
 9988:     DD9C CC 058A                        ldd     #$058A
 9989:     DD9F BD D2C9                        jsr     ThrowNonCriticalError
 9990:     DDA2 24 DC                          bcc     locret_DD80
 9991:     DDA4 14 D7 08                       bset    <b5d_IPL2 $08
 9992:     DDA7 15 2E 01                       bclr    <BitFlags2e $01
 9993:     DDAA 15 21 30                       bclr    <BitFlags21 $30
 9994:     DDAD 39                             rts
 9995:                                 
 9996:     DDAE                        loc_DDAE:
 9997:     DDAE 4F                             clra
 9998:     DDAF 97 F0                          staa    <BatVoltsDiagCounter
 9999:     DDB1 15 2E 01                       bclr    <BitFlags2e $01
10000:     DDB4 15 21 30                       bclr    <BitFlags21 $30
10001:     DDB7 39                             rts
10002:                                 
10003:     DDB8                        sub_DDB8:
10004:     DDB8 18CE 6485                      ldy     #LDXi_6485
10005:     DDBC 12 DB 80 69                    brset   <DRBSerialMode $80 loc_DE29
10006:     DDC0 13 DB 40 65                    brclr   <DRBSerialMode $40 loc_DE29
10007:     DDC4 B6 102B                        ldaa    BAUD_SerialBaudRate
10008:     DDC7 81 25                          cmpa    #$25
10009:     DDC9 26 5D                          bne     locret_DE28
10010:     DDCB F6 102F                        ldab    SCDR_SerialData
10011:     DDCE B6 102E                        ldaa    SCSR_SerialStatus
10012:     DDD1 85 20                          bita    #$20
10013:     DDD3 27 58                          beq     loc_DE2D
10014:     DDD5 85 0E                          bita    #$0E
10015:     DDD7 26 4B                          bne     loc_DE24
10016:     DDD9 181E 00 E0 6B                  brset   $00,y $E0 loc_DE49
10017:     DDDE 86 F8                          ldaa    #$F8
10018:     DDE0 181E 00 80 16                  brset   $00,y $80 loc_DDFB
10019:     DDE5 4A                             deca
10020:     DDE6 181E 00 60 10                  brset   $00,y $60 loc_DDFB
10021:     DDEB 86 F5                          ldaa    #$F5
10022:     DDED 181E 00 40 09                  brset   $00,y $40 loc_DDFB
10023:     DDF2 86 F3                          ldaa    #$F3
10024:     DDF4 181E 00 20 02                  brset   $00,y $20 loc_DDFB
10025:     DDF9 86 14                          ldaa    #$14
10026:                                 
10027:     DDFB                        loc_DDFB:
10028:     DDFB 11                             cba
10029:     DDFC 26 2B                          bne     loc_DE29
10030:     DDFE B6 6485                        ldaa    LDXi_6485
10031:     DE01 8B 20                          adda    #$20
10032:     DE03 B7 6485                        staa    LDXi_6485
10033:     DE06 84 E0                          anda    #$E0
10034:     DE08 81 A0                          cmpa    #$A0
10035:     DE0A 26 18                          bne     loc_DE24
10036:     DE0C 86 E0                          ldaa    #$E0
10037:     DE0E B7 6485                        staa    LDXi_6485
10038:     DE11 86 52                          ldaa    #$52
10039:     DE13 97 D8                          staa    <DRBPointer1
10040:     DE15 FC 102E                        ldd     SCSR_SerialStatus
10041:     DE18 86 F8                          ldaa    #$F8
10042:     DE1A F6 102E                        ldab    SCSR_SerialStatus
10043:     DE1D B7 102F                        staa    SCDR_SerialData
10044:     DE20 20 02                          bra     loc_DE24
10045:                                 
10046:     DE22                        loc_DE22:
10047:     DE22 97 D8                          staa    <DRBPointer1
10048:                                 
10049:     DE24                        loc_DE24:
10050:     DE24 FC 102E                        ldd     SCSR_SerialStatus
10051:     DE27 38                             pulx
10052:                                 
10053:     DE28                        locret_DE28:
10054:     DE28 39                             rts
10055:                                 
10056:     DE29                        loc_DE29:
10057:     DE29 7F 6485                        clr     LDXi_6485
10058:     DE2C 39                             rts
10059:                                 
10060:     DE2D                        loc_DE2D:
10061:     DE2D 181E 00 E0 07                  brset   $00,y $E0 loc_DE39
10062:     DE32 181F 00 E0 F2                  brclr   $00,y $E0 loc_DE29
10063:     DE37 20 EB                          bra     loc_DE24
10064:                                 
10065:     DE39                        loc_DE39:
10066:     DE39 96 D8                          ldaa    <DRBPointer1
10067:     DE3B 4A                             deca
10068:     DE3C 81 20                          cmpa    #$20
10069:     DE3E 26 E2                          bne     loc_DE22
10070:     DE40 4F                             clra
10071:     DE41 97 D8                          staa    <DRBPointer1
10072:     DE43 97 D9                          staa    <DRBPointer2
10073:     DE45 97 DB                          staa    <DRBSerialMode
10074:     DE47 20 DB                          bra     loc_DE24
10075:                                 
10076:     DE49                        loc_DE49:
10077:     DE49 86 28                          ldaa    #$28
10078:     DE4B 97 D8                          staa    <DRBPointer1
10079:     DE4D 181E 00 08 45                  brset   $00,y $08 loc_DE97
10080:     DE52 181E 00 10 08                  brset   $00,y $10 loc_DE5F
10081:     DE57 181C 00 10                     bset    $00,y $10
10082:     DE5B D7 D9                          stab    <DRBPointer2
10083:     DE5D 20 C5                          bra     loc_DE24
10084:                                 
10085:     DE5F                        loc_DE5F:
10086:     DE5F D1 D9                          cmpb    <DRBPointer2
10087:     DE61 26 25                          bne     loc_DE88
10088:     DE63 181D 00 10                     bclr    $00,y $10
10089:     DE67 17                             tba
10090:     DE68 F6 6485                        ldab    LDXi_6485
10091:     DE6B C4 07                          andb    #$07
10092:     DE6D C1 04                          cmpb    #$04
10093:     DE6F 27 0C                          beq     loc_DE7D
10094:     DE71 CE 6481                        ldx     #UNe_6481
10095:     DE74 3A                             abx
10096:     DE75 A7 00                          staa    $00,x
10097:     DE77 7C 6485                        inc     LDXi_6485
10098:     DE7A 7E DE24                        jmp     loc_DE24
10099:                                 
10100:     DE7D                        loc_DE7D:
10101:     DE7D 81 12                          cmpa    #$12
10102:     DE7F 26 04                          bne     loc_DE85
10103:     DE81 181D 00 07                     bclr    $00,y $07
10104:                                 
10105:     DE85                        loc_DE85:
10106:     DE85 7E DE24                        jmp     loc_DE24
10107:                                 
10108:     DE88                        loc_DE88:
10109:     DE88 181C 00 08                     bset    $00,y $08
10110:     DE8C C1 12                          cmpb    #$12
10111:     DE8E 26 0B                          bne     loc_DE9B
10112:                                 
10113:     DE90                        loc_DE90:
10114:     DE90 181C 00 10                     bset    $00,y $10
10115:     DE94 7E DE24                        jmp     loc_DE24
10116:                                 
10117:     DE97                        loc_DE97:
10118:     DE97 C1 12                          cmpb    #$12
10119:     DE99 27 07                          beq     loc_DEA2
10120:                                 
10121:     DE9B                        loc_DE9B:
10122:     DE9B 181D 00 10                     bclr    $00,y $10
10123:     DE9F 7E DE24                        jmp loc_DE24
10124:                                 
10125:     DEA2                        loc_DEA2:
10126:     DEA2 181F 00 10 E9                  brclr   $00,y $10 loc_DE90
10127:     DEA7 181D 00 1F                     bclr    $00,y $1F
10128:     DEAB 20 D8                          bra     loc_DE85
10129:                                 
10130:     DEAD                        sub_DEAD:
10131:     DEAD 12 DB 40 04                    brset   <DRBSerialMode $40 loc_DEB5
10132:     DEB1 39                             rts
10133:                                 
10134:     DEB2                        loc_DEB2:
10135:     DEB2 7E E065                        jmp     loc_E065
10136:                                 
10137:     DEB5                        loc_DEB5:
10138:     DEB5 12 DB 70 F9                    brset   <DRBSerialMode $70 loc_DEB2
10139:     DEB9 F6 102F                        ldab    SCDR_SerialData
10140:     DEBC B6 102E                        ldaa    SCSR_SerialStatus
10141:     DEBF 85 20                          bita    #$20
10142:     DEC1 26 01                          bne     loc_DEC4
10143:     DEC3 39                             rts
10144:                                 
10145:     DEC4                        loc_DEC4:
10146:     DEC4 CE 6486                        ldx     #FDRVar0
10147:     DEC7 A6 00                          ldaa    $00,x
10148:     DEC9 85 03                          bita    #$03
10149:     DECB 27 03                          beq     loc_DED0
10150:     DECD 7E DF32                        jmp     loc_DF32
10151:                                 
10152:     DED0                        loc_DED0:
10153:     DED0 C1 F8                          cmpb    #$F8
10154:     DED2 24 07                          bcc     loc_DEDB
10155:                                 
10156:     DED4                        loc_DED4:
10157:     DED4 BD E093                        jsr     sub_E093
10158:     DED7 BD E06A                        jsr     sub_E06A
10159:     DEDA 39                             rts
10160:                                 
10161:     DEDB                        loc_DEDB:
10162:     DEDB 4D                             tsta
10163:     DEDC 26 09                          bne     loc_DEE7
10164:     DEDE C1 F8                          cmpb    #$F8
10165:     DEE0 26 F2                          bne     loc_DED4
10166:     DEE2 86 80                          ldaa    #$80
10167:     DEE4 7E E063                        jmp     loc_E063
10168:                                 
10169:     DEE7                        loc_DEE7:
10170:     DEE7 81 80                          cmpa    #$80
10171:     DEE9 26 09                          bne     loc_DEF4
10172:     DEEB C1 F9                          cmpb    #$F9
10173:     DEED 26 E5                          bne     loc_DED4
10174:     DEEF 86 C0                          ldaa    #$C0
10175:     DEF1 7E E063                        jmp     loc_E063
10176:                                 
10177:     DEF4                        loc_DEF4:
10178:     DEF4 81 C0                          cmpa    #$C0
10179:     DEF6 26 09                          bne     loc_DF01
10180:     DEF8 C1 FB                          cmpb    #$FB
10181:     DEFA 26 D8                          bne     loc_DED4
10182:     DEFC 86 E0                          ldaa    #$E0
10183:     DEFE 7E E063                        jmp     loc_E063
10184:                                 
10185:     DF01                        loc_DF01:
10186:     DF01 81 E0                          cmpa    #$E0
10187:     DF03 26 CF                          bne     loc_DED4
10188:     DF05 C1 F8                          cmpb    #$F8
10189:     DF07 26 05                          bne     loc_DF0E
10190:     DF09 86 02                          ldaa    #$02
10191:     DF0B 7E E063                        jmp     loc_E063
10192:                                 
10193:     DF0E                        loc_DF0E:
10194:     DF0E C1 F9                          cmpb    #$F9
10195:     DF10 26 05                          bne     loc_DF17
10196:     DF12 86 01                          ldaa    #$01
10197:     DF14 7E E063                        jmp     loc_E063
10198:                                 
10199:     DF17                        loc_DF17:
10200:     DF17 C1 FB                          cmpb    #$FB
10201:     DF19 26 B9                          bne     loc_DED4
10202:     DF1B 18DE 46                        ldy     <EngineRpm_HB
10203:     DF1E 188C 0100                      cpy     #$100
10204:     DF22 22 05                          bhi     loc_DF29
10205:     DF24 86 05                          ldaa    #$05
10206:     DF26 7E E063                        jmp     loc_E063
10207:                                 
10208:     DF29                        loc_DF29:
10209:     DF29 CC 0017                        ldd     #$0017
10210:     DF2C BD E06A                        jsr     sub_E06A
10211:     DF2F 7E E063                        jmp     loc_E063
10212:                                 
10213:     DF32                        loc_DF32:
10214:     DF32 85 01                          bita    #$01
10215:     DF34 27 03                          beq     loc_DF39
10216:     DF36 7E DF46                        jmp     loc_DF46
10217:                                 
10218:     DF39                        loc_DF39:
10219:     DF39 7E DFF5                        jmp     loc_DFF5
10220:                                 
10221:     DF3C                        sub_DF3C:
10222:     DF3C B6 102E                        ldaa    SCSR_SerialStatus
10223:     DF3F B6 102F                        ldaa    SCDR_SerialData
10224:     DF42 F7 102F                        stab    SCDR_SerialData
10225:     DF45 39                             rts
10226:                                 
10227:     DF46                        loc_DF46:
10228:     DF46 48                             asla
10229:     DF47 25 54                          bcs     loc_DF9D
10230:     DF49 48                             asla
10231:     DF4A 25 22                          bcs     loc_DF6E
10232:     DF4C 48                             asla
10233:     DF4D 25 14                          bcs     loc_DF63
10234:     DF4F 48                             asla
10235:     DF50 25 07                          bcs     loc_DF59
10236:     DF52 F7 648A                        stab    STe_648A
10237:     DF55 86 10                          ldaa    #$10
10238:     DF57 20 3F                          bra     loc_DF98
10239:                                 
10240:     DF59                        loc_DF59:
10241:     DF59 F7 6489                        stab    FDRVar3
10242:     DF5C BD E070                        jsr     sub_E070
10243:     DF5F 86 20                          ldaa    #$20
10244:     DF61 20 35                          bra     loc_DF98
10245:                                 
10246:     DF63                        loc_DF63:
10247:     DF63 18FE 6489                      ldy     FDRVar3
10248:     DF67 18E6 00                        ldab    $00,y
10249:     DF6A 86 40                          ldaa    #$40
10250:     DF6C 20 2A                          bra     loc_DF98
10251:                                 
10252:     DF6E                        loc_DF6E:
10253:     DF6E C1 FE                          cmpb    #$FE
10254:     DF70 27 0D                          beq     loc_DF7F
10255:                                 
10256:     DF72                        loc_DF72:
10257:     DF72 BD E06A                        jsr     sub_E06A
10258:     DF75 C1 1B                          cmpb    #$1B
10259:     DF77 26 03                          bne     loc_DF7C
10260:     DF79 14 DB 40                       bset    <DRBSerialMode $40
10261:                                 
10262:     DF7C                        loc_DF7C:
10263:     DF7C 7E E065                        jmp     loc_E065
10264:                                 
10265:     DF7F                        loc_DF7F:
10266:     DF7F A6 00                          ldaa    $00,x
10267:     DF81 85 04                          bita    #$04
10268:     DF83 27 11                          beq     loc_DF96
10269:     DF85 18DE 46                        ldy     <EngineRpm_HB
10270:     DF88 188C 0100                      cpy     #$0100
10271:     DF8C 25 08                          bcs     loc_DF96
10272:     DF8E C6 17                          ldab    #$17
10273:     DF90 BD E06A                        jsr     sub_E06A
10274:     DF93 7E E065                        jmp     loc_E065
10275:                                 
10276:     DF96                        loc_DF96:
10277:     DF96 86 80                          ldaa    #$80
10278:                                 
10279:     DF98                        loc_DF98:
10280:     DF98 AA 00                          oraa    $00,x
10281:     DF9A 7E E063                        jmp     loc_E063
10282:                                 
10283:     DF9D                        loc_DF9D:
10284:     DF9D 0F                             sei
10285:     DF9E 18FE 6489                      ldy     FDRVar3
10286:     DFA2 188C 9400                      cpy     #Code_start
10287:     DFA6 24 0D                          bcc     loc_DFB5
10288:     DFA8 18E7 00                        stab    $00,y
10289:                                 
10290:     DFAB                        loc_DFAB:
10291:     DFAB 18E6 00                        ldab    $00,y
10292:     DFAE BD E06A                        jsr     sub_E06A
10293:     DFB1 0E                             cli
10294:     DFB2 7E E065                        jmp     loc_E065
10295:                                 
10296:     DFB5                        loc_DFB5:
10297:     DFB5 CE 64D0                        ldx     #UNk_64D0
10298:     DFB8 18CE DFD8                      ldy     #loc_DFD8
10299:                                 
10300:     DFBC                        loc_DFBC:
10301:     DFBC 18A6 00                        ldaa    $00,y
10302:     DFBF A7 00                          staa    $00,x
10303:     DFC1 08                             inx
10304:     DFC2 1808                           iny
10305:     DFC4 188C DFF5                      cpy     #loc_DFF5
10306:     DFC8 26 F2                          bne     loc_DFBC
10307:     DFCA CE 64D0                        ldx     #UNk_64D0
10308:     DFCD 18FE 6489                      ldy     FDRVar3
10309:     DFD1 AD 00                          jsr     $00,x
10310:     DFD3 CE 6486                        ldx     #FDRVar0
10311:     DFD6 20 D3                          bra     loc_DFAB
10312:     DFD8                        loc_DFD8:
10313:     DFD8 86 AA                          ldaa    #$AA
10314:     DFDA B7 D555                        staa    $D555
10315:     DFDD 44                             lsra
10316:     DFDE B7 AAAA                        staa    $AAAA
10317:     DFE1 86 A0                          ldaa    #$A0
10318:     DFE3 B7 D555                        staa    $D555
10319:     DFE6 18E7 00                        stab    $00,y
10320:     DFE9 CE 0000                        ldx     #0000
10321:                                 
10322:     DFEC                        loc_DFEC:
10323:     DFEC 18E1 00                        cmpb    $00,y
10324:     DFEF 27 03                          beq     locret_DFF4
10325:     DFF1 09                             dex
10326:     DFF2 26 F8                          bne     loc_DFEC
10327:                                 
10328:     DFF4                        locret_DFF4:
10329:     DFF4 39                             rts
10330:                                 
10331:     DFF5                        loc_DFF5:
10332:     DFF5 48                             asla
10333:     DFF6 25 39                          bcs     loc_E031
10334:     DFF8 48                             asla
10335:     DFF9 25 28                          bcs     loc_E023
10336:     DFFB 48                             asla
10337:     DFFC 25 1B                          bcs     loc_E019
10338:     DFFE 48                             asla
10339:     DFFF 25 11                          bcs     loc_E00E
10340:     E001 48                             asla
10341:     E002 25 07                          bcs     loc_E00B
10342:     E004 F7 6488                        stab    FDRVar2
10343:     E007 86 08                          ldaa    #$08
10344:     E009 20 21                          bra     loc_E02C
10345:                                 
10346:     E00B                        loc_E00B:
10347:     E00B F7 6487                        stab    FDRVar1
10348:     E00E 86 10                          ldaa    #$10
10349:     E010 20 1A                          bra     loc_E02C
10350:     E012                        loc_E00E:
10351:     E012 F7 648A                        stab    STe_648A
10352:     E015 86 20                          ldaa    #$20
10353:     E017 20 13                          bra     loc_E02C
10354:                                 
10355:     E019                        loc_E019:
10356:     E019 F7 6489                        stab    FDRVar3
10357:     E01C BD E070                        jsr     sub_E070
10358:     E01F 86 C0                          ldaa    #$C0
10359:     E021 20 09                          bra     loc_E02C
10360:                                 
10361:     E023                        loc_E023:
10362:     E023 C1 FD                          cmpb    #$FD
10363:     E025 27 03                          beq     loc_E02A
10364:     E027 7E DF72                        jmp     loc_DF72
10365:                                 
10366:     E02A                        loc_E02A:
10367:     E02A 86 80                          ldaa    #$80
10368:                                 
10369:     E02C                        loc_E02C:
10370:     E02C AA 00                          oraa    $00,x
10371:     E02E 7E E063                        jmp     loc_E063
10372:                                 
10373:     E031                        loc_E031:
10374:     E031 FE 6489                        ldx     FDRVar3
10375:     E034 18FE 6487                      ldy     FDRVar1
10376:     E038 F6 102F                        ldab    SCDR_SerialData
10377:     E03B A6 00                          ldaa    $00,x
10378:     E03D B7 102F                        staa    SCDR_SerialData
10379:     E040 08                             inx
10380:     E041 1809                           dey
10381:     E043 26 08                          bne     loc_E04D
10382:     E045 CE 6486                        ldx     #FDRVar0
10383:     E048 BD E06A                        jsr     sub_E06A
10384:     E04B 38                             pulx
10385:     E04C 39                             rts
10386:                                 
10387:     E04D                        loc_E04D:
10388:     E04D FF 6489                        stx     FDRVar3
10389:     E050 18FF 6487                      sty     FDRVar1
10390:     E054 11                             cba
10391:     E055 26 02                          bne     loc_E059
10392:     E057 38                             pulx
10393:     E058 39                             rts
10394:                                 
10395:     E059                        loc_E059:
10396:     E059 B6 6486                        ldaa    FDRVar0
10397:     E05C 84 7F                          anda    #$7F
10398:     E05E B7 6486                        staa    FDRVar0
10399:     E061 38                             pulx
10400:     E062 39                             rts
10401:                                 
10402:     E063                        loc_E063:
10403:     E063 A7 00                          staa    $00,x
10404:                                 
10405:     E065                        loc_E065:
10406:     E065 BD DF3C                        jsr     sub_DF3C
10407:     E068 38                             pulx
10408:     E069 39                             rts
10409:                                 
10410:     E06A                        sub_E06A:
10411:     E06A 6F 00                          clr     $00,x
10412:     E06C 15 DB 40                       bclr    <DRBSerialMode $40
10413:     E06F 39                             rts
10414:                                 
10415:     E070                        sub_E070:
10416:     E070 3C                             pshx
10417:     E071 FE 6489                        ldx     FDRVar3
10418:     E074 8C 8000                        cpx     #Data_start
10419:     E077 25 0F                          bcs     loc_E088
10420:     E079 8C FFFF                        cpx     #$FFFF
10421:     E07C 22 0A                          bhi     loc_E088
10422:     E07E 8C B600                        cpx     #MCU_eeprom
10423:     E081 25 0E                          bcs     loc_E091
10424:     E083 8C B800                        cpx     #MCU_eeprom + $200
10425:     E086 24 09                          bcc     loc_E091
10426:                                 
10427:     E088                        loc_E088:
10428:     E088 38                             pulx
10429:     E089 CE 6486                        ldx     #FDRVar0
10430:     E08C BD E06A                        jsr     sub_E06A
10431:     E08F 38                             pulx
10432:     E090 39                             rts
10433:                                 
10434:     E091                        loc_E091:
10435:     E091 38                             pulx
10436:     E092 39                             rts
10437:                                 
10438:     E093                        sub_E093:
10439:     E093 C1 14                          cmpb    #$14
10440:     E095 27 01                          beq     loc_E098
10441:     E097 39                             rts
10442:                                 
10443:     E098                        loc_E098:
10444:     E098 7F 6486                        clr     FDRVar0
10445:     E09B C6 25                          ldab    #$25
10446:     E09D F7 102B                        stab    BAUD_SerialBaudRate
10447:     E0A0 F6 6485                        ldab    LDXi_6485
10448:     E0A3 CB 20                          addb    #$20
10449:     E0A5 F7 6485                        stab    LDXi_6485
10450:     E0A8 14 DB 30                       bset    <DRBSerialMode $30
10451:     E0AB FC 102E                        ldd     SCSR_SerialStatus
10452:     E0AE 38                             pulx
10453:     E0AF 39                             rts
10454:                                 
10455:     E0B0                        sub_E0B0:
10456:     E0B0 C6 93                          ldab    #$93
10457:     E0B2 B6 6499                        ldaa    Temp0
10458:     E0B5 26 02                          bne     loc_E0B9
10459:     E0B7 C6 80                          ldab    #$80
10460:                                 
10461:     E0B9                        loc_E0B9:
10462:     E0B9 1B                             aba
10463:     E0BA BB 649A                        adda    Temp1
10464:     E0BD BB 649B                        adda    Temp2
10465:     E0C0 B7 649C                        staa    Temp3
10466:     E0C3 17                             tba
10467:     E0C4 C6 40                          ldab    #$40
10468:     E0C6 18CE 1000                      ldy     #$1000
10469:     E0CA CE 6400                        ldx     #SwitchPortAccessReg1
10470:     E0CD 0F                             sei
10471:     E0CE 1C 00 08                       bset    $00,x $08
10472:     E0D1 181D 08 20                     bclr    $08,y $20
10473:     E0D5 F1 1029                        cmpb    SPSR_SerialPeripheralStatus
10474:     E0D8 B7 102A                        staa    SPDR_SerialPeripheralDataIO
10475:     E0DB 1C 02 08                       bset    $02,x $08
10476:     E0DE 1D 02 08                       bclr    $02,x $08
10477:     E0E1 01                             nop
10478:     E0E2 B6 102A                        ldaa    SPDR_SerialPeripheralDataIO
10479:     E0E5 B1 1029                        cmpa    SPSR_SerialPeripheralStatus
10480:     E0E8 B6 6499                        ldaa    Temp0
10481:                                 
10482:     E0EB                        loc_E0EB:
10483:     E0EB 1F 00 08 06                    brclr   $00,x $08 loc_E0F5
10484:     E0EF 5A                             decb
10485:     E0F0 26 F9                          bne     loc_E0EB
10486:     E0F2 7E E18E                        jmp     loc_E18E
10487:                                 
10488:     E0F5                        loc_E0F5:
10489:     E0F5 B7 102A                        staa    SPDR_SerialPeripheralDataIO
10490:     E0F8 1C 02 08                       bset    $02,x $08
10491:     E0FB 1D 02 08                       bclr    $02,x $08
10492:     E0FE 01                             nop
10493:     E0FF B6 102A                        ldaa    SPDR_SerialPeripheralDataIO
10494:     E102 B7 6499                        staa    Temp0
10495:     E105 B1 1029                        cmpa    SPSR_SerialPeripheralStatus
10496:     E108 B6 649A                        ldaa    Temp1
10497:                                 
10498:     E10B                        loc_E10B:
10499:     E10B 1F 00 08 06                    brclr   $00,x $08 loc_E115
10500:     E10F 5A                             decb
10501:     E110 26 F9                          bne     loc_E10B
10502:     E112 7E E18E                        jmp     loc_E18E
10503:                                 
10504:     E115                        loc_E115:
10505:     E115 B7 102A                        staa    SPDR_SerialPeripheralDataIO
10506:     E118 1C 02 08                       bset    $02,x $08
10507:     E11B 1D 02 08                       bclr    $02,x $08
10508:     E11E 01                             nop
10509:     E11F B6 102A                        ldaa    SPDR_SerialPeripheralDataIO
10510:     E122 B7 649A                        staa    Temp1
10511:     E125 B1 1029                        cmpa    SPSR_SerialPeripheralStatus
10512:     E128 B6 649B                        ldaa    Temp2
10513:                                 
10514:     E12B                        loc_E12B:
10515:     E12B 1F 00 08 06                    brclr   $00,x $08 loc_E135
10516:     E12F 5A                             decb
10517:     E130 26 F9                          bne     loc_E12B
10518:     E132 7E E18E                        jmp     loc_E18E
10519:                                 
10520:     E135                        loc_E135:
10521:     E135 B7 102A                        staa    SPDR_SerialPeripheralDataIO
10522:     E138 1C 02 08                       bset    $02,x $08
10523:     E13B 1D 02 08                       bclr    $02,x $08
10524:     E13E 01                             nop
10525:     E13F B6 102A                        ldaa    SPDR_SerialPeripheralDataIO
10526:     E142 B7 649B                        staa    Temp2
10527:     E145 B1 1029                        cmpa    SPSR_SerialPeripheralStatus
10528:     E148 B6 649C                        ldaa    Temp3
10529:                                 
10530:     E14B                        loc_E14B:
10531:     E14B 1F 00 08 05                    brclr   $00,x $08 loc_E154
10532:     E14F 5A                             decb
10533:     E150 26 F9                          bne     loc_E14B
10534:     E152 20 3A                          bra     loc_E18E
10535:                                 
10536:     E154                        loc_E154:
10537:     E154 B7 102A                        staa    SPDR_SerialPeripheralDataIO
10538:     E157 1C 02 08                       bset    $02,x $08
10539:     E15A 1D 02 08                       bclr    $02,x $08
10540:     E15D 01                             nop
10541:                                 
10542:     E15E                        loc_E15E:
10543:     E15E 181E 29 80 05                  brset   $29,y $80 loc_E168
10544:     E163 5A                             decb
10545:     E164 26 F8                          bne     loc_E15E
10546:     E166 20 26                          bra     loc_E18E
10547:                                 
10548:     E168                        loc_E168:
10549:     E168 B6 102A                        ldaa    SPDR_SerialPeripheralDataIO
10550:     E16B 181C 08 20                     bset    $08,y $20
10551:     E16F 0E                             cli
10552:     E170 B0 6499                        suba    Temp0
10553:     E173 B0 649A                        suba    Temp1
10554:     E176 B0 649B                        suba    Temp2
10555:     E179 26 15                          bne     locret_E190
10556:     E17B B6 6499                        ldaa    Temp0
10557:     E17E 84 0F                          anda    #$0F
10558:     E180 81 01                          cmpa    #$01
10559:     E182 26 0C                          bne     locret_E190
10560:     E184 14 E1 40                       bset    <CCDFlags5 $40
10561:     E187 12 F6 80 05                    brset   <CCDFlags6 $80 locret_E190
10562:     E18B 14 FB 10                       bset    <CCDFlags4_tsbec $10
10563:                                 
10564:     E18E                        loc_E18E:
10565:     E18E 01                             nop
10566:     E18F 0E                             cli
10567:                                 
10568:     E190                        locret_E190:
10569:     E190 39                             rts
10570:                                 
10571:     E191                        sub_E191:
10572:     E191 D6 45                          ldab    <Counter_MainLoop
10573:     E193 C4 0F                          andb    #$0F
10574:     E195 26 3D                          bne     loc_E1D4
10575:     E197 12 FB 08 20                    brset   <CCDFlags4_tsbec $08 loc_E1BB
10576:     E19B 96 44                          ldaa    <KeyOnOrEngineRunningTime
10577:     E19D 81 83                          cmpa    #$83
10578:     E19F 25 30                          bcs     loc_E1D1
10579:     E1A1 96 46                          ldaa    <EngineRpm_HB
10580:     E1A3 81 2F                          cmpa    #$2F
10581:     E1A5 25 2A                          bcs     loc_E1D1
10582:     E1A7 96 5B                          ldaa    <BatteryVolts
10583:     E1A9 81 BD                          cmpa    #$BD
10584:     E1AB 24 24                          bcc     loc_E1D1
10585:     E1AD D6 F5                          ldab    <CCDFlags4_BodyCompFlags4_X
10586:     E1AF 5C                             incb
10587:     E1B0 D7 F5                          stab    <CCDFlags4_BodyCompFlags4_X
10588:     E1B2 C1 71                          cmpb    #$71
10589:     E1B4 25 1E                          bcs     loc_E1D4
10590:     E1B6 14 FB 08                       bset    <CCDFlags4_tsbec $08
10591:     E1B9 20 16                          bra     loc_E1D1
10592:                                 
10593:     E1BB                        loc_E1BB:
10594:     E1BB 96 64                          ldaa    <TargetBatteryVolts
10595:     E1BD 90 5B                          suba    <BatteryVolts
10596:     E1BF 25 04                          bcs     loc_E1C5
10597:     E1C1 81 01                          cmpa    #$01
10598:     E1C3 22 0C                          bhi     loc_E1D1
10599:                                 
10600:     E1C5                        loc_E1C5:
10601:     E1C5 D6 F5                          ldab    <CCDFlags4_BodyCompFlags4_X
10602:     E1C7 5C                             incb
10603:     E1C8 D7 F5                          stab    <CCDFlags4_BodyCompFlags4_X
10604:     E1CA C1 22                          cmpb    #$22
10605:     E1CC 25 06                          bcs     loc_E1D4
10606:     E1CE 15 FB 08                       bclr    <CCDFlags4_tsbec $08
10607:                                 
10608:     E1D1                        loc_E1D1:
10609:     E1D1 4F                             clra
10610:     E1D2 97 F5                          staa    <CCDFlags4_BodyCompFlags4_X
10611:                                 
10612:     E1D4                        loc_E1D4:
10613:     E1D4 12 45 01 16                    brset   <Counter_MainLoop $01 loc_E1EE
10614:     E1D8 CE E418                        ldx     #off_E418
10615:     E1DB D6 F7                          ldab    <CCDTemp_HB
10616:     E1DD 05                             lsld
10617:     E1DE CB 02                          addb    #$02
10618:     E1E0 3A                             abx
10619:     E1E1 04                             lsrd
10620:     E1E2 D7 F7                          stab    <CCDTemp_HB
10621:     E1E4 EE 00                          ldx     $00,x
10622:     E1E6 AD 00                          jsr     $00,x
10623:     E1E8 FD 649A                        std     Temp1
10624:     E1EB BD E0B0                        jsr     sub_E0B0
10625:                                 
10626:     E1EE                        loc_E1EE:
10627:     E1EE B6 6480                        ldaa    CountdownTimerFromKeyOn
10628:     E1F1 26 08                          bne     locret_E1FB
10629:     E1F3 B6 8014                        ldaa    byte_8014
10630:     E1F6 27 04                          beq     loc_E1FC
10631:     E1F8 15 E1 20                       bclr    <CCDFlags5 $20
10632:                                 
10633:     E1FB                        locret_E1FB:
10634:     E1FB 39                             rts
10635:                                 
10636:     E1FC                        loc_E1FC:
10637:     E1FC B6 103B                        ldaa    PPROG_EEPROMControlReg
10638:     E1FF 85 02                          bita    #$02
10639:     E201 26 0D                          bne     loc_E210
10640:     E203 15 FB 20                       bclr    <CCDFlags4_tsbec $20
10641:     E206 B6 B612                        ldaa    MCU_eeprom + $12
10642:     E209 85 01                          bita    #$01
10643:     E20B 27 03                          beq     loc_E210
10644:     E20D 14 FB 20                       bset    <CCDFlags4_tsbec $20
10645:                                 
10646:     E210                        loc_E210:
10647:     E210 96 45                          ldaa    <Counter_MainLoop
10648:     E212 85 03                          bita    #$03
10649:     E214 26 5F                          bne     loc_E275
10650:     E216 13 E1 40 1E                    brclr   <CCDFlags5 $40 loc_E238
10651:     E21A 14 E1 80                       bset    <CCDFlags5 $80
10652:     E21D 15 E1 60                       bclr    <CCDFlags5 $60
10653:     E220 15 F6 7F                       bclr    <CCDFlags6 $7F
10654:     E223 12 F6 80 4E                    brset   <CCDFlags6 $80 loc_E275
10655:     E227 96 26                          ldaa    <BitFlags6a_t3
10656:     E229 85 60                          bita    #$60
10657:     E22B 26 48                          bne     loc_E275
10658:     E22D B6 B612                        ldaa    MCU_eeprom + $12
10659:     E230 85 02                          bita    #$02
10660:     E232 27 41                          beq     loc_E275
10661:     E234 84 FD                          anda    #$FD
10662:     E236 20 29                          bra     loc_E261
10663:                                 
10664:     E238                        loc_E238:
10665:     E238 96 F6                          ldaa    <CCDFlags6
10666:     E23A 84 7F                          anda    #$7F
10667:     E23C 13 E1 80 06                    brclr   <CCDFlags5 $80 loc_E246
10668:     E240 81 71                          cmpa    #$71
10669:     E242 24 0B                          bcc     loc_E24F
10670:     E244 20 04                          bra     loc_E24A
10671:                                 
10672:     E246                        loc_E246:
10673:     E246 81 2D                          cmpa    #$2D
10674:     E248 24 2B                          bcc     loc_E275
10675:                                 
10676:     E24A                        loc_E24A:
10677:     E24A 7C 00F6                        inc     CCDFlags6
10678:     E24D 20 26                          bra     loc_E275
10679:                                 
10680:     E24F                        loc_E24F:
10681:     E24F 96 26                          ldaa    <BitFlags6a_t3
10682:     E251 85 60                          bita    #$60
10683:     E253 26 20                          bne     loc_E275
10684:     E255 B6 B612                        ldaa    MCU_eeprom + $12
10685:     E258 85 02                          bita    #$02
10686:     E25A 26 19                          bne     loc_E275
10687:     E25C 14 F6 80                       bset    <CCDFlags6 $80
10688:     E25F 8A 02                          oraa    #$02
10689:                                 
10690:     E261                        loc_E261:
10691:     E261 0F                             sei
10692:     E262 13 26 40 03                    brclr   <BitFlags6a_t3 $40 loc_E269
10693:     E266 0E                             cli
10694:     E267 20 0C                          bra     loc_E275
10695:                                 
10696:     E269                        loc_E269:
10697:     E269 14 26 40                       bset    <BitFlags6a_t3 $40
10698:     E26C 0E                             cli
10699:     E26D B7 64B1                        staa    DRBOffsetStored_LB
10700:     E270 86 12                          ldaa    #$12
10701:     E272 B7 64B0                        staa    DRBOffsetStored_HB
10702:                                 
10703:     E275                        loc_E275:
10704:     E275 13 E1 10 10                    brclr   <CCDFlags5 $10 loc_E289
10705:     E279 12 E1 80 0B                    brset   <CCDFlags5 $80 locret_E288
10706:     E27D 96 F6                          ldaa    <CCDFlags6
10707:     E27F 84 7F                          anda    #$7F
10708:     E281 81 2D                          cmpa    #$2D
10709:     E283 25 03                          bcs     locret_E288
10710:     E285 14 E1 20                       bset    <CCDFlags5 $20
10711:                                 
10712:     E288                        locret_E288:
10713:     E288 39                             rts
10714:                                 
10715:     E289                        loc_E289:
10716:     E289 12 E1 10 4C                    brset   <CCDFlags5 $10 locret_E2D9
10717:     E28D 13 20 40 48                    brclr   <IPL1 $40 locret_E2D9
10718:     E291 96 26                          ldaa    <BitFlags6a_t3
10719:     E293 85 60                          bita    #$60
10720:     E295 26 42                          bne     locret_E2D9
10721:     E297 B6 B612                        ldaa    MCU_eeprom + $12
10722:     E29A 85 01                          bita    #$01
10723:     E29C 26 06                          bne     loc_E2A4
10724:     E29E 85 02                          bita    #$02
10725:     E2A0 26 31                          bne     loc_E2D3
10726:     E2A2 20 32                          bra     loc_E2D6
10727:                                 
10728:     E2A4                        loc_E2A4:
10729:     E2A4 12 E1 80 0A                    brset   <CCDFlags5 $80 loc_E2B2
10730:     E2A8 96 F6                          ldaa    <CCDFlags6
10731:     E2AA 84 7F                          anda    #$7F
10732:     E2AC 81 2D                          cmpa    #$2D
10733:     E2AE 25 29                          bcs     locret_E2D9
10734:     E2B0 20 1E                          bra     loc_E2D0
10735:                                 
10736:     E2B2                        loc_E2B2:
10737:     E2B2 0F                             sei
10738:     E2B3 13 26 40 03                    brclr   <BitFlags6a_t3 $40 loc_E2BA
10739:     E2B7 0E                             cli
10740:     E2B8 20 1F                          bra     locret_E2D9
10741:                                 
10742:     E2BA                        loc_E2BA:
10743:     E2BA 14 26 40                       bset    <BitFlags6a_t3 $40
10744:     E2BD 0E                             cli
10745:     E2BE 8B 04                          adda    #$04
10746:     E2C0 81 4C                          cmpa    #$4C
10747:     E2C2 25 02                          bcs     loc_E2C6
10748:     E2C4 84 FE                          anda    #$FE
10749:                                 
10750:     E2C6                        loc_E2C6:
10751:     E2C6 84 FD                          anda    #$FD
10752:     E2C8 B7 64B1                        staa    DRBOffsetStored_LB
10753:     E2CB 86 12                          ldaa    #$12
10754:     E2CD B7 64B0                        staa    DRBOffsetStored_HB
10755:                                 
10756:     E2D0                        loc_E2D0:
10757:     E2D0 14 FB 20                       bset    <CCDFlags4_tsbec $20
10758:                                 
10759:     E2D3                        loc_E2D3:
10760:     E2D3 14 E1 80                       bset    <CCDFlags5 $80
10761:                                 
10762:     E2D6                        loc_E2D6:
10763:     E2D6 14 E1 10                       bset    <CCDFlags5 $10
10764:                                 
10765:     E2D9                        locret_E2D9:
10766:     E2D9 39                             rts
10767:                                 
10768:     E2DA                        CCD_CCDBusOutputStatus:
10769:     E2DA 4F                             clra
10770:     E2DB 5F                             clrb
10771:     E2DC B7 6499                        staa    Temp0
10772:     E2DF 39                             rts
10773:                                 
10774:     E2E0                        CCD_EngineRPM:
10775:     E2E0 86 E4                          ldaa    #$E4
10776:     E2E2 B7 6499                        staa    Temp0
10777:     E2E5 96 46                          ldaa    <EngineRpm_HB
10778:     E2E7 D6 50                          ldab    <MapValue
10779:     E2E9 39                             rts
10780:                                 
10781:     E2EA                        CCD_FuelOutput:
10782:     E2EA 86 84                          ldaa    #$84
10783:     E2EC B7 6499                        staa    Temp0
10784:     E2EF 0F                             sei
10785:     E2F0 96 F8                          ldaa    <CCDFuelOutput_HB
10786:     E2F2 D6 FA                          ldab    <Counter_SpeedSensorInterrupt_HB_X
10787:     E2F4 7F 00F8                        clr     CCDFuelOutput_HB
10788:     E2F7 7F 00FA                        clr     Counter_SpeedSensorInterrupt_HB_X
10789:     E2FA 0E                             cli
10790:     E2FB 39                             rts
10791:                                 
10792:     E2FC                        CCD_SpeedSensorCounter:
10793:     E2FC 86 44                          ldaa    #$44
10794:     E2FE B7 6499                        staa    Temp0
10795:     E301 0F                             sei
10796:     E302 96 FC                          ldaa    <Counter_InjectorCalc
10797:     E304 5F                             clrb
10798:     E305 7F 00FC                        clr     Counter_InjectorCalc
10799:     E308 0E                             cli
10800:     E309 39                             rts
10801:                                 
10802:     E30A                        CCD_ConfigConst1:
10803:     E30A 86 AC                          ldaa    #$AC
10804:     E30C B7 6499                        staa    Temp0
10805:     E30F FC 8012                        ldd     word_8012
10806:     E312 39                             rts
10807:                                 
10808:     E313                        CCD_CoolantTemp:
10809:     E313 86 8C                          ldaa    #$8C
10810:     E315 B7 6499                        staa    Temp0
10811:     E318 96 54                          ldaa    <CoolantTemp
10812:     E31A D6 67                          ldab    <AmbientAirTempVolts2
10813:     E31C 39                             rts
10814:                                 
10815:     E31D                        CCD_BatVoltsEtc:
10816:     E31D 86 D4                          ldaa    #$D4
10817:     E31F B7 6499                        staa    Temp0
10818:     E322 96 5B                          ldaa    <BatteryVolts
10819:     E324 D6 64                          ldab    <TargetBatteryVolts
10820:     E326 39                             rts
10821:                                 
10822:     E327                        CCD_ThrottlePos:
10823:     E327 86 42                          ldaa    #$42
10824:     E329 B7 6499                        staa    Temp0
10825:     E32C 96 51                          ldaa    <TpsVolts
10826:     E32E 90 06                          suba    <LowestSessionTpsVolts
10827:     E330 24 01                          bcc     loc_E333
10828:     E332 4F                             clra
10829:                                 
10830:     E333                        loc_E333:
10831:     E333 5F                             clrb
10832:     E334 39                             rts
10833:                                 
10834:     E335                        CCD_TargetIdleSPeed:
10835:     E335 86 CC                          ldaa    #$CC
10836:     E337 B7 6499                        staa    Temp0
10837:     E33A B6 103B                        ldaa    PPROG_EEPROMControlReg
10838:     E33D 85 02                          bita    #$02
10839:     E33F 27 03                          beq     loc_E344
10840:     E341 7E E2DA                        jmp     CCD_CCDBusOutputStatus
10841:                                 
10842:     E344                        loc_E344:
10843:     E344 FC B600                        ldd     MCU_eeprom
10844:     E347 05                             lsld
10845:     E348 05                             lsld
10846:     E349 B7 649C                        staa    Temp3
10847:     E34C DC 6D                          ldd     <TargetIdleSpeedHB
10848:     E34E 05                             lsld
10849:     E34F 05                             lsld
10850:     E350 16                             tab
10851:     E351 B6 649C                        ldaa    Temp3
10852:     E354 39                             rts
10853:                                 
10854:     E355                        CCD_Baro:
10855:     E355 86 54                          ldaa    #$54
10856:     E357 B7 6499                        staa    Temp0
10857:     E35A 96 0D                          ldaa    <BaroPressure
10858:     E35C 5F                             clrb
10859:     E35D 39                             rts
10860:                                 
10861:     E35E                        CCD_VehicleSpeed:
10862:     E35E 86 24                          ldaa    #$24
10863:     E360 B7 6499                        staa    Temp0
10864:     E363 DC 5D                          ldd     <VehicleSpeed_HB
10865:     E365 05                             lsld
10866:     E366 05                             lsld
10867:     E367 B7 649C                        staa    Temp3
10868:     E36A 05                             lsld
10869:     E36B 24 02                          bcc     loc_E36F
10870:     E36D 86 FF                          ldaa    #$FF
10871:                                 
10872:     E36F                        loc_E36F:
10873:     E36F C6 34                          ldab    #$34
10874:     E371 3D                             mul
10875:     E372 05                             lsld
10876:     E373 05                             lsld
10877:     E374 58                             aslb
10878:     E375 89 00                          adca    #$00
10879:     E377 16                             tab
10880:     E378 B6 649C                        ldaa    Temp3
10881:     E37B 39                             rts
10882:                                 
10883:     E37C                        CCD_AlarmStatus:
10884:     E37C B6 103B                        ldaa    PPROG_EEPROMControlReg
10885:     E37F 85 02                          bita    #$02
10886:     E381 26 2A                          bne     loc_E3AD
10887:     E383 CE B672                        ldx     #MCU_eeprom + $72
10888:     E386 D6 FB                          ldab    <CCDFlags4_tsbec
10889:     E388 17                             tba
10890:     E389 5C                             incb
10891:     E38A C4 07                          andb    #$07
10892:     E38C 84 F8                          anda    #$F8
10893:     E38E C1 06                          cmpb    #$06
10894:     E390 26 01                          bne     loc_E393
10895:     E392 5F                             clrb
10896:                                 
10897:     E393                        loc_E393:
10898:     E393 1B                             aba
10899:     E394 97 FB                          staa    <CCDFlags4_tsbec
10900:     E396 58                             aslb
10901:     E397 58                             aslb
10902:     E398 3A                             abx
10903:     E399 1E 00 FF 10                    brset   $00,x $FF loc_E3AD
10904:     E39D A6 00                          ldaa    $00,x
10905:     E39F B7 6499                        staa    Temp0
10906:     E3A2 AB 01                          adda    $01,x
10907:     E3A4 AB 02                          adda    $02,x
10908:     E3A6 A1 03                          cmpa    $03,x
10909:     E3A8 26 03                          bne     loc_E3AD
10910:     E3AA EC 01                          ldd     $01,x
10911:     E3AC 39                             rts
10912:                                 
10913:     E3AD                        loc_E3AD:
10914:     E3AD 7E E2DA                        jmp     CCD_CCDBusOutputStatus
10915:                                 
10916:     E3B0                        CCD_ToggleBCFlags:
10917:     E3B0 86 EC                          ldaa    #$EC
10918:     E3B2 B7 6499                        staa    Temp0
10919:     E3B5 4F                             clra
10920:     E3B6 13 D5 02 02                    brclr   <b5C_IPL1_t3 $02 loc_E3BC
10921:     E3BA 8A 01                          oraa    #$01
10922:                                 
10923:     E3BC                        loc_E3BC:
10924:     E3BC 13 D5 40 02                    brclr   <b5C_IPL1_t3 $40 loc_E3C2
10925:     E3C0 8A 02                          oraa    #$02
10926:                                 
10927:     E3C2                        loc_E3C2:
10928:     E3C2 13 FB 08 02                    brclr   <CCDFlags4_tsbec $08 loc_E3C8
10929:     E3C6 8A 04                          oraa    #$04
10930:                                 
10931:     E3C8                        loc_E3C8:
10932:     E3C8 13 D5 20 02                    brclr   <b5C_IPL1_t3 $20 loc_E3CE
10933:     E3CC 8A 08                          oraa    #$08
10934:                                 
10935:     E3CE                        loc_E3CE:
10936:     E3CE 5F                             clrb
10937:     E3CF 13 FB 10 05                    brclr   <CCDFlags4_tsbec $10 loc_E3D8
10938:     E3D3 15 FB 10                       bclr    <CCDFlags4_tsbec $10
10939:     E3D6 CA 01                          orab    #$01
10940:                                 
10941:     E3D8                        loc_E3D8:
10942:     E3D8 13 FB 20 02                    brclr   <CCDFlags4_tsbec $20 locret_E3DE
10943:     E3DC CA 02                          orab    #$02
10944:                                 
10945:     E3DE                        locret_E3DE:
10946:     E3DE 39                             rts
10947:                                 
10948:     E3DF                        CCD_SwitchState:
10949:     E3DF 86 A4                          ldaa    #$A4
10950:     E3E1 B7 6499                        staa    Temp0
10951:     E3E4 4F                             clra
10952:     E3E5 12 31 80 02                    brset   <CruiseStatus_1 $80 loc_E3EB
10953:     E3E9 8A 01                          oraa    #$01
10954:                                 
10955:     E3EB                        loc_E3EB:
10956:     E3EB D6 51                          ldab    <TpsVolts
10957:     E3ED D0 06                          subb    <LowestSessionTpsVolts
10958:     E3EF 25 06                          bcs     loc_E3F7
10959:     E3F1 C1 05                          cmpb    #$05
10960:     E3F3 25 02                          bcs     loc_E3F7
10961:     E3F5 8A 02                          oraa    #$02
10962:                                 
10963:     E3F7                        loc_E3F7:
10964:     E3F7 13 61 20 02                    brclr   <StartupSwitchMirror1 $20 loc_E3FD
10965:     E3FB 8A 04                          oraa    #$04
10966:                                 
10967:     E3FD                        loc_E3FD:
10968:     E3FD 13 CE 01 02                    brclr   <PIA2_Buffer_t3 $01 loc_E403
10969:     E401 8A 08                          oraa    #$08
10970:                                 
10971:     E403                        loc_E403:
10972:     E403 12 CD 40 02                    brset   <PIA1_Buffer_t3 $40 loc_E409
10973:     E407 8A 20                          oraa    #$20
10974:                                 
10975:     E409                        loc_E409:
10976:     E409 D6 61                          ldab    <StartupSwitchMirror1
10977:     E40B 54                             lsrb
10978:     E40C C4 07                          andb    #$07
10979:     E40E 36                             psha
10980:     E40F B6 8011                        ldaa    byte_8011
10981:     E412 27 02                          beq     loc_E416
10982:     E414 C8 01                          eorb    #$01
10983:                                 
10984:     E416                        loc_E416:
10985:     E416 32                             pula
10986:     E417 39                             rts
10987:                                 
10988:     E418                        off_E418:
10989:     E418 E2E0                           fdb CCD_EngineRPM
10990:     E41A E2EA                           fdb CCD_FuelOutput
10991:     E41C E2FC                           fdb CCD_SpeedSensorCounter
10992:     E41E E2DA                           fdb CCD_CCDBusOutputStatus
10993:     E420 E2E0                           fdb CCD_EngineRPM
10994:     E422 E31D                           fdb CCD_BatVoltsEtc
10995:     E424 E2DA                           fdb CCD_CCDBusOutputStatus
10996:     E426 E2DA                           fdb CCD_CCDBusOutputStatus
10997:     E428 E2E0                           fdb CCD_EngineRPM
10998:     E42A E35E                           fdb CCD_VehicleSpeed
10999:     E42C E3DF                           fdb CCD_SwitchState
11000:     E42E E2DA                           fdb CCD_CCDBusOutputStatus
11001:     E430 E2E0                           fdb CCD_EngineRPM
11002:     E432 E327                           fdb CCD_ThrottlePos
11003:     E434 E2DA                           fdb CCD_CCDBusOutputStatus
11004:     E436 E2DA                           fdb CCD_CCDBusOutputStatus
11005:     E438 E2E0                           fdb CCD_EngineRPM
11006:     E43A E2EA                           fdb CCD_FuelOutput
11007:     E43C E2FC                           fdb CCD_SpeedSensorCounter
11008:     E43E E2DA                           fdb CCD_CCDBusOutputStatus
11009:     E440 E2E0                           fdb CCD_EngineRPM
11010:     E442 E355                           fdb CCD_Baro
11011:     E444 E2DA                           fdb CCD_CCDBusOutputStatus
11012:     E446 E2DA                           fdb CCD_CCDBusOutputStatus
11013:     E448 E2E0                           fdb CCD_EngineRPM
11014:     E44A E35E                           fdb CCD_VehicleSpeed
11015:     E44C E3DF                           fdb CCD_SwitchState
11016:     E44E E2DA                           fdb CCD_CCDBusOutputStatus
11017:     E450 E2E0                           fdb CCD_EngineRPM
11018:     E452 E327                           fdb CCD_ThrottlePos
11019:     E454 E2DA                           fdb CCD_CCDBusOutputStatus
11020:     E456 E2DA                           fdb CCD_CCDBusOutputStatus
11021:     E458 E2E0                           fdb CCD_EngineRPM
11022:     E45A E2EA                           fdb CCD_FuelOutput
11023:     E45C E2FC                           fdb CCD_SpeedSensorCounter
11024:     E45E E2DA                           fdb CCD_CCDBusOutputStatus
11025:     E460 E2E0                           fdb CCD_EngineRPM
11026:     E462 E313                           fdb CCD_CoolantTemp
11027:     E464 E2DA                           fdb CCD_CCDBusOutputStatus
11028:     E466 E2DA                           fdb CCD_CCDBusOutputStatus
11029:     E468 E2E0                           fdb CCD_EngineRPM
11030:     E46A E35E                           fdb CCD_VehicleSpeed
11031:     E46C E3DF                           fdb CCD_SwitchState
11032:     E46E E2DA                           fdb CCD_CCDBusOutputStatus
11033:     E470 E2E0                           fdb CCD_EngineRPM
11034:     E472 E327                           fdb CCD_ThrottlePos
11035:     E474 E2DA                           fdb CCD_CCDBusOutputStatus
11036:     E476 E2DA                           fdb CCD_CCDBusOutputStatus
11037:     E478 E2E0                           fdb CCD_EngineRPM
11038:     E47A E2EA                           fdb CCD_FuelOutput
11039:     E47C E2FC                           fdb CCD_SpeedSensorCounter
11040:     E47E E2DA                           fdb CCD_CCDBusOutputStatus
11041:     E480 E2E0                           fdb CCD_EngineRPM
11042:     E482 E335                           fdb CCD_TargetIdleSPeed
11043:     E484 E2DA                           fdb CCD_CCDBusOutputStatus
11044:     E486 E2DA                           fdb CCD_CCDBusOutputStatus
11045:     E488 E2E0                           fdb CCD_EngineRPM
11046:     E48A E35E                           fdb CCD_VehicleSpeed
11047:     E48C E3DF                           fdb CCD_SwitchState
11048:     E48E E2DA                           fdb CCD_CCDBusOutputStatus
11049:     E490 E2E0                           fdb CCD_EngineRPM
11050:     E492 E327                           fdb CCD_ThrottlePos
11051:     E494 E2DA                           fdb CCD_CCDBusOutputStatus
11052:     E496 E2DA                           fdb CCD_CCDBusOutputStatus
11053:     E498 E2E0                           fdb CCD_EngineRPM
11054:     E49A E2EA                           fdb CCD_FuelOutput
11055:     E49C E2FC                           fdb CCD_SpeedSensorCounter
11056:     E49E E3B0                           fdb CCD_ToggleBCFlags
11057:     E4A0 E2E0                           fdb CCD_EngineRPM
11058:     E4A2 E31D                           fdb CCD_BatVoltsEtc
11059:     E4A4 E2DA                           fdb CCD_CCDBusOutputStatus
11060:     E4A6 E2DA                           fdb CCD_CCDBusOutputStatus
11061:     E4A8 E2E0                           fdb CCD_EngineRPM
11062:     E4AA E35E                           fdb CCD_VehicleSpeed
11063:     E4AC E3DF                           fdb CCD_SwitchState
11064:     E4AE E2DA                           fdb CCD_CCDBusOutputStatus
11065:     E4B0 E2E0                           fdb CCD_EngineRPM
11066:     E4B2 E327                           fdb CCD_ThrottlePos
11067:     E4B4 E2DA                           fdb CCD_CCDBusOutputStatus
11068:     E4B6 E2DA                           fdb CCD_CCDBusOutputStatus
11069:     E4B8 E2E0                           fdb CCD_EngineRPM
11070:     E4BA E2EA                           fdb CCD_FuelOutput
11071:     E4BC E2FC                           fdb CCD_SpeedSensorCounter
11072:     E4BE E2DA                           fdb CCD_CCDBusOutputStatus
11073:     E4C0 E2E0                           fdb CCD_EngineRPM
11074:     E4C2 E37C                           fdb CCD_AlarmStatus
11075:     E4C4 E2DA                           fdb CCD_CCDBusOutputStatus
11076:     E4C6 E2DA                           fdb CCD_CCDBusOutputStatus
11077:     E4C8 E2E0                           fdb CCD_EngineRPM
11078:     E4CA E35E                           fdb CCD_VehicleSpeed
11079:     E4CC E3DF                           fdb CCD_SwitchState
11080:     E4CE E2DA                           fdb CCD_CCDBusOutputStatus
11081:     E4D0 E2E0                           fdb CCD_EngineRPM
11082:     E4D2 E327                           fdb CCD_ThrottlePos
11083:     E4D4 E2DA                           fdb CCD_CCDBusOutputStatus
11084:     E4D6 E2DA                           fdb CCD_CCDBusOutputStatus
11085:     E4D8 E2E0                           fdb CCD_EngineRPM
11086:     E4DA E2EA                           fdb CCD_FuelOutput
11087:     E4DC E2FC                           fdb CCD_SpeedSensorCounter
11088:     E4DE E2DA                           fdb CCD_CCDBusOutputStatus
11089:     E4E0 E2E0                           fdb CCD_EngineRPM
11090:     E4E2 E313                           fdb CCD_CoolantTemp
11091:     E4E4 E2DA                           fdb CCD_CCDBusOutputStatus
11092:     E4E6 E2DA                           fdb CCD_CCDBusOutputStatus
11093:     E4E8 E2E0                           fdb CCD_EngineRPM
11094:     E4EA E35E                           fdb CCD_VehicleSpeed
11095:     E4EC E3DF                           fdb CCD_SwitchState
11096:     E4EE E2DA                           fdb CCD_CCDBusOutputStatus
11097:     E4F0 E2E0                           fdb CCD_EngineRPM
11098:     E4F2 E327                           fdb CCD_ThrottlePos
11099:     E4F4 E2DA                           fdb CCD_CCDBusOutputStatus
11100:     E4F6 E2DA                           fdb CCD_CCDBusOutputStatus
11101:     E4F8 E2E0                           fdb CCD_EngineRPM
11102:     E4FA E2EA                           fdb CCD_FuelOutput
11103:     E4FC E2FC                           fdb CCD_SpeedSensorCounter
11104:     E4FE E2DA                           fdb CCD_CCDBusOutputStatus
11105:     E500 E2E0                           fdb CCD_EngineRPM
11106:     E502 E30A                           fdb CCD_ConfigConst1
11107:     E504 E2DA                           fdb CCD_CCDBusOutputStatus
11108:     E506 E2DA                           fdb CCD_CCDBusOutputStatus
11109:     E508 E2E0                           fdb CCD_EngineRPM
11110:     E50A E35E                           fdb CCD_VehicleSpeed
11111:     E50C E3DF                           fdb CCD_SwitchState
11112:     E50E E2DA                           fdb CCD_CCDBusOutputStatus
11113:     E510 E2E0                           fdb CCD_EngineRPM
11114:     E512 E327                           fdb CCD_ThrottlePos
11115:     E514 E2DA                           fdb CCD_CCDBusOutputStatus
11116:     E516 E2DA                           fdb CCD_CCDBusOutputStatus
11117:                                 
11118:     E518                        unk_E518:
11119:     E518 06                             fcb $06
11120:     E519 05                             fcb $05
11121:     E51A 09                             fcb $09
11122:     E51B 0A                             fcb $0A
11123:                                 
11124:     E51C                        unk_E51C:
11125:     E51C 07                             fcb $07
11126:     E51D 00 D3 FF 85                    fcb $00, $D3, $FF, $85
11127:     E521 53 AB FF 9D                    fcb $53, $AB, $FF, $9D
11128:     E525 D7 78 FF 55                    fcb $D7, $78, $FF, $55
11129:     E529 E6 6E FF 17                    fcb $E6, $6E, $FF, $17
11130:     E52D F1 64 FE CD                    fcb $F1, $64, $FE, $CD
11131:     E531 F6 5E FD AB                    fcb $F6, $5E, $FD, $AB
11132:     E535 FF 49                          fcb $FF, $49
11133:                                 
11134:     E537                        unk_E537:
11135:     E537 04                             fcb $04
11136:     E538 42 FF FF 55                    fcb $42, $FF, $FF, $55
11137:     E53C 57 F1 FF 75                    fcb $57, $F1, $FF, $75
11138:     E540 C5 B5 FF 4F                    fcb $C5, $B5, $FF, $4F
11139:     E544 FF 8D                          fcb $FF, $8D
11140:                                 
11141:     E546                        unk_E546:
11142:     E546 09                             fcb $09
11143:     E547 58 00 01 86                    fcb $58, $00, $01, $86
11144:     E54B 6D 20 01 86                    fcb $6D, $20, $01, $86
11145:     E54F 82 40 01 86                    fcb $82, $40, $01, $86
11146:     E553 97 60 01 86                    fcb $97, $60, $01, $86
11147:     E557 AC 80 01 86                    fcb $AC, $80, $01, $86
11148:     E55B C1 A0 01 86                    fcb $C1, $A0, $01, $86
11149:     E55F D6 C0 01 86                    fcb $D6, $C0, $01, $86
11150:     E563 EB E0 01 8C                    fcb $EB, $E0, $01, $8C
11151:     E567 FF FF                          fcb $FF, $FF
11152:                                 
11153:     E569 03                             fcb $03
11154:     E56A 2F 99 FF AF                    fcb $2F, $99, $FF, $AF
11155:     E56E CC 67 FF 7C                    fcb $CC, $67, $FF, $7C
11156:     E572 E9 58                          fcb $E9, $58
11157:                                 
11158:     E574 05                             fcb $05
11159:     E575 15 FF FE 00                    fcb $15, $FF, $FE, $00
11160:     E579 1B F3 FE F3                    fcb $1B, $F3, $FE, $F3
11161:     E57D 2E DF FF 4A                    fcb $2E, $DF, $FF, $4A
11162:     E581 4A CB FF 91                    fcb $4A, $CB, $FF, $91
11163:     E585 C8 94                          fcb $C8, $94
11164:                                 
11165:     E587                        unk_E587:
11166:     E587 09                             fcb $09
11167:     E588 58 00 01 99                    fcb $58, $00, $01, $99
11168:     E58C 6C 20 01 99                    fcb $6C, $20, $01, $99
11169:     E590 80 40 01 99                    fcb $80, $40, $01, $99
11170:     E594 94 60 01 99                    fcb $94, $60, $01, $99
11171:     E598 A8 80 01 99                    fcb $A8, $80, $01, $99
11172:     E59C BC A0 01 99                    fcb $BC, $A0, $01, $99
11173:     E5A0 D0 C0 01 99                    fcb $D0, $C0, $01, $99
11174:     E5A4 E4 E0 01 8C                    fcb $E4, $E0, $01, $8C
11175:     E5A8 F8 FF                          fcb $F8, $FF
11176:                                 
11177:     E5AA                        unk_E5AA:
11178:     E5AA 06                             fcb $06
11179:     E5AB 05 FF FC C0                    fcb $05, $FF, $FC, $C0
11180:     E5AF 15 CB FE F8                    fcb $15, $CB, $FE, $F8
11181:     E5B3 32 AD FF 83                    fcb $32, $AD, $FF, $83
11182:     E5B7 6F 8F FF 96                    fcb $6F, $8F, $FF, $96
11183:     E5BB C8 6C FF 56                    fcb $C8, $6C, $FF, $56
11184:     E5BF E7 58                          fcb $E7, $58
11185:                                 
11186:     E5C1                        unk_E5C1:
11187:     E5C1 05                             fcb $05
11188:     E5C2 79 EC FF E4                    fcb $79, $EC, $FF, $E4
11189:     E5C6 82 EB FF A2                    fcb $82, $EB, $FF, $A2
11190:     E5CA 95 E4 FF 9A                    fcb $95, $E4, $FF, $9A
11191:     E5CE AE DA FF C8                    fcb $AE, $DA, $FF, $C8
11192:     E5D2 B7 D8                          fcb $B7, $D8
11193:                                 
11194:     E5D4                        unk_E5D4:
11195:     E5D4 05                             fcb $05
11196:     E5D5 79 ED FF E4                    fcb $79, $ED, $FF, $E4
11197:     E5D9 82 EC FF 95                    fcb $82, $EC, $FF, $95
11198:     E5DD 95 E4 FF A4                    fcb $95, $E4, $FF, $A4
11199:     E5E1 AE DB FF 8F                    fcb $AE, $DB, $FF, $8F
11200:     E5E5 B7 D7                          fcb $B7, $D7
11201:                                 
11202:     E5E7                        unk_E5E7:
11203:     E5E7 05                             fcb $05
11204:     E5E8 79 EE FF C8                    fcb $79, $EE, $FF, $C8
11205:     E5EC 82 EC FF A2                    fcb $82, $EC, $FF, $A2
11206:     E5F0 95 E5 FF 9A                    fcb $95, $E5, $FF, $9A
11207:     E5F4 AE DB FF AB                    fcb $AE, $DB, $FF, $AB
11208:     E5F8 B7 D8                          fcb $B7, $D8
11209:                                 
11210:     E5FA                        unk_E5FA:
11211:     E5FA 05                             fcb $05
11212:     E5FB 96 9C FA 00                    fcb $96, $9C, $FA, $00
11213:     E5FF A2 54 FF 00                    fcb $A2, $54, $FF, $00
11214:     E603 C2 34 FF 9C                    fcb $C2, $34, $FF, $9C
11215:     E607 E3 27 FF B7                    fcb $E3, $27, $FF, $B7
11216:     E60B FF 1F                          fcb $FF, $1F
11217:                                 
11218:     E60D                        ScaleYbyA:
11219:     E60D 36                             psha
11220:     E60E 183C                           pshy
11221:     E610 33                             pulb
11222:     E611 3D                             mul
11223:     E612 188F                           xgdy
11224:     E614 33                             pulb
11225:     E615 32                             pula
11226:     E616 3D                             mul
11227:     E617 89 00                          adca    #$00
11228:     E619 16                             tab
11229:     E61A 183A                           aby
11230:     E61C 183C                           pshy
11231:     E61E 1838                           puly
11232:     E620 39                             rts
11233:                                 
11234:     E621                        ScaleXbyB_somethingelse:
11235:     E621 36                             psha
11236:     E622 17                             tba
11237:     E623 1AEE 00                        ldy     $00,x
11238:     E626 8D E5                          bsr     ScaleYbyA
11239:     E628 18FF 649F                      sty     Temp6
11240:     E62C 32                             pula
11241:     E62D 36                             psha
11242:     E62E E6 01                          ldab    $01,x
11243:     E630 3D                             mul
11244:     E631 F3 649F                        addd    Temp6
11245:     E634 25 11                          bcs     loc_E647
11246:     E636 FD 649F                        std     Temp6
11247:     E639 E6 00                          ldab    $00,x
11248:     E63B 32                             pula
11249:     E63C 3D                             mul
11250:     E63D 4D                             tsta
11251:     E63E 26 08                          bne     loc_E648
11252:     E640 FB 649F                        addb    Temp6
11253:     E643 24 08                          bcc     loc_E64D
11254:     E645 20 01                          bra     loc_E648
11255:                                 
11256:     E647                        loc_E647:
11257:     E647 32                             pula
11258:                                 
11259:     E648                        loc_E648:
11260:     E648 C6 FF                          ldab    #$FF
11261:     E64A F7 64A0                        stab    Temp7
11262:                                 
11263:     E64D                        loc_E64D:
11264:     E64D 17                             tba
11265:     E64E F6 64A0                        ldab    Temp7
11266:     E651 FD 649F                        std     Temp6
11267:     E654 39                             rts
11268:                                 
11269:     E655                        Lookup4ByteTable:
11270:     E655 18CE 0000                      ldy     #$0000
11271:     E659 E6 00                          ldab    $00,x
11272:     E65B 183A                           aby
11273:     E65D 08                             inx
11274:     E65E C6 04                          ldab    #$04
11275:     E660 A1 00                          cmpa    $00,x
11276:     E662 22 05                          bhi     loc_E669
11277:                                 
11278:     E664                        loc_E664:
11279:     E664 A6 01                          ldaa    $01,x
11280:     E666 16                             tab
11281:     E667 20 21                          bra     loc_E68A
11282:                                 
11283:     E669                        loc_E669:
11284:     E669 1809                           dey
11285:     E66B 27 F7                          beq     loc_E664
11286:     E66D A1 04                          cmpa    $04,x
11287:     E66F 25 03                          bcs     loc_E674
11288:     E671 3A                             abx
11289:     E672 20 F5                          bra     loc_E669
11290:                                 
11291:     E674                        loc_E674:
11292:     E674 A0 00                          suba    $00,x
11293:     E676 36                             psha
11294:     E677 E6 02                          ldab    $02,x
11295:     E679 3D                             mul
11296:     E67A 188F                           xgdy
11297:     E67C 32                             pula
11298:     E67D E6 03                          ldab    $03,x
11299:     E67F 3D                             mul
11300:     E680 89 00                          adca    #$00
11301:     E682 16                             tab
11302:     E683 183A                           aby
11303:     E685 188F                           xgdy
11304:     E687 EB 01                          addb    $01,x
11305:     E689 17                             tba
11306:                                 
11307:     E68A                        loc_E68A:
11308:     E68A 36                             psha
11309:     E68B 32                             pula
11310:     E68C 39                             rts
11311:                                 
11312:     E68D                        sub_E68D:
11313:     E68D 36                             psha
11314:     E68E 5F                             clrb
11315:     E68F 49                             rola
11316:     E690 59                             rolb
11317:     E691 49                             rola
11318:     E692 59                             rolb
11319:     E693 49                             rola
11320:     E694 59                             rolb
11321:     E695 3A                             abx
11322:     E696 E6 00                          ldab    $00,x
11323:     E698 E0 01                          subb    $01,x
11324:     E69A 25 04                          bcs     loc_E6A0
11325:     E69C 3D                             mul
11326:     E69D 40                             nega
11327:     E69E 20 02                          bra     loc_E6A2
11328:                                 
11329:     E6A0                        loc_E6A0:
11330:     E6A0 50                             negb
11331:     E6A1 3D                             mul
11332:                                 
11333:     E6A2                        loc_E6A2:
11334:     E6A2 AB 00                          adda    $00,x
11335:     E6A4 16                             tab
11336:     E6A5 37                             pshb
11337:     E6A6 33                             pulb
11338:     E6A7 32                             pula
11339:     E6A8 39                             rts
11340:     E6A9 39                             rts
11341:                                 
11342:     E6AA                        sub_E6AA:
11343:     E6AA 18CE 0036                      ldy     #$0036
11344:     E6AE FC 8072                        ldd     word_8072
11345:     E6B1 FE 8074                        ldx     byte_8074
11346:     E6B4 13 35 FF 08                    brclr   <TimerOverflowsBetweenCamPulses $FF sub_E6C0
11347:     E6B8 1809                           dey
11348:     E6BA FC 8076                        ldd     word_8076
11349:     E6BD FE 8078                        ldx     byte_8078
11350:                                 
11351:     E6C0                        sub_E6C0:
11352:     E6C0 3C                             pshx
11353:     E6C1 CDEE 00                        ldx     $00,y
11354:     E6C4 03                             fdiv
11355:     E6C5 FF 649F                        stx     Temp6
11356:     E6C8 32                             pula
11357:     E6C9 33                             pulb
11358:     E6CA CDEE 00                        ldx     $00,y
11359:     E6CD 02                             idiv
11360:     E6CE 8F                             xgdx
11361:     E6CF F3 649F                        addd    Temp6
11362:     E6D2 24 03                          bcc     loc_E6D7
11363:     E6D4 CC FFFF                        ldd     #$FFFF
11364:                                 
11365:     E6D7                        loc_E6D7:
11366:     E6D7 FD 649F                        std     Temp6
11367:     E6DA 39                             rts
11368:                                 
11369:     E6DB                        sub_E6DB:
11370:     E6DB F6 8021                        ldab    byte_8021
11371:     E6DE 27 01                          beq     loc_E6E1
11372:     E6E0 3D                             mul
11373:                                 
11374:     E6E1                        loc_E6E1:
11375:     E6E1 F3 8022                        addd    word_8022
11376:     E6E4 24 02                          bcc     locret_E6E8
11377:     E6E6 86 FF                          ldaa    #$FF
11378:                                 
11379:     E6E8                        locret_E6E8:
11380:     E6E8 39                             rts
11381:                                 
11382:     E6E9                        sub_E6E9:
11383:     E6E9 36                             psha
11384:     E6EA 17                             tba
11385:     E6EB 1AEE 00                        ldy     $00,x
11386:     E6EE BD E60D                        jsr     ScaleYbyA
11387:     E6F1 32                             pula
11388:     E6F2 4D                             tsta
11389:     E6F3 188F                           xgdy
11390:     E6F5 27 07                          beq     loc_E6FE
11391:     E6F7 E3 00                          addd    $00,x
11392:     E6F9 24 03                          bcc     loc_E6FE
11393:     E6FB CC FFFF                        ldd     #$FFFF
11394:                                 
11395:     E6FE                        loc_E6FE:
11396:     E6FE 36                             psha
11397:     E6FF 37                             pshb
11398:     E700 33                             pulb
11399:     E701 32                             pula
11400:     E702 39                             rts
11401:                                 
11402:     E703                        sub_E703:
11403:     E703 A3 04                          subd    $04,x
11404:     E705 18A7 00                        staa    $00,y
11405:     E708 A6 00                          ldaa    $00,x
11406:     E70A 04                             lsrd
11407:     E70B 18E8 00                        eorb    $00,y
11408:     E70E 2A 07                          bpl     loc_E717
11409:     E710 A6 00                          ldaa    $00,x
11410:     E712 4C                             inca
11411:     E713 27 02                          beq     loc_E717
11412:     E715 A7 00                          staa    $00,x
11413:                                 
11414:     E717                        loc_E717:
11415:     E717 A6 00                          ldaa    $00,x
11416:     E719 44                             lsra
11417:     E71A A1 01                          cmpa    $01,x
11418:     E71C 25 02                          bcs     locret_E720
11419:     E71E A7 01                          staa    $01,x
11420:                                 
11421:     E720                        locret_E720:
11422:     E720 39                             rts
11423:                                 
11424:     E721                        sub_E721:
11425:     E721 CE 8053                        ldx     #unk_8053
11426:     E724 DC 46                          ldd     <EngineRpm_HB
11427:     E726 58                             aslb
11428:     E727 89 00                          adca    #$00
11429:     E729 BD E655                        jsr     Lookup4ByteTable
11430:     E72C 97 48                          staa    <EngineRPM_3D
11431:     E72E 39                             rts
11432:                                 
11433:     E72F                        sub_E72F:
11434:     E72F 18CE E7A4                      ldy     #loc_E7A4
11435:     E733 1F 02 FF 04                    brclr   $02,x $FF loc_E73B
11436:     E737 18CE E7A0                      ldy     #loc_E7A0
11437:                                 
11438:     E73B                        loc_E73B:
11439:     E73B 183C                           pshy
11440:     E73D 36                             psha
11441:     E73E 36                             psha
11442:     E73F A6 01                          ldaa    $01,x
11443:     E741 4A                             deca
11444:     E742 3D                             mul
11445:     E743 36                             psha
11446:     E744 37                             pshb
11447:     E745 1830                           tsy
11448:     E747 18A6 02                        ldaa    $02,y
11449:     E74A E6 00                          ldab    $00,x
11450:     E74C 5A                             decb
11451:     E74D 3D                             mul
11452:     E74E 18E7 03                        stab    $03,y
11453:     E751 E6 01                          ldab    $01,x
11454:     E753 18E7 02                        stab    $02,y
11455:     E756 3D                             mul
11456:     E757 08                             inx
11457:     E758 08                             inx
11458:     E759 08                             inx
11459:     E75A 3A                             abx
11460:     E75B 4D                             tsta
11461:     E75C 27 04                          beq     loc_E762
11462:     E75E 08                             inx
11463:     E75F C6 FF                          ldab    #$FF
11464:     E761 3A                             abx
11465:                                 
11466:     E762                        loc_E762:
11467:     E762 18E6 01                        ldab    $01,y
11468:     E765 3A                             abx
11469:     E766 18E6 00                        ldab    $00,y
11470:     E769 183C                           pshy
11471:     E76B 18EE 04                        ldy     $04,y
11472:     E76E A6 00                          ldaa    $00,x
11473:     E770 A0 01                          suba    $01,x
11474:     E772 18AD 00                        jsr     $00,y
11475:     E775 1838                           puly
11476:     E777 18A7 01                        staa    $01,y
11477:     E77A 18E6 02                        ldab    $02,y
11478:     E77D 3A                             abx
11479:     E77E 33                             pulb
11480:     E77F 183C                           pshy
11481:     E781 18EE 04                        ldy     $04,y
11482:     E784 A6 00                          ldaa    $00,x
11483:     E786 A0 01                          suba    $01,x
11484:     E788 18AD 00                        jsr     $00,y
11485:     E78B 1838                           puly
11486:     E78D 30                             tsx
11487:     E78E A7 01                          staa    $01,x
11488:     E790 E6 02                          ldab    $02,x
11489:     E792 1AEE 03                        ldy     $03,x
11490:     E795 A6 00                          ldaa    $00,x
11491:     E797 A0 01                          suba    $01,x
11492:     E799 18AD 00                        jsr     $00,y
11493:     E79C 33                             pulb
11494:     E79D 38                             pulx
11495:     E79E 38                             pulx
11496:     E79F 39                             rts
11497:                                 
11498:     E7A0                        loc_E7A0:
11499:     E7A0 2D 0A                          blt loc_E7AC
11500:     E7A2                        loc_E7A2:
11501:     E7A2 20 02                          bra loc_E7A6
11502:     E7A4                        loc_E7A4:
11503:     E7A4 25 06                          bcs loc_E7AC
11504:                                 
11505:     E7A6                        loc_E7A6:
11506:     E7A6 3D                             mul
11507:     E7A7 89 00                          adca    #$00
11508:     E7A9 40                             nega
11509:     E7AA 20 04                          bra     loc_E7B0
11510:                                 
11511:     E7AC                        loc_E7AC:
11512:     E7AC 40                             nega
11513:     E7AD 3D                             mul
11514:     E7AE 89 00                          adca    #$00
11515:                                 
11516:     E7B0                        loc_E7B0:
11517:     E7B0 AB 00                          adda    $00,x
11518:     E7B2 39                             rts
11519:                                 
11520:     E7B3                        sub_E7B3:
11521:     E7B3 18A0 00                        suba    $00,y
11522:     E7B6 25 05                          bcs     loc_E7BD
11523:     E7B8 E6 01                          ldab    $01,x
11524:     E7BA 3D                             mul
11525:     E7BB 20 08                          bra     loc_E7C5
11526:                                 
11527:     E7BD                        loc_E7BD:
11528:     E7BD 40                             nega
11529:     E7BE E6 00                          ldab    $00,x
11530:     E7C0 3D                             mul
11531:     E7C1 40                             nega
11532:     E7C2 50                             negb
11533:     E7C3 82 00                          sbca    #$00
11534:                                 
11535:     E7C5                        loc_E7C5:
11536:     E7C5 18E3 00                        addd    $00,y
11537:     E7C8 18ED 00                        std     $00,y
11538:     E7CB 39                             rts
11539:                                 
11540:     E7CC                        sub_E7CC:
11541:     E7CC 0F                             sei
11542:     E7CD B6 6400                        ldaa    SwitchPortAccessReg1
11543:     E7D0 88 02                          eora    #$02
11544:     E7D2 B7 6400                        staa    SwitchPortAccessReg1
11545:     E7D5 0E                             cli
11546:                                 
11547:     E7D6                        sub_E7D6:
11548:     E7D6 CC 55AA                        ldd     #$55AA
11549:     E7D9 B7 103A                        staa    COPRST_ArmOCToggleAndResetCopTimerReg
11550:     E7DC F7 103A                        stab    COPRST_ArmOCToggleAndResetCopTimerReg
11551:     E7DF 39                             rts
11552:                                 
11553:     E7E0                        sub_E7E0:
11554:     E7E0 B6 6400                        ldaa    SwitchPortAccessReg1
11555:     E7E3 84 FD                          anda    #$FD
11556:     E7E5 B7 6400                        staa    SwitchPortAccessReg1
11557:     E7E8 C6 10                          ldab    #$10
11558:                                 
11559:     E7EA                        loc_E7EA:
11560:     E7EA 5A                             decb
11561:     E7EB 26 FD                          bne     loc_E7EA
11562:     E7ED 8A 02                          oraa    #$02
11563:     E7EF B7 6400                        staa    SwitchPortAccessReg1
11564:     E7F2 CC 55AA                        ldd     #$55AA
11565:     E7F5 B7 103A                        staa    COPRST_ArmOCToggleAndResetCopTimerReg
11566:     E7F8 F7 103A                        stab    COPRST_ArmOCToggleAndResetCopTimerReg
11567:     E7FB 39                             rts
11568:     E7FC CE 0019                        ldx     #$0019
11569:     E7FF 20 08                          bra     loc_E809
11570:     E801 CE 0005                        ldx     #$0005
11571:     E804 20 03                          bra     loc_E809
11572:                                 
11573:     E806                        sub_E806:
11574:     E806 CE 0001                        ldx     #$0001
11575:                                 
11576:     E809                        loc_E809:
11577:     E809 18CE 0242                      ldy     #$0242
11578:     E80D BD E7E0                        jsr     sub_E7E0
11579:                                 
11580:     E810                        loc_E810:
11581:     E810 B6 6400                        ldaa    SwitchPortAccessReg1
11582:     E813 85 40                          bita    #$40
11583:     E815 26 02                          bne     loc_E819
11584:     E817 0D                             sec
11585:     E818 39                             rts
11586:                                 
11587:     E819                        loc_E819:
11588:     E819 BD E7E0                        jsr     sub_E7E0
11589:     E81C 0C                             clc
11590:     E81D 1809                           dey
11591:     E81F 26 EF                          bne     loc_E810
11592:     E821 09                             dex
11593:     E822 26 E5                          bne     loc_E809
11594:     E824 39                             rts
11595:                                 
11596:     E825                        sub_E825:
11597:     E825 B6 6400                        ldaa    SwitchPortAccessReg1
11598:     E828 85 40                          bita    #$40
11599:     E82A 26 15                          bne     loc_E841
11600:     E82C 12 30 40 0C                    brset   <Ram_30 $40 loc_E83C
11601:     E830 14 30 40                       bset    <Ram_30 $40
11602:     E833 15 21 80                       bclr    <BitFlags21 $80
11603:     E836 15 2E 42                       bclr    <BitFlags2e $42
11604:     E839 15 30 80                       bclr    <Ram_30 $80
11605:                                 
11606:     E83C                        loc_E83C:
11607:     E83C 7F 6480                        clr     CountdownTimerFromKeyOn
11608:     E83F 0E                             cli
11609:     E840 39                             rts
11610:                                 
11611:     E841                        loc_E841:
11612:     E841 15 21 80                       bclr    <BitFlags21 $80
11613:     E844 15 2E 42                       bclr    <BitFlags2e $42
11614:     E847 15 30 C0                       bclr    <Ram_30 $C0
11615:     E84A B6 6480                        ldaa    CountdownTimerFromKeyOn
11616:     E84D 26 0A                          bne     loc_E859
11617:     E84F 86 17                          ldaa    #$17
11618:     E851 D6 35                          ldab    <TimerOverflowsBetweenCamPulses
11619:     E853 C1 04                          cmpb    #$04
11620:     E855 25 02                          bcs     loc_E859
11621:     E857 86 09                          ldaa    #$09
11622:                                 
11623:     E859                        loc_E859:
11624:     E859 4A                             deca
11625:     E85A 27 04                          beq     loc_E860
11626:     E85C B7 6480                        staa    CountdownTimerFromKeyOn
11627:     E85F 39                             rts
11628:                                 
11629:                                 
11630:     E860                        loc_E860:
11631:     E860 0F                             sei
11632:     E861 4F                             clra
11633:     E862 97 DC                          staa    <ErrorBitsAssociatedWithPIA1AndReg1eTo25_HB
11634:     E864 97 DE                          staa    <ClearTheErrorTimer_0
11635:     E866 BD E7E0                        jsr     sub_E7E0
11636:     E869 BD D15F                        jsr     sub_D15F
11637:     E86C 86 20                          ldaa    #$20
11638:                                 
11639:     E86E                        loc_E86E:
11640:     E86E F6 6400                        ldab    SwitchPortAccessReg1
11641:     E871 C5 40                          bitb    #$40
11642:     E873 27 C7                          beq     loc_E83C
11643:     E875 4A                             deca
11644:     E876 26 F6                          bne     loc_E86E
11645:     E878 BD E7E0                        jsr     sub_E7E0
11646:     E87B 86 32                          ldaa    #$32
11647:     E87D B7 649C                        staa    Temp3
11648:                                 
11649:     E880                        loc_E880:
11650:     E880 BD E806                        jsr     sub_E806
11651:     E883 25 47                          bcs     loc_E8CC
11652:     E885 7A 649C                        dec     Temp3
11653:     E888 26 F6                          bne     loc_E880
11654:     E88A 86 FF                          ldaa    #$FF
11655:     E88C B7 1023                        staa    TFLG1_TimerInterruptFlag1
11656:     E88F 86 32                          ldaa    #$32
11657:     E891 B7 649C                        staa    Temp3
11658:                                 
11659:     E894                        loc_E894:
11660:     E894 BD E806                        jsr     sub_E806
11661:     E897 25 33                          bcs     loc_E8CC
11662:     E899 B6 1023                        ldaa    TFLG1_TimerInterruptFlag1
11663:     E89C 85 06                          bita    #$06
11664:     E89E 26 2C                          bne     loc_E8CC
11665:     E8A0 7A 649C                        dec     Temp3
11666:     E8A3 26 EF                          bne     loc_E894
11667:     E8A5 C6 03                          ldab    #$03
11668:                                 
11669:     E8A7                        loc_E8A7:
11670:     E8A7 86 10                          ldaa    #$10
11671:     E8A9 B7 1030                        staa    ADCTL_A2DControlReg
11672:                                 
11673:     E8AC                        loc_E8AC:
11674:     E8AC B6 1030                        ldaa    ADCTL_A2DControlReg
11675:     E8AF 2A FB                          bpl     loc_E8AC
11676:     E8B1 B6 1031                        ldaa    ADR1_A2DResults1
11677:     E8B4 B1 8A67                        cmpa    byte_8A67
11678:     E8B7 24 10                          bcc     loc_E8C9
11679:     E8B9 5A                             decb
11680:     E8BA 26 EB                          bne     loc_E8A7
11681:     E8BC CC 2481                        ldd     #$2481
11682:     E8BF BD D2C9                        jsr     ThrowNonCriticalError
11683:     E8C2 24 05                          bcc     loc_E8C9
11684:     E8C4 14 05 04                       bset    <Ram_05 $04
11685:     E8C7 20 03                          bra     loc_E8CC
11686:                                 
11687:     E8C9                        loc_E8C9:
11688:     E8C9 15 05 04                       bclr    <Ram_05 $04
11689:                                 
11690:     E8CC                        loc_E8CC:
11691:     E8CC BD E92B                        jsr     sub_E92B
11692:     E8CF DD 03                          std     <MinimumTimerCountBeforeMainloopCanContinue
11693:     E8D1 BD E7E0                        jsr     sub_E7E0
11694:     E8D4 CC 0000                        ldd     #$0000
11695:     E8D7 B7 103B                        staa    PPROG_EEPROMControlReg
11696:     E8DA F7 6402                        stab    PIA_Ctrl_1
11697:     E8DD B7 6400                        staa    SwitchPortAccessReg1
11698:     E8E0 C6 07                          ldab    #$07
11699:     E8E2 F7 6440                        stab    PIA3_Buffer_2_t3
11700:     E8E5 B7 6406                        staa    PIA_Ctrl_5
11701:     E8E8 B7 6403                        staa    PIA_Ctrl_2
11702:     E8EB CC 0000                        ldd     #$0000
11703:     E8EE FD 100C                        std     OC1M_OutputCompare1Mask
11704:     E8F1 7F 102D                        clr     SCCR2_SerialControlReg2
11705:     E8F4 CC FFFE                        ldd     #$FFFE
11706:     E8F7 FD 1008                        std     PORTD_PortD
11707:     E8FA CC AAF8                        ldd     #$AAF8
11708:     E8FD B7 1020                        staa    TCTL1_TimerControlReg1
11709:     E900 F7 100B                        stab    CFORC_TimerForceCompare
11710:     E903 BD E7E0                        jsr     sub_E7E0
11711:                                 
11712:     E906                        loc_E906:
11713:     E906 F6 6400                        ldab    SwitchPortAccessReg1
11714:     E909 C5 40                          bitb    #$40
11715:     E90B 27 09                          beq     loc_E916
11716:     E90D BD E7D6                        jsr     sub_E7D6
11717:     E910 7E E906                        jmp     loc_E906
11718:     E913 7E E906                        jmp     loc_E906
11719:                                 
11720:     E916                        loc_E916:
11721:     E916 BD E7D6                        jsr     sub_E7D6
11722:     E919 86 40                          ldaa    #$40
11723:                                 
11724:     E91B                        loc_E91B:
11725:     E91B F6 6400                        ldab    SwitchPortAccessReg1
11726:     E91E C5 40                          bitb    #$40
11727:     E920 26 E4                          bne     loc_E906
11728:     E922 4A                             deca
11729:     E923 26 F6                          bne     loc_E91B
11730:     E925 BD E7D6                        jsr     sub_E7D6
11731:     E928 7E 9470                        jmp     __RESET
11732:                                 
11733:     E92B                        sub_E92B:
11734:     E92B 4F                             clra
11735:     E92C 5F                             clrb
11736:     E92D CE 0005                        ldx     #$0005
11737:                                 
11738:     E930                        loc_E930:
11739:     E930 EB 00                          addb    $00,x
11740:     E932 24 01                          bcc     loc_E935
11741:     E934 4C                             inca
11742:                                 
11743:     E935                        loc_E935:
11744:     E935 08                             inx
11745:     E936 8C 0020                        cpx     #$0020
11746:     E939 25 F5                          bcs     loc_E930
11747:     E93B 39                             rts
11748:                                 
11749:     E93C 86 16                          ldaa    #$16
11750:     E93E 8D 02                          bsr     sub_E942
11751:     E940 86 02                          ldaa    #$02
11752:                                 
11753:     E942                        sub_E942:
11754:     E942 B7 103B                        staa    PPROG_EEPROMControlReg
11755:     E945 E7 00                          stab    $00,x
11756:     E947 4C                             inca
11757:     E948 B7 103B                        staa    PPROG_EEPROMControlReg
11758:     E94B 18CE 1658                      ldy     #$1658
11759:                                 
11760:     E94F                        loc_E94F:
11761:     E94F 1809                           dey
11762:     E951 26 FC                          bne     loc_E94F
11763:     E953 4A                             deca
11764:     E954 B7 103B                        staa    PPROG_EEPROMControlReg
11765:     E957 4F                             clra
11766:     E958 B7 103B                        staa    PPROG_EEPROMControlReg
11767:     E95B 39                             rts
11768:                                 
11769:                                  IF NOEMR == 0
11770:                                 
11771:     E95C                        sub_E95C:
11772:     E95C 12 26 40 03                    brset   <BitFlags6a_t3 $40 loc_E963
11773:     E960 7E E9EC                        jmp     loc_E9EC
11774:                                 
11775:     E963                        loc_E963:
11776:     E963 B6 103B                        ldaa    PPROG_EEPROMControlReg
11777:     E966 27 11                          beq     loc_E979
11778:     E968 15 26 80                       bclr    <BitFlags6a_t3 $80
11779:     E96B 81 17                          cmpa    #$17
11780:     E96D 26 05                          bne     loc_E974
11781:     E96F 14 26 08                       bset    <BitFlags6a_t3 $08
11782:     E972 20 0B                          bra     loc_E97F
11783:                                 
11784:     E974                        loc_E974:
11785:     E974 15 26 08                       bclr    <BitFlags6a_t3 $08
11786:     E977 20 06                          bra     loc_E97F
11787:                                 
11788:     E979                        loc_E979:
11789:     E979 14 26 80                       bset    <BitFlags6a_t3 $80
11790:     E97C 15 26 08                       bclr    <BitFlags6a_t3 $08
11791:                                 
11792:     E97F                        loc_E97F:
11793:     E97F 4F                             clra
11794:     E980 B7 103B                        staa    PPROG_EEPROMControlReg
11795:     E983 B6 6480                        ldaa    CountdownTimerFromKeyOn
11796:     E986 27 09                          beq     loc_E991
11797:     E988 C6 03                          ldab    #$03
11798:     E98A 11                             cba
11799:     E98B 24 04                          bcc     loc_E991
11800:     E98D 17                             tba
11801:     E98E B7 6480                        staa    CountdownTimerFromKeyOn
11802:                                 
11803:     E991                        loc_E991:
11804:     E991 CE B600                        ldx     #MCU_eeprom
11805:     E994 F6 64B0                        ldab    DRBOffsetStored_HB
11806:     E997 3A                             abx
11807:     E998 F6 64B1                        ldab    DRBOffsetStored_LB
11808:     E99B A6 00                          ldaa    $00,x
11809:     E99D 11                             cba
11810:     E99E 27 39                          beq     loc_E9D9
11811:     E9A0 12 26 80 1F                    brset   <BitFlags6a_t3 $80 loc_E9C3
11812:     E9A4 13 26 08 04                    brclr   <BitFlags6a_t3 $08 loc_E9AC
11813:     E9A8 81 FF                          cmpa    #$FF
11814:     E9AA 27 17                          beq     loc_E9C3
11815:                                 
11816:     E9AC                        loc_E9AC:
11817:     E9AC 12 D6 40 29                    brset   <b5D_IPL2_t3 $40 loc_E9D9
11818:     E9B0 3C                             pshx
11819:     E9B1 36                             psha
11820:     E9B2 37                             pshb
11821:     E9B3 CC 318A                        ldd     #$318A
11822:     E9B6 BD D2C9                        jsr     ThrowNonCriticalError
11823:     E9B9 33                             pulb
11824:     E9BA 32                             pula
11825:     E9BB 38                             pulx
11826:     E9BC 24 05                          bcc     loc_E9C3
11827:     E9BE 14 D6 40                       bset    <b5D_IPL2_t3 $40
11828:     E9C1 20 16                          bra     loc_E9D9
11829:                                 
11830:     E9C3                        loc_E9C3:
11831:     E9C3 B4 64B1                        anda    DRBOffsetStored_LB
11832:     E9C6 B1 64B1                        cmpa    DRBOffsetStored_LB
11833:     E9C9 27 04                          beq     loc_E9CF
11834:     E9CB 86 16                          ldaa    #$16
11835:     E9CD 20 02                          bra     loc_E9D1
11836:                                 
11837:     E9CF                        loc_E9CF:
11838:     E9CF 86 02                          ldaa    #$02
11839:                                 
11840:     E9D1                        loc_E9D1:
11841:     E9D1 B7 103B                        staa    PPROG_EEPROMControlReg
11842:     E9D4 E7 00                          stab    $00,x
11843:     E9D6 4C                             inca
11844:     E9D7 20 14                          bra     loc_E9ED
11845:                                 
11846:     E9D9                        loc_E9D9:
11847:     E9D9 15 26 40                       bclr    <BitFlags6a_t3 $40
11848:     E9DC 12 26 20 0C                    brset   <BitFlags6a_t3 $20 loc_E9EC
11849:     E9E0 86 03                          ldaa    #$03
11850:     E9E2 B1 6480                        cmpa    CountdownTimerFromKeyOn
11851:     E9E5 26 05                          bne     loc_E9EC
11852:     E9E7 86 01                          ldaa    #$01
11853:     E9E9 B7 6480                        staa    CountdownTimerFromKeyOn
11854:                                 
11855:     E9EC                        loc_E9EC:
11856:     E9EC 4F                             clra
11857:                                 
11858:     E9ED                        loc_E9ED:
11859:     E9ED B7 103B                        staa    PPROG_EEPROMControlReg
11860:     E9F0 39                             rts
11861:                                 
11862:                                  ENDIF
11863:                                 
11864:     E9F1                        sub_E9F1:
11865:     E9F1 CE B610                        ldx     #MCU_eeprom + $10
11866:                                 
11867:     E9F4                        loc_E9F4:
11868:     E9F4 C6 10                          ldab    #$10
11869:     E9F6 3A                             abx
11870:     E9F7 8C B650                        cpx     #MCU_eeprom + $50
11871:     E9FA 22 09                          bhi     locret_EA05
11872:     E9FC A6 00                          ldaa    $00,x
11873:     E9FE 4C                             inca
11874:     E9FF 27 04                          beq     locret_EA05
11875:     EA01 8D 03                          bsr     sub_EA06
11876:     EA03 20 EF                          bra     loc_E9F4
11877:                                 
11878:     EA05                        locret_EA05:
11879:     EA05 39                             rts
11880:                                 
11881:     EA06                        sub_EA06:
11882:     EA06 86 0E                          ldaa    #$0E
11883:     EA08 B7 103B                        staa    PPROG_EEPROMControlReg
11884:     EA0B E7 00                          stab    $00,x
11885:     EA0D 4C                             inca
11886:     EA0E B7 103B                        staa    PPROG_EEPROMControlReg
11887:     EA11 18CE 1652                      ldy     #$1652
11888:                                 
11889:     EA15                        loc_EA15:
11890:     EA15 1809                           dey
11891:     EA17 26 FC                          bne     loc_EA15
11892:     EA19 4A                             deca
11893:     EA1A B7 103B                        staa    PPROG_EEPROMControlReg
11894:     EA1D 7F 103B                        clr     PPROG_EEPROMControlReg
11895:     EA20 0F                             sei
11896:     EA21 BD E7E0                        jsr     sub_E7E0
11897:     EA24 0E                             cli
11898:     EA25 39                             rts
11899:                                 
11900:     EA26                        IC2I:
11901:     EA26 FC 1012                        ldd     TIC2_Counter_IC2_Speedometer
11902:     EA29 05                             lsld
11903:     EA2A FD 648B                        std     Temp5_t3
11904:     EA2D BD EB0F                        jsr     sub_EB0F
11905:     EA30 27 0F                          beq     loc_EA41
11906:     EA32 03                             fdiv
11907:     EA33 BD EB0F                        jsr     sub_EB0F
11908:     EA36 27 09                          beq     loc_EA41
11909:     EA38 03                             fdiv
11910:     EA39 BD EB0F                        jsr     sub_EB0F
11911:     EA3C 27 03                          beq     loc_EA41
11912:     EA3E 7E EAFC                        jmp     loc_EAFC
11913:                                 
11914:     EA41                        loc_EA41:
11915:     EA41 DC 0E                          ldd     <Counter_SpeedSensorInterrupt_HB
11916:     EA43 C3 0001                        addd    #$01
11917:     EA46 DD 0E                          std     <Counter_SpeedSensorInterrupt_HB
11918:     EA48 26 03                          bne     loc_EA4D
11919:     EA4A 14 20 80                       bset    <IPL1 $80
11920:                                 
11921:     EA4D                        loc_EA4D:
11922:     EA4D 96 FA                          ldaa    <Counter_SpeedSensorInterrupt_HB_X
11923:     EA4F 4C                             inca
11924:     EA50 27 02                          beq     loc_EA54
11925:     EA52 97 FA                          staa    <Counter_SpeedSensorInterrupt_HB_X
11926:                                 
11927:     EA54                        loc_EA54:
11928:     EA54 DC 5D                          ldd     <VehicleSpeed_HB
11929:     EA56 83 0500                        subd    #$0500
11930:     EA59 96 24                          ldaa    <BitFlags24
11931:     EA5B 24 21                          bcc     loc_EA7E
11932:     EA5D 85 10                          bita    #$10
11933:     EA5F 26 04                          bne     loc_EA65
11934:     EA61 8A 10                          oraa    #$10
11935:     EA63 20 20                          bra     loc_EA85
11936:                                 
11937:     EA65                        loc_EA65:
11938:     EA65 84 1F                          anda    #$1F
11939:     EA67 8A 08                          oraa    #$08
11940:     EA69 97 24                          staa    <BitFlags24
11941:     EA6B 4F                             clra
11942:     EA6C B7 6498                        staa    CruiseControlVar4
11943:     EA6F B7 6497                        staa    Counter_SomethingWithDistributor
11944:     EA72 97 3C                          staa    <Counter_TimerRegHalfOverflowBetweenSpeedoPulses
11945:     EA74 DC 5D                          ldd     <VehicleSpeed_HB
11946:     EA76 C3 0053                        addd    #$53
11947:     EA79 DD 5D                          std     <VehicleSpeed_HB
11948:     EA7B 7E EAFC                        jmp     loc_EAFC
11949:                                 
11950:     EA7E                        loc_EA7E:
11951:     EA7E 85 10                          bita    #$10
11952:     EA80 27 03                          beq     loc_EA85
11953:     EA82 7E EB02                        jmp     loc_EB02
11954:                                 
11955:     EA85                        loc_EA85:
11956:     EA85 8B 20                          adda    #$20
11957:     EA87 25 06                          bcs     loc_EA8F
11958:     EA89 84 EF                          anda    #$EF
11959:     EA8B 97 24                          staa    <BitFlags24
11960:     EA8D 20 6D                          bra     loc_EAFC
11961:                                 
11962:     EA8F                        loc_EA8F:
11963:     EA8F 97 24                          staa    <BitFlags24
11964:     EA91 F6 6498                        ldab    CruiseControlVar4
11965:     EA94 27 1F                          beq     loc_EAB5
11966:     EA96 85 08                          bita    #$08
11967:     EA98 26 1B                          bne     loc_EAB5
11968:     EA9A 86 3A                          ldaa    #$3A
11969:     EA9C 3D                             mul
11970:     EA9D 89 00                          adca    #$00
11971:     EA9F 81 03                          cmpa    #$03
11972:     EAA1 24 02                          bcc     loc_EAA5
11973:     EAA3 86 03                          ldaa    #$03
11974:                                 
11975:     EAA5                        loc_EAA5:
11976:     EAA5 16                             tab
11977:     EAA6 B6 6497                        ldaa    Counter_SomethingWithDistributor
11978:     EAA9 B0 6498                        suba    CruiseControlVar4
11979:     EAAC 24 01                          bcc     loc_EAAF
11980:     EAAE 40                             nega
11981:                                 
11982:     EAAF                        loc_EAAF:
11983:     EAAF 10                             sba
11984:     EAB0 25 09                          bcs     loc_EABB
11985:     EAB2 14 24 08                       bset    <BitFlags24 $08
11986:                                 
11987:     EAB5                        loc_EAB5:
11988:     EAB5 F6 6497                        ldab    Counter_SomethingWithDistributor
11989:     EAB8 F7 6498                        stab    CruiseControlVar4
11990:                                 
11991:     EABB                        loc_EABB:
11992:     EABB 4F                             clra
11993:     EABC B7 6497                        staa    Counter_SomethingWithDistributor
11994:     EABF FC 648B                        ldd     Temp5_t3
11995:     EAC2 CE 003C                        ldx     #$003C
11996:     EAC5 18CE 6490                      ldy     #LDXi_6490
11997:     EAC9 BD E703                        jsr     sub_E703
11998:     EACC 96 3C                          ldaa    <Counter_TimerRegHalfOverflowBetweenSpeedoPulses
11999:     EACE 44                             lsra
12000:     EACF 16                             tab
12001:     EAD0 9A 3D                          oraa    <TimerOverflowsBetweenSpeedoPulses
12002:     EAD2 27 09                          beq     loc_EADD
12003:     EAD4 D7 3D                          stab    <TimerOverflowsBetweenSpeedoPulses
12004:     EAD6 FC 648B                        ldd     Temp5_t3
12005:     EAD9 93 40                          subd    <PreviousVehicleSpeed_HB
12006:     EADB 20 15                          bra     loc_EAF2
12007:                                 
12008:     EADD                        loc_EADD:
12009:     EADD FC 648B                        ldd     Temp5_t3
12010:     EAE0 93 40                          subd    <PreviousVehicleSpeed_HB
12011:     EAE2 93 3E                          subd    <SpeedoSensorPulsewidth_HB
12012:     EAE4 27 0E                          beq     loc_EAF4
12013:     EAE6 47                             asra
12014:     EAE7 56                             rorb
12015:     EAE8 47                             asra
12016:     EAE9 56                             rorb
12017:     EAEA 83 0000                        subd    #$00
12018:     EAED 26 01                          bne     loc_EAF0
12019:     EAEF 5C                             incb
12020:                                 
12021:     EAF0                        loc_EAF0:
12022:     EAF0 D3 3E                          addd    <SpeedoSensorPulsewidth_HB
12023:                                 
12024:     EAF2                        loc_EAF2:
12025:     EAF2 DD 3E                          std     <SpeedoSensorPulsewidth_HB
12026:                                 
12027:     EAF4                        loc_EAF4:
12028:     EAF4 FC 648B                        ldd     Temp5_t3
12029:     EAF7 DD 40                          std     <PreviousVehicleSpeed_HB
12030:     EAF9 4F                             clra
12031:     EAFA 97 3C                          staa    <Counter_TimerRegHalfOverflowBetweenSpeedoPulses
12032:                                 
12033:     EAFC                        loc_EAFC:
12034:     EAFC 86 02                          ldaa    #$02
12035:     EAFE B7 1023                        staa    TFLG1_TimerInterruptFlag1
12036:     EB01 3B                             rti
12037:                                 
12038:     EB02                        loc_EB02:
12039:     EB02 84 EF                          anda    #$EF
12040:     EB04 97 24                          staa    <BitFlags24
12041:     EB06 86 01                          ldaa    #$01
12042:     EB08 97 3D                          staa    <TimerOverflowsBetweenSpeedoPulses
12043:     EB0A CC 5F90                        ldd     #$5F90
12044:     EB0D 20 E3                          bra     loc_EAF2
12045:                                 
12046:     EB0F                        sub_EB0F:
12047:     EB0F B6 1021                        ldaa    TCTL2_TimerControlReg2
12048:     EB12 44                             lsra
12049:     EB13 B8 1000                        eora    PORTA_PortA
12050:     EB16 85 02                          bita    #$02
12051:     EB18 39                             rts
12052:                                 
12053:     EB19                        OC1I:
12054:     EB19 8D 01                          bsr     sub_EB1C
12055:     EB1B 3B                             rti
12056:                                 
12057:     EB1C                        sub_EB1C:
12058:     EB1C 86 80                          ldaa    #$80
12059:     EB1E B7 1023                        staa    TFLG1_TimerInterruptFlag1
12060:     EB21 86 10                          ldaa    #$10
12061:     EB23 B7 1030                        staa    ADCTL_A2DControlReg
12062:     EB26 FC 1016                        ldd     TOC1_Counter_OC1
12063:     EB29 C3 01E0                        addd    #$01E0
12064:     EB2C 1AB3 100E                      cpd     TCNT_Counter_FreeRunning16bit
12065:     EB30 2B 11                          bmi     loc_EB43
12066:     EB32 83 0089                        subd    #$0089
12067:     EB35 1AB3 100E                      cpd     TCNT_Counter_FreeRunning16bit
12068:     EB39 2A 03                          bpl     loc_EB3E
12069:     EB3B C3 0089                        addd    #$0089
12070:                                 
12071:     EB3E                        loc_EB3E:
12072:     EB3E C3 0089                        addd    #$0089
12073:     EB41 20 06                          bra     loc_EB49
12074:                                 
12075:     EB43                        loc_EB43:
12076:     EB43 FC 100E                        ldd TCNT_Counter_FreeRunning16bit
12077:     EB46 C3 01E0                        addd    #$01E0
12078:                                 
12079:     EB49                        loc_EB49:
12080:     EB49 FD 1016                        std     TOC1_Counter_OC1
12081:     EB4C B6 1022                        ldaa    TMSK1_TimerInterruptMask1
12082:     EB4F 84 7F                          anda    #$7F
12083:     EB51 B7 1022                        staa    TMSK1_TimerInterruptMask1
12084:     EB54 7C 64A6                        inc     Timer_AlternatorDutyCycle
12085:     EB57 CE 6400                        ldx     #SwitchPortAccessReg1
12086:     EB5A 96 E0                          ldaa    <ATMOffset
12087:     EB5C 81 0D                          cmpa    #$0D
12088:     EB5E 26 03                          bne     loc_EB63
12089:     EB60 7E EBF1                        jmp     loc_EBF1
12090:                                 
12091:     EB63                        loc_EB63:
12092:     EB63 B6 1030                        ldaa    ADCTL_A2DControlReg
12093:     EB66 2A FB                          bpl     loc_EB63
12094:     EB68 BD BCDF                        jsr     sub_BCDF
12095:     EB6B 97 EE                          staa    <BatteryVoltsRaw
12096:     EB6D 0E                             cli
12097:     EB6E 91 5B                          cmpa    <BatteryVolts
12098:     EB70 24 02                          bcc     loc_EB74
12099:     EB72 97 5B                          staa    <BatteryVolts
12100:                                 
12101:     EB74                        loc_EB74:
12102:     EB74 96 46                          ldaa    <EngineRpm_HB
12103:     EB76 81 0C                          cmpa    #$0C
12104:     EB78 25 08                          bcs     loc_EB82
12105:     EB7A 81 10                          cmpa    #$10
12106:     EB7C 24 09                          bcc     loc_EB87
12107:     EB7E 12 24 01 05                    brset   <BitFlags24 $01 loc_EB87
12108:                                 
12109:     EB82                        loc_EB82:
12110:     EB82 15 24 01                       bclr    <BitFlags24 $01
12111:     EB85 20 63                          bra     loc_EBEA
12112:                                 
12113:     EB87                        loc_EB87:
12114:     EB87 14 24 01                       bset    <BitFlags24 $01
12115:     EB8A 96 EE                          ldaa    <BatteryVoltsRaw
12116:     EB8C 81 41                          cmpa    #$41
12117:     EB8E 24 06                          bcc     loc_EB96
12118:     EB90 D6 45                          ldab    <Counter_MainLoop
12119:     EB92 C5 06                          bitb    #$06
12120:     EB94 26 54                          bne     loc_EBEA
12121:                                 
12122:     EB96                        loc_EB96:
12123:     EB96 13 21 10 17                    brclr   <BitFlags21 $10 loc_EBB1
12124:     EB9A 96 EF                          ldaa    <A2DResults2Temp
12125:     EB9C 26 04                          bne     loc_EBA2
12126:     EB9E 96 EE                          ldaa    <BatteryVoltsRaw
12127:     EBA0 97 EF                          staa    <A2DResults2Temp
12128:                                 
12129:     EBA2                        loc_EBA2:
12130:     EBA2 90 EE                          suba    <BatteryVoltsRaw
12131:     EBA4 23 44                          bls     loc_EBEA
12132:     EBA6 B1 8A50                        cmpa    byte_8A50
12133:     EBA9 23 3F                          bls     loc_EBEA
12134:     EBAB 14 21 20                       bset    <BitFlags21 $20
12135:     EBAE 15 21 10                       bclr    <BitFlags21 $10
12136:                                 
12137:     EBB1                        loc_EBB1:
12138:     EBB1 7F 00EF                        clr     A2DResults2Temp
12139:     EBB4 96 EE                          ldaa    <BatteryVoltsRaw
12140:     EBB6 90 64                          suba    <TargetBatteryVolts
12141:     EBB8 26 06                          bne     loc_EBC0
12142:     EBBA 1F 00 04 23                    brclr   $00,x $04 loc_EBE1
12143:     EBBE 20 2A                          bra     loc_EBEA
12144:                                 
12145:     EBC0                        loc_EBC0:
12146:     EBC0 C6 07                          ldab    #$07
12147:     EBC2 24 10                          bcc     loc_EBD4
12148:     EBC4 40                             nega
12149:     EBC5 81 02                          cmpa    #$02
12150:     EBC7 27 04                          beq     loc_EBCD
12151:     EBC9 24 16                          bcc     loc_EBE1
12152:     EBCB C6 03                          ldab    #$03
12153:                                 
12154:     EBCD                        loc_EBCD:
12155:     EBCD F4 64A6                        andb    Timer_AlternatorDutyCycle
12156:     EBD0 27 18                          beq     loc_EBEA
12157:     EBD2 20 0D                          bra     loc_EBE1
12158:                                 
12159:     EBD4                        loc_EBD4:
12160:     EBD4 81 02                          cmpa    #$02
12161:     EBD6 27 04                          beq     loc_EBDC
12162:     EBD8 24 10                          bcc     loc_EBEA
12163:     EBDA C6 03                          ldab    #$03
12164:                                 
12165:     EBDC                        loc_EBDC:
12166:     EBDC F4 64A6                        andb    Timer_AlternatorDutyCycle
12167:     EBDF 26 09                          bne     loc_EBEA
12168:                                 
12169:     EBE1                        loc_EBE1:
12170:     EBE1 0F                             sei
12171:     EBE2 1C 00 04                       bset    $00,x $04
12172:     EBE5 14 24 02                       bset    <BitFlags24 $02
12173:     EBE8 20 07                          bra     loc_EBF1
12174:                                 
12175:     EBEA                        loc_EBEA:
12176:     EBEA 0F                             sei
12177:     EBEB 1D 00 04                       bclr    $00,x $04
12178:     EBEE 15 24 02                       bclr    <BitFlags24 $02
12179:                                 
12180:     EBF1                        loc_EBF1:
12181:     EBF1 1C 02 04                       bset    $02,x $04
12182:     EBF4 86 14                          ldaa    #$14
12183:                                 
12184:     EBF6                        loc_EBF6:
12185:     EBF6 4A                             deca
12186:     EBF7 26 FD                          bne     loc_EBF6
12187:     EBF9 1D 02 04                       bclr    $02,x $04
12188:     EBFC 0E                             cli
12189:     EBFD B6 64A6                        ldaa    Timer_AlternatorDutyCycle
12190:     EC00 44                             lsra
12191:     EC01 25 7C                          bcs     loc_EC7F
12192:     EC03 D6 07                          ldab    <BitFlags36_t3
12193:     EC05 C5 40                          bitb    #$40
12194:     EC07 26 0F                          bne     loc_EC18
12195:     EC09 44                             lsra
12196:     EC0A 25 73                          bcs     loc_EC7F
12197:     EC0C 96 46                          ldaa    <EngineRpm_HB
12198:     EC0E 81 5E                          cmpa    #$5E
12199:     EC10 25 06                          bcs     loc_EC18
12200:     EC12 96 08                          ldaa    <CurrentAisPosition
12201:     EC14 91 69                          cmpa    <DesiredNewAisPosition
12202:     EC16 27 67                          beq     loc_EC7F
12203:                                 
12204:     EC18                        loc_EC18:
12205:     EC18 96 5B                          ldaa    <BatteryVolts
12206:     EC1A B1 86B6                        cmpa    byte_86B6
12207:     EC1D 25 60                          bcs     loc_EC7F
12208:     EC1F 0F                             sei
12209:     EC20 96 CF                          ldaa    <PIA3_Buffer_t3
12210:     EC22 8A 01                          oraa    #$01
12211:     EC24 B7 6440                        staa    PIA3_Buffer_2_t3
12212:     EC27 84 FE                          anda    #$FE
12213:     EC29 97 CF                          staa    <PIA3_Buffer_t3
12214:     EC2B B7 6440                        staa    PIA3_Buffer_2_t3
12215:     EC2E D6 08                          ldab    <CurrentAisPosition
12216:     EC30 13 07 40 0A                    brclr   <BitFlags36_t3 $40 loc_EC3E
12217:     EC34 86 01                          ldaa    #$01
12218:     EC36 5D                             tstb
12219:     EC37 26 0D                          bne     loc_EC46
12220:     EC39 15 07 40                       bclr    <BitFlags36_t3 $40
12221:     EC3C 20 10                          bra     loc_EC4E
12222:                                 
12223:     EC3E                        loc_EC3E:
12224:     EC3E 86 01                          ldaa    #$01
12225:     EC40 D1 69                          cmpb    <DesiredNewAisPosition
12226:     EC42 27 0A                          beq     loc_EC4E
12227:     EC44 25 01                          bcs     loc_EC47
12228:                                 
12229:     EC46                        loc_EC46:
12230:     EC46 40                             nega
12231:                                 
12232:     EC47                        loc_EC47:
12233:     EC47 16                             tab
12234:     EC48 9B 08                          adda    <CurrentAisPosition
12235:     EC4A 97 08                          staa    <CurrentAisPosition
12236:     EC4C 20 01                          bra     loc_EC4F
12237:                                 
12238:     EC4E                        loc_EC4E:
12239:     EC4E 5F                             clrb
12240:                                 
12241:     EC4F                        loc_EC4F:
12242:     EC4F CE E518                        ldx     #unk_E518
12243:     EC52 DB 10                          addb    <BitFlags_36_t3
12244:     EC54 C4 03                          andb    #$03
12245:     EC56 D7 10                          stab    <BitFlags_36_t3
12246:     EC58 3A                             abx
12247:     EC59 E6 00                          ldab    $00,x
12248:     EC5B 17                             tba
12249:     EC5C 53                             comb
12250:     EC5D 58                             aslb
12251:     EC5E 58                             aslb
12252:     EC5F 58                             aslb
12253:     EC60 58                             aslb
12254:     EC61 84 0F                          anda    #$0F
12255:     EC63 1B                             aba
12256:     EC64 CE 1008                        ldx     #PORTD_PortD
12257:     EC67 0F                             sei
12258:     EC68 1D 00 20                       bclr    $00,x $20
12259:     EC6B B1 1029                        cmpa    SPSR_SerialPeripheralStatus
12260:     EC6E B7 102A                        staa    SPDR_SerialPeripheralDataIO
12261:     EC71 96 CF                          ldaa    <PIA3_Buffer_t3
12262:     EC73 8A 01                          oraa    #$01
12263:     EC75 97 CF                          staa    <PIA3_Buffer_t3
12264:     EC77 B7 6440                        staa    PIA3_Buffer_2_t3
12265:     EC7A 3D                             mul
12266:     EC7B 1C 00 20                       bset    $00,x $20
12267:     EC7E 0E                             cli
12268:                                 
12269:     EC7F                        loc_EC7F:
12270:     EC7F 13 DB 80 66                    brclr   <DRBSerialMode $80 loc_ECE9
12271:     EC83 B6 102E                        ldaa    SCSR_SerialStatus
12272:     EC86 85 0E                          bita    #$0E
12273:     EC88 36                             psha
12274:     EC89 32                             pula
12275:     EC8A 27 05                          beq     loc_EC91
12276:     EC8C F6 102F                        ldab    SCDR_SerialData
12277:     EC8F 20 58                          bra     loc_ECE9
12278:                                 
12279:     EC91                        loc_EC91:
12280:     EC91 85 20                          bita    #$20
12281:     EC93 27 54                          beq     loc_ECE9
12282:     EC95 F6 102F                        ldab    SCDR_SerialData
12283:     EC98 C1 F2                          cmpb    #$F2
12284:     EC9A 26 08                          bne     loc_ECA4
12285:                                 
12286:     EC9C                        loc_EC9C:
12287:     EC9C 15 21 40                       bclr    <BitFlags21 $40
12288:     EC9F 15 2F 80                       bclr    <BitFlags2f $80
12289:     ECA2 20 42                          bra     loc_ECE6
12290:                                 
12291:     ECA4                        loc_ECA4:
12292:     ECA4 C1 F4                          cmpb    #$F4
12293:     ECA6 26 08                          bne     loc_ECB0
12294:     ECA8 14 2F 80                       bset    <BitFlags2f $80
12295:     ECAB 15 21 40                       bclr    <BitFlags21 $40
12296:     ECAE 20 36                          bra     loc_ECE6
12297:                                 
12298:     ECB0                        loc_ECB0:
12299:     ECB0 C1 F6                          cmpb    #$F6
12300:     ECB2 26 08                          bne     loc_ECBC
12301:     ECB4 14 21 40                       bset    <BitFlags21 $40
12302:     ECB7 15 2F 80                       bclr    <BitFlags2f $80
12303:     ECBA 20 2A                          bra     loc_ECE6
12304:                                 
12305:     ECBC                        loc_ECBC:
12306:     ECBC C1 FE                          cmpb    #$FE
12307:     ECBE 26 05                          bne     loc_ECC5
12308:     ECC0 15 DB B0                       bclr    <DRBSerialMode $B0
12309:     ECC3 20 D7                          bra     loc_EC9C
12310:                                 
12311:     ECC5                        loc_ECC5:
12312:     ECC5 12 21 40 0C                    brset   <BitFlags21 $40 loc_ECD5
12313:     ECC9 12 2F 80 10                    brset   <BitFlags2f $80 loc_ECDD
12314:     ECCD CE 0000                        ldx     #$0000
12315:     ECD0 3A                             abx
12316:     ECD1 E6 00                          ldab    $00,x
12317:     ECD3 20 11                          bra     loc_ECE6
12318:                                 
12319:     ECD5                        loc_ECD5:
12320:     ECD5 CE 6480                        ldx     #CountdownTimerFromKeyOn
12321:     ECD8 3A                             abx
12322:     ECD9 E6 00                          ldab    $00,x
12323:     ECDB 20 09                          bra     loc_ECE6
12324:                                 
12325:     ECDD                        loc_ECDD:
12326:     ECDD CE ED05                        ldx     #FastDataOutputAddressTable - $02
12327:     ECE0 58                             aslb
12328:     ECE1 3A                             abx
12329:     ECE2 EE 00                          ldx     $00,x
12330:     ECE4 E6 00                          ldab    $00,x
12331:                                 
12332:     ECE6                        loc_ECE6:
12333:     ECE6 F7 102F                        stab    SCDR_SerialData
12334:                                 
12335:     ECE9                        loc_ECE9:
12336:     ECE9 0F                             sei
12337:                                 
12338:     ECEA                        loc_ECEA:
12339:     ECEA B6 1030                        ldaa    ADCTL_A2DControlReg
12340:     ECED 2A FB                          bpl     loc_ECEA
12341:     ECEF B6 1031                        ldaa    ADR1_A2DResults1
12342:     ECF2 91 EA                          cmpa    <MapVolts_X
12343:     ECF4 25 02                          bcs     loc_ECF8
12344:     ECF6 97 EA                          staa    <MapVolts_X
12345:                                 
12346:     ECF8                        loc_ECF8:
12347:     ECF8 91 EB                          cmpa    <MapValue3
12348:     ECFA 24 02                          bcc     loc_ECFE
12349:     ECFC 97 EB                          staa    <MapValue3
12350:                                 
12351:     ECFE                        loc_ECFE:
12352:     ECFE 86 80                          ldaa    #$80
12353:     ED00 BA 1022                        oraa    TMSK1_TimerInterruptMask1
12354:     ED03 B7 1022                        staa    TMSK1_TimerInterruptMask1
12355:     ED06 39                             rts
12356:                                 
12357:     ED07                        FastDataOutputAddressTable:
12358:     ED07 001C                           fdb ErrorBitRegisterStored3
12359:     ED09 0015                           fdb ErrorBitRegister0
12360:     ED0B 001D                           fdb ErrorCodeUpdateKeyOnCount
12361:     ED0D 001E                           fdb ErrorCodeUpdateKeyOnCount2
12362:     ED0F 001F                           fdb ErrorCodeUpdateKeyOnCount3
12363:     ED11 00DC                           fdb ErrorBitsAssociatedWithPIA1AndReg1eTo25_HB
12364:     ED13 00DE                           fdb ClearTheErrorTimer_0
12365:     ED15 00DD                           fdb ErrorBitsAssociatedWithPIA1AndReg1eTo25_LB
12366:     ED17 00DF                           fdb ClearTheErrorTimer_1
12367:     ED19 0046                           fdb EngineRpm_HB
12368:     ED1B 0047                           fdb EngineRpm_LB
12369:     ED1D 005D                           fdb VehicleSpeed_HB
12370:     ED1F 005E                           fdb VehicleSpeed_LB
12371:     ED21 0061                           fdb StartupSwitchMirror1
12372:     ED23 005B                           fdb BatteryVolts
12373:     ED25 64AA                           fdb CoolantVoltsTmp2
12374:     ED27 0067                           fdb AmbientAirTempVolts2
12375:     ED29 005A                           fdb LastTpsVolts
12376:     ED2B 0006                           fdb LowestSessionTpsVolts
12377:     ED2D 0051                           fdb TpsVolts
12378:     ED2F 0059                           fdb LastCoolantTempVolts
12379:     ED31 0054                           fdb CoolantTemp
12380:     ED33 64A9                           fdb MapValue_t3
12381:     ED35 0050                           fdb MapValue
12382:     ED37 000D                           fdb BaroPressure
12383:     ED39 004F                           fdb MapVolts
12384:     ED3B 0053                           fdb O2SensorVolts
12385:     ED3D FF FF                          fcb $FF, $FF
12386:     ED3F 0058                           fdb LastChargeTempVolts
12387:     ED41 0052                           fdb ChargeTempVolts
12388:     ED43 FF FF                          fcb $FF, $FF
12389:     ED45 FF FF                          fcb $FF, $FF
12390:     ED47 FF FF                          fcb $FF, $FF
12391:     ED49 FF FF                          fcb $FF, $FF
12392:     ED4B FF FF                          fcb $FF, $FF
12393:     ED4D FF FF                          fcb $FF, $FF
12394:     ED4F FF FF                          fcb $FF, $FF
12395:     ED51 FF FF                          fcb $FF, $FF
12396:     ED53 006F                           fdb InjectorPulsewidth_HB
12397:     ED55 0070                           fdb InjectorPulsewidth_LB
12398:     ED57 006F                           fdb InjectorPulsewidth_HB
12399:     ED59 0070                           fdb InjectorPulsewidth_LB
12400:     ED5B 000B                           fdb Ram_0B
12401:     ED5D FF FF                          fcb $FF, $FF
12402:     ED5F 000A                           fdb ValueFromAdaptiveMemory
12403:     ED61 FF FF                          fcb $FF, $FF
12404:     ED63 004A                           fdb AdvanceTemporary
12405:     ED65 FF FF                          fcb $FF, $FF
12406:     ED67 FF FF                          fcb $FF, $FF
12407:     ED69 FF FF                          fcb $FF, $FF
12408:     ED6B FF FF                          fcb $FF, $FF
12409:     ED6D FF FF                          fcb $FF, $FF
12410:     ED6F 006D                           fdb TargetIdleSpeedHB
12411:     ED71 006E                           fdb TargetIdleSpeedLB
12412:     ED73 0069                           fdb DesiredNewAisPosition
12413:     ED75 FF FF                          fcb $FF, $FF
12414:     ED77 FF FF                          fcb $FF, $FF
12415:     ED79 0064                           fdb TargetBatteryVolts
12416:     ED7B 00C4                           fdb CruiseSpeedSetpoint
12417:     ED7D 00CD                           fdb PIA1_Buffer_t3
12418:     ED7F 00CE                           fdb PIA2_Buffer_t3
12419:     ED81 0008                           fdb CurrentAisPosition
12420:     ED83 0033                           fdb Counter_Cruise_1
12421:     ED85 00E1                           fdb CCDFlags5
12422:     ED87 003A                           fdb BitFlags_BF_t3
12423:     ED89 0029                           fdb BitFlags29
12424:                                 
12425:     ED8B                        sub_ED8B:
12426:     ED8B CC 8EFF                        ldd     #$8EFF
12427:     ED8E F7 1023                        stab    TFLG1_TimerInterruptFlag1
12428:     ED91 B7 1022                        staa    TMSK1_TimerInterruptMask1
12429:     ED94 F7 1025                        stab    TFLG2_TimerInterruptFlag2
12430:     ED97 7F 1027                        clr     PACNT_PulseAccumulatorCounter
12431:                                 
12432:     ED9A                        sub_ED9A:
12433:     ED9A C6 01                          ldab    #$01
12434:     ED9C B6 6401                        ldaa    SwitchPortAccessReg2
12435:     ED9F 85 01                          bita    #$01
12436:     EDA1 27 02                          beq     loc_EDA5
12437:     EDA3 C6 00                          ldab    #$00
12438:                                 
12439:     EDA5                        loc_EDA5:
12440:     EDA5 F7 6403                        stab    PIA_Ctrl_2
12441:     EDA8 84 01                          anda    #$01
12442:     EDAA B8 6401                        eora    SwitchPortAccessReg2
12443:     EDAD 85 01                          bita    #$01
12444:     EDAF 27 0E                          beq     loc_EDBF
12445:     EDB1 B6 6401                        ldaa    SwitchPortAccessReg2
12446:     EDB4 C6 01                          ldab    #$01
12447:     EDB6 85 01                          bita    #$01
12448:     EDB8 27 02                          beq     loc_EDBC
12449:     EDBA C6 00                          ldab    #$00
12450:                                 
12451:     EDBC                        loc_EDBC:
12452:     EDBC F7 6403                        stab    PIA_Ctrl_2
12453:                                 
12454:     EDBF                        loc_EDBF:
12455:     EDBF CC 01FB                        ldd     #$01FB
12456:     EDC2 F7 6405                        stab    PIA_Ctrl_4
12457:     EDC5 B7 6404                        staa    PIA_Ctrl_3
12458:     EDC8 39                             rts
12459:                                 
12460:     EDC9                        sub_EDC9:
12461:     EDC9 CE 1000                        ldx     #PORTA_PortA
12462:     EDCC 1E 09 3A 03                    brset   $09,x $3A loc_EDD3
12463:     EDD0 1C 09 3A                       bset    $09,x $3A
12464:                                 
12465:     EDD3                        loc_EDD3:
12466:     EDD3 1F 09 05 03                    brclr   $09,x $05 loc_EDDA
12467:     EDD7 1D 09 05                       bclr    $09,x $05
12468:                                 
12469:     EDDA                        loc_EDDA:
12470:     EDDA 1F 0C F8 03                    brclr   $0C,x $F8 loc_EDE1
12471:     EDDE 1D 0C FF                       bclr    $0C,x $FF
12472:                                 
12473:     EDE1                        loc_EDE1:
12474:     EDE1 1F 0D F8 03                    brclr   $0D,x $F8 loc_EDE8
12475:     EDE5 1D 0D FF                       bclr    $0D,x $FF
12476:                                 
12477:     EDE8                        loc_EDE8:
12478:     EDE8 1E 20 A2 03                    brset   $20,x $A2 loc_EDEF
12479:     EDEC 1C 20 A2                       bset    $20,x $A2
12480:                                 
12481:     EDEF                        loc_EDEF:
12482:     EDEF 1F 20 0C 03                    brclr   $20,x $0C loc_EDF6
12483:     EDF3 1D 20 0C                       bclr    $20,x $0C
12484:                                 
12485:     EDF6                        loc_EDF6:
12486:     EDF6 1E 21 1A 03                    brset   $21,x $1A loc_EDFD
12487:     EDFA 1C 21 1A                       bset    $21,x $1A
12488:                                 
12489:     EDFD                        loc_EDFD:
12490:     EDFD 1F 21 25 03                    brclr   $21,x $25 loc_EE04
12491:     EE01 1D 21 25                       bclr    $21,x $25
12492:                                 
12493:     EE04                        loc_EE04:
12494:     EE04 1E 22 8E 03                    brset   $22,x $8E loc_EE0B
12495:     EE08 1C 22 8E                       bset    $22,x $8E
12496:                                 
12497:     EE0B                        loc_EE0B:
12498:     EE0B 1F 22 61 03                    brclr   $22,x $61 loc_EE12
12499:     EE0F 1D 22 61                       bclr    $22,x $61
12500:                                 
12501:     EE12                        loc_EE12:
12502:     EE12 1F 24 F0 03                    brclr   $24,x $F0 loc_EE19
12503:     EE16 1D 24 F0                       bclr    $24,x $F0
12504:                                 
12505:     EE19                        loc_EE19:
12506:     EE19 1E 26 70 03                    brset   $26,x $70 loc_EE20
12507:     EE1D 1C 26 70                       bset    $26,x $70
12508:                                 
12509:     EE20                        loc_EE20:
12510:     EE20 1F 26 80 03                    brclr   $26,x $80 loc_EE27
12511:     EE24 1D 26 80                       bclr    $26,x $80
12512:                                 
12513:     EE27                        loc_EE27:
12514:     EE27 1E 28 54 03                    brset   $28,x $54 loc_EE2E
12515:     EE2B 1C 28 54                       bset    $28,x $54
12516:                                 
12517:     EE2E                        loc_EE2E:
12518:     EE2E 1F 28 AB 03                    brclr   $28,x $AB loc_EE35
12519:     EE32 1D 28 AB                       bclr    $28,x $AB
12520:                                 
12521:     EE35                        loc_EE35:
12522:     EE35 1F 2C 18 03                    brclr   $2C,x $18 loc_EE3C
12523:     EE39 1D 2C 18                       bclr    $2C,x $18
12524:                                 
12525:     EE3C                        loc_EE3C:
12526:     EE3C 1E 2D 0C 03                    brset   $2D,x $0C loc_EE43
12527:     EE40 1C 2D 0C                       bset    $2D,x $0C
12528:                                 
12529:     EE43                        loc_EE43:
12530:     EE43 1F 2D F3 03                    brclr   $2D,x $F3 loc_EE4A
12531:     EE47 1D 2D F3                       bclr    $2D,x $F3
12532:                                 
12533:     EE4A                        loc_EE4A:
12534:     EE4A 1E 39 88 03                    brset   $39,x $88 loc_EE51
12535:     EE4E 1C 39 88                       bset    $39,x $88
12536:                                 
12537:     EE51                        loc_EE51:
12538:     EE51 1F 39 40 03                    brclr   $39,x $40 loc_EE58
12539:     EE55 1D 39 40                       bclr    $39,x $40
12540:                                 
12541:     EE58                        loc_EE58:
12542:     EE58 1E 3C 0F 05                    brset   $3C,x $0F loc_EE61
12543:     EE5C 0F                             sei
12544:     EE5D 1C 3C 0F                       bset    $3C,x $0F
12545:     EE60 0E                             cli
12546:                                 
12547:     EE61                        loc_EE61:
12548:     EE61 CE 6400                        ldx     #SwitchPortAccessReg1
12549:     EE64 0F                             sei
12550:     EE65 B6 8000                        ldaa    TL_IDENT1
12551:     EE68 81 11                          cmpa    #$11
12552:     EE6A 27 10                          beq     loc_EE7C
12553:     EE6C 1F 02 70 03                    brclr   $02,x $70 loc_EE73
12554:     EE70 1D 02 70                       bclr    $02,x $70
12555:                                 
12556:     EE73                        loc_EE73:
12557:     EE73 1E 02 83 13                    brset   $02,x $83 loc_EE8A
12558:     EE77 1C 02 83                       bset    $02,x $83
12559:     EE7A 20 0E                          bra     loc_EE8A
12560:                                 
12561:                                 
12562:     EE7C                        loc_EE7C:
12563:     EE7C 1F 02 F0 03                    brclr   $02,x $F0 loc_EE83
12564:     EE80 1D 02 F0                       bclr    $02,x $F0
12565:                                 
12566:     EE83                        loc_EE83:
12567:     EE83 1E 02 03 03                    brset   $02,x $03 loc_EE8A
12568:     EE87 1C 02 03                       bset    $02,x $03
12569:                                 
12570:     EE8A                        loc_EE8A:
12571:                                 
12572:     EE8A 0E                             cli
12573:     EE8B 1F 03 FE 03                    brclr   $03,x $FE loc_EE92
12574:     EE8F 1D 03 FE                       bclr    $03,x $FE
12575:                                 
12576:     EE92                        loc_EE92:
12577:     EE92 1F 04 FE 03                    brclr   $04,x $FE loc_EE99
12578:     EE96 1D 04 FE                       bclr    $04,x $FE
12579:                                 
12580:     EE99                        loc_EE99:
12581:     EE99 1E 06 F8 03                    brset   $06,x $F8 loc_EEA0
12582:     EE9D 1C 06 F8                       bset    $06,x $F8
12583:                                 
12584:     EEA0                        loc_EEA0:
12585:     EEA0 1F 06 06 03                    brclr   $06,x $06 locret_EEA7
12586:     EEA4 1D 06 06                       bclr    $06,x $06
12587:                                 
12588:     EEA7                        locret_EEA7:
12589:     EEA7 39                             rts
12590:                                 
12591:     EEA8                        off_EEA8:
12592:     EEA8 4614                           fdb $4614
12593:     EEAA 3D15                           fdb $3D15
12594:     EEAC 4513                           fdb $4513
12595:                                 
12596:     EEAE                        off_EEAE:
12597:     EEAE 3D14                           fdb $3D14
12598:     EEB0 1513                           fdb $1513
12599:                                 
12600:     EEB2                        sub_EEB2:
12601:     EEB2 96 46                          ldaa    <EngineRpm_HB
12602:     EEB4 81 5E                          cmpa    #$5E
12603:     EEB6 24 6E                          bcc     loc_EF26
12604:     EEB8 96 5B                          ldaa    <BatteryVolts
12605:     EEBA 81 C3                          cmpa    #$C3
12606:     EEBC 25 68                          bcs     loc_EF26
12607:     EEBE B6 6400                        ldaa    SwitchPortAccessReg1
12608:     EEC1 85 10                          bita    #$10
12609:     EEC3 27 61                          beq     loc_EF26
12610:                                 
12611:     EEC5                        loc_EEC5:
12612:     EEC5 12 CE 10 5D                    brset   <PIA2_Buffer_t3 $10 loc_EF26
12613:     EEC9 85 40                          bita    #$40
12614:     EECB 26 59                          bne     loc_EF26
12615:     EECD 12 D7 20 55                    brset   <b5d_IPL2 $20 loc_EF26
12616:     EED1 0F                             sei
12617:     EED2 B6 6401                        ldaa    SwitchPortAccessReg2
12618:     EED5 84 F0                          anda    #$F0
12619:     EED7 26 50                          bne     loc_EF29
12620:     EED9 12 27 80 07                    brset   <BitFlags27 $80 loc_EEE4
12621:     EEDD B6 1000                        ldaa    PORTA_PortA
12622:     EEE0 85 60                          bita    #$60
12623:     EEE2 26 45                          bne     loc_EF29
12624:                                 
12625:     EEE4                        loc_EEE4:
12626:     EEE4 13 21 80 41                    brclr   <BitFlags21 $80 loc_EF29
12627:     EEE8 C6 07                          ldab    #$07
12628:                                 
12629:     EEEA                        loc_EEEA:
12630:     EEEA 5A                             decb
12631:     EEEB 26 FD                          bne     loc_EEEA
12632:     EEED B6 6405                        ldaa    PIA_Ctrl_4
12633:     EEF0 85 04                          bita    #$04
12634:     EEF2 26 2D                          bne     loc_EF21
12635:     EEF4 96 3A                          ldaa    <BitFlags_BF_t3
12636:     EEF6 D6 3B                          ldab    <CylinderPointer
12637:     EEF8 0E                             cli
12638:     EEF9 CE EEAE                        ldx     #off_EEAE
12639:     EEFC 12 27 80 03                    brset   <BitFlags27 $80 loc_EF03
12640:     EF00 CE EEA8                        ldx     #off_EEA8
12641:                                 
12642:     EF03                        loc_EF03:
12643:     EF03 81 84                          cmpa    #$84
12644:     EF05 26 0B                          bne     loc_EF12
12645:     EF07 5A                             decb
12646:     EF08 2A 08                          bpl     loc_EF12
12647:     EF0A C6 03                          ldab    #$03
12648:     EF0C 12 27 80 02                    brset   <BitFlags27 $80 loc_EF12
12649:     EF10 C6 05                          ldab    #$05
12650:                                 
12651:     EF12                        loc_EF12:
12652:     EF12 C4 07                          andb    #$07
12653:     EF14 3A                             abx
12654:     EF15 A6 00                          ldaa    $00,x
12655:     EF17 C6 90                          ldab    #$90
12656:     EF19 BD D2C9                        jsr     ThrowNonCriticalError
12657:     EF1C 24 03                          bcc     loc_EF21
12658:     EF1E 14 D7 20                       bset    <b5d_IPL2 $20
12659:                                 
12660:     EF21                        loc_EF21:
12661:     EF21 C6 04                          ldab    #$04
12662:     EF23 F7 6405                        stab    PIA_Ctrl_4
12663:                                 
12664:     EF26                        loc_EF26:
12665:     EF26 15 21 80                       bclr    <BitFlags21 $80
12666:                                 
12667:     EF29                        loc_EF29:
12668:     EF29 0E                             cli
12669:     EF2A 39                             rts
12670:                                 
12671:     EF2B                        CrankPickupIntrAddressTable:
12672:     EF2B EFCE                           fdb CrankInterrupt_FallingEdge
12673:     EF2D F2CC                           fdb CrankInterrupt_HandleCamSensorRisingEdgeA
12674:     EF2F F3EF                           fdb CrankInterrupt_HandleCamSensorRisingEdgeB
12675:     EF31 F530                           fdb CrankInterrupt_CalculateFuel
12676:                                 
12677:     EF33                        loc_EF33:
12678:     EF33 CC 0510                        ldd     #$0510
12679:     EF36 B7 1023                        staa    TFLG1_TimerInterruptFlag1
12680:     EF39 F7 1030                        stab    ADCTL_A2DControlReg
12681:     EF3C DE 46                          ldx     <EngineRpm_HB
12682:     EF3E 8C BB80                        cpx     #$BB80
12683:     EF41 24 20                          bcc     loc_EF63
12684:     EF43 FE 1010                        ldx     TIC1_Counter_IC1_CamSensor
12685:     EF46 C6 0C                          ldab    #$0C
12686:     EF48 3A                             abx
12687:     EF49 86 04                          ldaa    #$04
12688:                                 
12689:     EF4B                        loc_EF4B:
12690:     EF4B B5 1000                        bita    PORTA_PortA
12691:     EF4E 27 10                          beq     loc_EF60
12692:     EF50 BC 100E                        cpx     TCNT_Counter_FreeRunning16bit
12693:     EF53 2A F6                          bpl     loc_EF4B
12694:     EF55 CC 0510                        ldd     #$0510
12695:     EF58 B7 1023                        staa    TFLG1_TimerInterruptFlag1
12696:     EF5B F7 1030                        stab    ADCTL_A2DControlReg
12697:     EF5E 20 03                          bra     loc_EF63
12698:                                 
12699:     EF60                        loc_EF60:
12700:     EF60 7E F723                        jmp     loc_F723
12701:                                 
12702:     EF63                        loc_EF63:
12703:     EF63 13 EC 40 0E                    brclr   <Ram_EC $40 loc_EF75
12704:     EF67 B6 6401                        ldaa    SwitchPortAccessReg2
12705:     EF6A 85 80                          bita    #$80
12706:     EF6C 26 07                          bne     loc_EF75
12707:     EF6E 12 EC 0F 03                    brset   <Ram_EC $0F loc_EF75
12708:     EF72 7C 00EC                        inc     Ram_EC
12709:                                 
12710:     EF75                        loc_EF75:
12711:     EF75 F6 6480                        ldab    CountdownTimerFromKeyOn
12712:     EF78 26 03                          bne     loc_EF7D
12713:     EF7A 15 05 01                       bclr    <Ram_05 $01
12714:                                 
12715:     EF7D                        loc_EF7D:
12716:     EF7D 7F 00E0                        clr     ATMOffset
12717:     EF80 96 D8                          ldaa    <DRBPointer1
12718:     EF82 81 0A                          cmpa    #$0A
12719:     EF84 26 06                          bne     loc_EF8C
12720:     EF86 7F 00D8                        clr     DRBPointer1
12721:     EF89 15 DB 30                       bclr    <DRBSerialMode $30
12722:                                 
12723:     EF8C                        loc_EF8C:
12724:     EF8C D6 3A                          ldab    <BitFlags_BF_t3
12725:     EF8E 2A 27                          bpl     loc_EFB7
12726:     EF90 96 F4                          ldaa    <Ram_F4
12727:     EF92 4C                             inca
12728:     EF93 27 0B                          beq     loc_EFA0
12729:     EF95 81 FF                          cmpa    #$FF
12730:     EF97 26 05                          bne     loc_EF9E
12731:     EF99 C6 01                          ldab    #$01
12732:     EF9B F7 6405                        stab    PIA_Ctrl_4
12733:                                 
12734:     EF9E                        loc_EF9E:
12735:     EF9E 97 F4                          staa    <Ram_F4
12736:                                 
12737:     EFA0                        loc_EFA0:
12738:     EFA0 D6 3A                          ldab    <BitFlags_BF_t3
12739:     EFA2 C5 04                          bitb    #$04
12740:     EFA4 27 02                          beq     loc_EFA8
12741:     EFA6 C4 F8                          andb    #$F8
12742:                                 
12743:     EFA8                        loc_EFA8:
12744:     EFA8 5C                             incb
12745:     EFA9 D7 3A                          stab    <BitFlags_BF_t3
12746:     EFAB C4 07                          andb    #$07
12747:     EFAD 5A                             decb
12748:     EFAE 58                             aslb
12749:     EFAF CE EF2B                        ldx     #CrankPickupIntrAddressTable
12750:     EFB2 3A                             abx
12751:     EFB3 EE 00                          ldx     $00,x
12752:     EFB5 6E 00                          jmp     $00,x
12753:                                 
12754:     EFB7                        loc_EFB7:
12755:     EFB7 B6 64B9                        ldaa    UNe_64B9
12756:     EFBA 16                             tab
12757:     EFBB 84 E0                          anda    #$E0
12758:     EFBD C4 1F                          andb    #$1F
12759:     EFBF C1 1F                          cmpb    #$1F
12760:     EFC1 27 01                          beq     loc_EFC4
12761:     EFC3 5C                             incb
12762:                                 
12763:     EFC4                        loc_EFC4:
12764:     EFC4 1B                             aba
12765:     EFC5 B7 64B9                        staa    UNe_64B9
12766:     EFC8 BD ED9A                        jsr     sub_ED9A
12767:     EFCB 7E F723                        jmp     loc_F723
12768:                                 
12769:     EFCE                        CrankInterrupt_FallingEdge:
12770:     EFCE 12 CF 40 11                    brset   <PIA3_Buffer_t3 $40 loc_EFE3
12771:     EFD2 BD F750                        jsr     sub_F750
12772:     EFD5 CC FFFF                        ldd     #$FFFF
12773:     EFD8 F3 100E                        addd    TCNT_Counter_FreeRunning16bit
12774:     EFDB FD 101C                        std     TOC4_Counter_OC4
12775:     EFDE 86 10                          ldaa    #$10
12776:     EFE0 B7 1023                        staa    TFLG1_TimerInterruptFlag1
12777:                                 
12778:     EFE3                        loc_EFE3:
12779:     EFE3 12 27 80 14                    brset   <BitFlags27 $80 loc_EFFB
12780:     EFE7 13 27 40 24                    brclr   <BitFlags27 $40 loc_F00F
12781:     EFEB 96 3B                          ldaa    <CylinderPointer
12782:     EFED 27 20                          beq     loc_F00F
12783:     EFEF 81 03                          cmpa    #$03
12784:     EFF1 27 1C                          beq     loc_F00F
12785:     EFF3 81 01                          cmpa    #$01
12786:     EFF5 27 0F                          beq     loc_F006
12787:     EFF7 81 04                          cmpa    #$04
12788:     EFF9 27 0B                          beq     loc_F006
12789:                                 
12790:     EFFB                        loc_EFFB:
12791:     EFFB 96 CF                          ldaa    <PIA3_Buffer_t3
12792:     EFFD 84 FD                          anda    #$FD
12793:     EFFF 97 CF                          staa    <PIA3_Buffer_t3
12794:     F001 B7 6440                        staa    PIA3_Buffer_2_t3
12795:     F004 20 09                          bra     loc_F00F
12796:                                 
12797:     F006                        loc_F006:
12798:     F006 96 CF                          ldaa    <PIA3_Buffer_t3
12799:     F008 8A 02                          oraa    #$02
12800:     F00A 97 CF                          staa    <PIA3_Buffer_t3
12801:     F00C B7 6440                        staa    PIA3_Buffer_2_t3
12802:                                 
12803:     F00F                        loc_F00F:
12804:     F00F FC 1010                        ldd     TIC1_Counter_IC1_CamSensor
12805:     F012 CE 0034                        ldx     #Counter_TimerPastHalfwayBetweenCamPulses
12806:     F015 18CE 6490                      ldy     #LDXi_6490
12807:     F019 BD E703                        jsr     sub_E703
12808:     F01C 96 34                          ldaa    <Counter_TimerPastHalfwayBetweenCamPulses
12809:     F01E 44                             lsra
12810:     F01F 97 35                          staa    <TimerOverflowsBetweenCamPulses
12811:     F021 FC 1010                        ldd     TIC1_Counter_IC1_CamSensor
12812:     F024 93 38                          subd    <LastCamFallingEdgeTime
12813:     F026 DD 36                          std     <DistributorFallingEdgePulsewidth_HB
12814:     F028 FC 1010                        ldd     TIC1_Counter_IC1_CamSensor
12815:     F02B DD 38                          std     <LastCamFallingEdgeTime
12816:     F02D 7F 0034                        clr     Counter_TimerPastHalfwayBetweenCamPulses
12817:     F030 B6 64A5                        ldaa    CalculatedDwellTime
12818:     F033 5F                             clrb
12819:     F034 04                             lsrd
12820:     F035 04                             lsrd
12821:     F036 04                             lsrd
12822:     F037 FD 6495                        std     AntiDwellTime_HB
12823:     F03A DC 36                          ldd     <DistributorFallingEdgePulsewidth_HB
12824:     F03C 83 00C8                        subd    #$C8
12825:     F03F 1AB3 6495                      cpd     AntiDwellTime_HB
12826:     F043 25 03                          bcs     loc_F048
12827:     F045 FC 6495                        ldd     AntiDwellTime_HB
12828:                                 
12829:     F048                        loc_F048:
12830:     F048 FD 6495                        std     AntiDwellTime_HB
12831:     F04B 96 35                          ldaa    <TimerOverflowsBetweenCamPulses
12832:     F04D 26 3E                          bne     loc_F08D
12833:     F04F CE 6400                        ldx     #SwitchPortAccessReg1
12834:     F052 FC 82B1                        ldd     word_82B1
12835:     F055 1A93 36                        cpd     <DistributorFallingEdgePulsewidth_HB
12836:     F058 25 33                          bcs     loc_F08D
12837:     F05A 12 20 40 3E                    brset   <IPL1 $40 loc_F09C
12838:     F05E 13 23 80 08                    brclr   <BitFlags23 $80 loc_F06A
12839:     F062 1E 00 20 04                    brset   $00,x $20 loc_F06A
12840:     F066 96 7F                          ldaa    <Ram_7F
12841:     F068 27 08                          beq     loc_F072
12842:                                 
12843:     F06A                        loc_F06A:
12844:     F06A FC 82AF                        ldd     word_82AF
12845:     F06D 1A93 36                        cpd     <DistributorFallingEdgePulsewidth_HB
12846:     F070 25 1B                          bcs     loc_F08D
12847:                                 
12848:     F072                        loc_F072:
12849:     F072 14 20 40                       bset    <IPL1 $40
12850:     F075 CC 0000                        ldd     #$0000
12851:     F078 DD 44                          std     <KeyOnOrEngineRunningTime
12852:     F07A 97 E0                          staa    <ATMOffset
12853:     F07C 14 80 FF                       bset    <Ram_80 $FF
12854:     F07F BD C49A                        jsr     sub_C49A
12855:     F082 BD C4CE                        jsr     sub_C4CE
12856:     F085 BD C674                        jsr     sub_C674
12857:     F088 BD C726                        jsr     sub_C726
12858:     F08B 20 0F                          bra     loc_F09C
12859:                                 
12860:                                 
12861:     F08D                        loc_F08D:
12862:     F08D 13 20 40 03                    brclr   <IPL1 $40 loc_F094
12863:     F091 7F 00FD                        clr     CounterUp_UsedInCalcFuel
12864:                                 
12865:     F094                        loc_F094:
12866:     F094 15 20 40                       bclr    <IPL1 $40
12867:     F097 B6 8654                        ldaa    byte_8654
12868:     F09A 97 7A                          staa    <Counter_C
12869:                                 
12870:     F09C                        loc_F09C:
12871:     F09C 96 35                          ldaa    <TimerOverflowsBetweenCamPulses
12872:     F09E 26 3B                          bne     loc_F0DB
12873:     F0A0 CE 6400                        ldx     #SwitchPortAccessReg1
12874:     F0A3 FC 807C                        ldd     word_807C
12875:     F0A6 1A93 36                        cpd     <DistributorFallingEdgePulsewidth_HB
12876:     F0A9 25 30                          bcs     loc_F0DB
12877:     F0AB 12 20 01 4F                    brset   <IPL1 $01 loc_F0FE
12878:     F0AF 13 23 80 08                    brclr   <BitFlags23 $80 loc_F0BB
12879:     F0B3 1E 00 20 04                    brset   $00,x $20 loc_F0BB
12880:     F0B7 96 7F                          ldaa    <Ram_7F
12881:     F0B9 27 08                          beq     loc_F0C3
12882:                                 
12883:     F0BB                        loc_F0BB:
12884:     F0BB FC 807A                        ldd     word_807A
12885:     F0BE 1A93 36                        cpd     <DistributorFallingEdgePulsewidth_HB
12886:     F0C1 25 18                          bcs     loc_F0DB
12887:                                 
12888:     F0C3                        loc_F0C3:
12889:     F0C3 B6 1022                        ldaa    TMSK1_TimerInterruptMask1
12890:     F0C6 8A 10                          oraa    #$10
12891:     F0C8 B7 1022                        staa    TMSK1_TimerInterruptMask1
12892:     F0CB CC FFFF                        ldd     #$FFFF
12893:     F0CE F3 100E                        addd    TCNT_Counter_FreeRunning16bit
12894:     F0D1 FD 101C                        std     TOC4_Counter_OC4
12895:     F0D4 86 10                          ldaa    #$10
12896:     F0D6 B7 1023                        staa    TFLG1_TimerInterruptFlag1
12897:     F0D9 20 23                          bra     loc_F0FE
12898:                                 
12899:     F0DB                        loc_F0DB:
12900:     F0DB 15 20 01                       bclr    <IPL1 $01
12901:     F0DE 14 2D 80                       bset    <BitFlags2d $80
12902:     F0E1 86 08                          ldaa    #$08
12903:     F0E3 97 4D                          staa    <Ram_4D
12904:     F0E5 97 4E                          staa    <CalculatedSparkAdvance
12905:     F0E7 B6 1022                        ldaa    TMSK1_TimerInterruptMask1
12906:     F0EA 84 EF                          anda    #$EF
12907:     F0EC B7 1022                        staa    TMSK1_TimerInterruptMask1
12908:     F0EF 96 CF                          ldaa    <PIA3_Buffer_t3
12909:     F0F1 8A 40                          oraa    #$40
12910:     F0F3 97 CF                          staa    <PIA3_Buffer_t3
12911:     F0F5 B7 6440                        staa    PIA3_Buffer_2_t3
12912:     F0F8 14 20 02                       bset    <IPL1 $02
12913:     F0FB 7E F1E0                        jmp     loc_F1E0
12914:                                 
12915:     F0FE                        loc_F0FE:
12916:     F0FE 13 2D 80 0B                    brclr   <BitFlags2d $80 loc_F10D
12917:     F102 96 4D                          ldaa    <Ram_4D
12918:     F104 BB 807F                        adda    byte_807F
12919:     F107 2A 02                          bpl     loc_F10B
12920:     F109 86 7F                          ldaa    #$7F
12921:                                 
12922:     F10B                        loc_F10B:
12923:     F10B 97 4D                          staa    <Ram_4D
12924:                                 
12925:     F10D                        loc_F10D:
12926:     F10D 12 27 80 37                    brset   <BitFlags27 $80 loc_F148
12927:     F111 13 20 01 0F                    brclr   <IPL1 $01 loc_F124
12928:     F115 D6 46                          ldab    <EngineRpm_HB
12929:     F117 C1 1F                          cmpb    #$1F
12930:     F119 25 09                          bcs     loc_F124
12931:     F11B 96 4E                          ldaa    <CalculatedSparkAdvance
12932:     F11D 81 50                          cmpa    #$50
12933:     F11F 25 03                          bcs     loc_F124
12934:     F121 7E F1E0                        jmp     loc_F1E0
12935:                                 
12936:     F124                        loc_F124:
12937:     F124 96 4A                          ldaa    <AdvanceTemporary
12938:     F126 13 2D 80 0B                    brclr   <BitFlags2d $80 loc_F135
12939:     F12A 91 4D                          cmpa    <Ram_4D
12940:     F12C 23 04                          bls     loc_F132
12941:     F12E 96 4D                          ldaa    <Ram_4D
12942:     F130 20 03                          bra     loc_F135
12943:                                 
12944:     F132                        loc_F132:
12945:     F132 15 2D 80                       bclr    <BitFlags2d $80
12946:                                 
12947:     F135                        loc_F135:
12948:     F135 97 4E                          staa    <CalculatedSparkAdvance
12949:     F137 14 20 01                       bset    <IPL1 $01
12950:     F13A 86 80                          ldaa    #$80
12951:     F13C 90 4E                          suba    <CalculatedSparkAdvance
12952:     F13E 36                             psha
12953:     F13F C6 11                          ldab    #$11
12954:     F141 3D                             mul
12955:     F142 89 00                          adca    #$00
12956:     F144 33                             pulb
12957:     F145 1B                             aba
12958:     F146 20 32                          bra     loc_F17A
12959:                                 
12960:     F148                        loc_F148:
12961:     F148 13 20 01 0F                    brclr   <IPL1 $01 loc_F15B
12962:     F14C D6 46                          ldab    <EngineRpm_HB
12963:     F14E C1 1F                          cmpb    #$1F
12964:     F150 25 09                          bcs     loc_F15B
12965:     F152 96 4E                          ldaa    <CalculatedSparkAdvance
12966:     F154 81 50                          cmpa    #$50
12967:     F156 25 03                          bcs     loc_F15B
12968:     F158 7E F1E0                        jmp     loc_F1E0
12969:                                 
12970:     F15B                        loc_F15B:
12971:     F15B 96 4A                          ldaa    <AdvanceTemporary
12972:     F15D 13 2D 80 0B                    brclr   <BitFlags2d $80 loc_F16C
12973:     F161 91 4D                          cmpa    <Ram_4D
12974:     F163 23 04                          bls     loc_F169
12975:     F165 96 4D                          ldaa    <Ram_4D
12976:     F167 20 03                          bra     loc_F16C
12977:                                 
12978:     F169                        loc_F169:
12979:     F169 15 2D 80                       bclr    <BitFlags2d $80
12980:                                 
12981:     F16C                        loc_F16C:
12982:     F16C 97 4E                          staa    <CalculatedSparkAdvance
12983:     F16E 14 20 01                       bset    <IPL1 $01
12984:     F171 86 80                          ldaa    #$80
12985:     F173 90 4E                          suba    <CalculatedSparkAdvance
12986:     F175 C6 B6                          ldab    #$B6
12987:     F177 3D                             mul
12988:     F178 89 00                          adca    #$00
12989:                                 
12990:     F17A                        loc_F17A:
12991:     F17A 36                             psha
12992:     F17B D6 36                          ldab    <DistributorFallingEdgePulsewidth_HB
12993:     F17D 3D                             mul
12994:     F17E FD 648B                        std     Temp5_t3
12995:     F181 32                             pula
12996:     F182 D6 37                          ldab    <DistributorFallingEdgePulsewidth_LB
12997:     F184 3D                             mul
12998:     F185 89 00                          adca    #$00
12999:     F187 16                             tab
13000:     F188 4F                             clra
13001:     F189 F3 648B                        addd    Temp5_t3
13002:     F18C D3 38                          addd    <LastCamFallingEdgeTime
13003:     F18E 83 000A                        subd    #$0A
13004:     F191 FD 648B                        std     Temp5_t3
13005:     F194 14 20 02                       bset    <IPL1 $02
13006:     F197 CE 1020                        ldx     #TCTL1_TimerControlReg1
13007:     F19A B3 6495                        subd    AntiDwellTime_HB
13008:     F19D FD 648D                        std     DoubleTempB
13009:     F1A0 B3 100E                        subd    TCNT_Counter_FreeRunning16bit
13010:     F1A3 2B 0D                          bmi     loc_F1B2
13011:     F1A5 1A83 0020                      cpd     #$0020
13012:     F1A9 2B 07                          bmi     loc_F1B2
13013:     F1AB B6 1000                        ldaa    PORTA_PortA
13014:     F1AE 85 08                          bita    #$08
13015:     F1B0 27 18                          beq     loc_F1CA
13016:                                 
13017:     F1B2                        loc_F1B2:
13018:     F1B2 1C 00 03                       bset    $00,x $03
13019:     F1B5 86 08                          ldaa    #$08
13020:     F1B7 B7 100B                        staa    CFORC_TimerForceCompare
13021:     F1BA FC 648B                        ldd     Temp5_t3
13022:     F1BD FD 101E                        std     TOC5_Counter_OC5_Dwell
13023:     F1C0 1D 00 01                       bclr    $00,x $01
13024:     F1C3 86 08                          ldaa    #$08
13025:     F1C5 B7 1023                        staa    TFLG1_TimerInterruptFlag1
13026:     F1C8 20 16                          bra     loc_F1E0
13027:                                 
13028:     F1CA                        loc_F1CA:
13029:     F1CA 1D 00 01                       bclr    $00,x $01
13030:     F1CD 86 08                          ldaa    #$08
13031:     F1CF B7 100B                        staa    CFORC_TimerForceCompare
13032:     F1D2 FC 648D                        ldd     DoubleTempB
13033:     F1D5 FD 101E                        std     TOC5_Counter_OC5_Dwell
13034:     F1D8 1C 00 03                       bset    $00,x $03
13035:     F1DB 86 08                          ldaa    #$08
13036:     F1DD B7 1023                        staa    TFLG1_TimerInterruptFlag1
13037:                                 
13038:     F1E0                        loc_F1E0:
13039:     F1E0 B6 1023                        ldaa    TFLG1_TimerInterruptFlag1
13040:     F1E3 85 08                          bita    #$08
13041:     F1E5 27 03                          beq     loc_F1EA
13042:     F1E7 BD F75A                        jsr     sub_F75A
13043:                                 
13044:     F1EA                        loc_F1EA:
13045:     F1EA 12 20 04 05                    brset   <IPL1 $04 loc_F1F3
13046:     F1EE BD C75D                        jsr     sub_C75D
13047:     F1F1 20 46                          bra     loc_F239
13048:                                 
13049:     F1F3                        loc_F1F3:
13050:     F1F3 B6 1030                        ldaa    ADCTL_A2DControlReg
13051:     F1F6 2A FB                          bpl     loc_F1F3
13052:     F1F8 B6 1031                        ldaa    ADR1_A2DResults1
13053:     F1FB D6 46                          ldab    <EngineRpm_HB
13054:     F1FD C1 2F                          cmpb    #$2F
13055:     F1FF 24 0E                          bcc     loc_F20F
13056:     F201 C1 0D                          cmpb    #$0D
13057:     F203 25 0A                          bcs     loc_F20F
13058:     F205 B1 8A66                        cmpa    byte_8A66
13059:     F208 24 09                          bcc     loc_F213
13060:     F20A B1 8A65                        cmpa    byte_8A65
13061:     F20D 25 04                          bcs     loc_F213
13062:                                 
13063:     F20F                        loc_F20F:
13064:     F20F 13 D5 88 03                    brclr   <b5C_IPL1_t3 $88 loc_F216
13065:                                 
13066:     F213                        loc_F213:
13067:     F213 BD D7BF                        jsr     sub_D7BF
13068:                                 
13069:     F216                        loc_F216:
13070:     F216 BD E6DB                        jsr     sub_E6DB
13071:     F219 16                             tab
13072:     F21A F7 64A9                        stab    MapValue_t3
13073:     F21D 20 1A                          bra     loc_F239
13074:                                 
13075:     F21F                        off_F21F:
13076:     F21F 6408                           fdb InjectorPulsewidth_HB_Cyl1
13077:     F221 640C                           fdb InjectorPulsewidth_HB_Cyl3
13078:     F223 640E                           fdb InjectorPulsewidth_HB_Cyl4
13079:     F225 640A                           fdb InjectorPulsewidth_HB_Cyl2
13080:                                 
13081:     F227                        off_F227:
13082:     F227 101A                           fdb TOC3_Counter_OC3
13083:     F229 640C                           fdb InjectorPulsewidth_HB_Cyl3
13084:     F22B 6408                           fdb InjectorPulsewidth_HB_Cyl1
13085:     F22D 640E                           fdb InjectorPulsewidth_HB_Cyl4
13086:     F22F 1018                           fdb TOC2_Counter_OC2
13087:     F231 640A                           fdb InjectorPulsewidth_HB_Cyl2
13088:     F233                        ToggleOC3:
13089:     F233 10                             fcb $10
13090:     F234 20                             fcb $20
13091:     F235 EF                             fcb $EF
13092:     F236                        ToggleOC2:
13093:     F236 40                             fcb $40
13094:     F237 40                             fcb $40
13095:     F238 BF                             fcb $BF
13096:                                 
13097:     F239                        loc_F239:
13098:     F239 13 EC 80 13                    brclr   <Ram_EC $80 loc_F250
13099:     F23D 13 EC 10 09                    brclr   <Ram_EC $10 loc_F24A
13100:     F241 96 EC                          ldaa    <Ram_EC
13101:     F243 85 0F                          bita    #$0F
13102:     F245 27 06                          beq     loc_F24D
13103:     F247 4A                             deca
13104:     F248 97 EC                          staa    <Ram_EC
13105:                                 
13106:     F24A                        loc_F24A:
13107:     F24A 7E F2C8                        jmp     locret_F2C8
13108:                                 
13109:     F24D                        loc_F24D:
13110:     F24D 15 EC 80                       bclr    <Ram_EC $80
13111:                                 
13112:     F250                        loc_F250:
13113:     F250 DC 6F                          ldd     <InjectorPulsewidth_HB
13114:     F252 27 74                          beq     locret_F2C8
13115:     F254 12 2F 04 70                    brset   <BitFlags2f $04 locret_F2C8
13116:     F258 13 2C 03 02                    brclr   <BitFlags2c $03 loc_F25E
13117:     F25C 20 6A                          bra     locret_F2C8
13118:                                 
13119:     F25E                        loc_F25E:
13120:     F25E CE F21F                        ldx     #off_F21F
13121:     F261 12 27 80 03                    brset   <BitFlags27 $80 loc_F268
13122:     F265 CE F227                        ldx     #off_F227
13123:                                 
13124:     F268                        loc_F268:
13125:     F268 D6 3B                          ldab    <CylinderPointer
13126:     F26A 58                             aslb
13127:     F26B 3A                             abx
13128:     F26C EE 00                          ldx     $00,x
13129:     F26E 18CE F233                      ldy     #ToggleOC3
13130:     F272 8C 101A                        cpx     #TOC3_Counter_OC3
13131:     F275 27 18                          beq     loc_F28F
13132:     F277 18CE F236                      ldy     #ToggleOC2
13133:     F27B 8C 1018                        cpx     #TOC2_Counter_OC2
13134:     F27E 27 0F                          beq     loc_F28F
13135:     F280 DC 6F                          ldd     <InjectorPulsewidth_HB
13136:     F282 ED 00                          std     $00,x
13137:     F284 1A83 007F                      cpd     #$007F
13138:     F288 25 03                          bcs     loc_F28D
13139:     F28A 14 21 80                       bset    <BitFlags21 $80
13140:                                 
13141:     F28D                        loc_F28D:
13142:     F28D 20 25                          bra     loc_F2B4
13143:                                 
13144:     F28F                        loc_F28F:
13145:     F28F 18EC 00                        ldd     $00,y
13146:     F292 BA 1020                        oraa    TCTL1_TimerControlReg1
13147:     F295 B7 1020                        staa    TCTL1_TimerControlReg1
13148:     F298 F7 100B                        stab    CFORC_TimerForceCompare
13149:     F29B FC 100E                        ldd     TCNT_Counter_FreeRunning16bit
13150:     F29E D3 6F                          addd    <InjectorPulsewidth_HB
13151:     F2A0 ED 00                          std     $00,x
13152:     F2A2 1A83 007F                      cpd     #$007F
13153:     F2A6 25 03                          bcs     loc_F2AB
13154:     F2A8 14 21 80                       bset    <BitFlags21 $80
13155:                                 
13156:     F2AB                        loc_F2AB:
13157:     F2AB 18A6 02                        ldaa    $02,y
13158:     F2AE B4 1020                        anda    TCTL1_TimerControlReg1
13159:     F2B1 B7 1020                        staa    TCTL1_TimerControlReg1
13160:                                 
13161:     F2B4                        loc_F2B4:
13162:     F2B4 DC 6F                          ldd     <InjectorPulsewidth_HB
13163:     F2B6 04                             lsrd
13164:     F2B7 04                             lsrd
13165:     F2B8 D3 F8                          addd    <CCDFuelOutput_HB
13166:     F2BA 24 03                          bcc     loc_F2BF
13167:     F2BC CC FFFF                        ldd     #$FFFF
13168:                                 
13169:     F2BF                        loc_F2BF:
13170:     F2BF DD F8                          std     <CCDFuelOutput_HB
13171:     F2C1 96 FC                          ldaa    <Counter_InjectorCalc
13172:     F2C3 4C                             inca
13173:     F2C4 27 02                          beq     locret_F2C8
13174:     F2C6 97 FC                          staa    <Counter_InjectorCalc
13175:                                 
13176:     F2C8                        locret_F2C8:
13177:     F2C8 3B                             rti
13178:                                 
13179:     F2C9                        loc_F2C9:
13180:     F2C9 7E F3B8                        jmp     loc_F3B8
13181:                                 
13182:     F2CC                        CrankInterrupt_HandleCamSensorRisingEdgeA:
13183:     F2CC FC 1010                        ldd     TIC1_Counter_IC1_CamSensor
13184:     F2CF FD 6491                        std     L00F5_t3
13185:     F2D2 13 20 01 30                    brclr   <IPL1 $01 loc_F306
13186:     F2D6 96 46                          ldaa    <EngineRpm_HB
13187:     F2D8 81 5E                          cmpa    #$5E
13188:     F2DA 24 ED                          bcc     loc_F2C9
13189:     F2DC FC 6491                        ldd     L00F5_t3
13190:     F2DF 13 20 02 E6                    brclr   <IPL1 $02 loc_F2C9
13191:     F2E3 93 38                          subd    <LastCamFallingEdgeTime
13192:     F2E5 05                             lsld
13193:     F2E6 05                             lsld
13194:     F2E7 188F                           xgdy
13195:     F2E9 86 58                          ldaa    #$58
13196:     F2EB 90 4E                          suba    <CalculatedSparkAdvance
13197:     F2ED 2F DA                          ble     loc_F2C9
13198:     F2EF C6 CD                          ldab    #$CD
13199:     F2F1 3D                             mul
13200:     F2F2 05                             lsld
13201:     F2F3 58                             aslb
13202:     F2F4 89 00                          adca    #$00
13203:     F2F6 BD E60D                        jsr     ScaleYbyA
13204:     F2F9 188F                           xgdy
13205:     F2FB F3 1010                        addd    TIC1_Counter_IC1_CamSensor
13206:     F2FE 83 000A                        subd    #$000A
13207:     F301 FD 648B                        std     Temp5_t3
13208:     F304 20 0F                          bra     loc_F315
13209:                                 
13210:     F306                        loc_F306:
13211:     F306 CC 0308                        ldd     #$0308
13212:     F309 BA 1020                        oraa    TCTL1_TimerControlReg1
13213:     F30C B7 1020                        staa    TCTL1_TimerControlReg1
13214:     F30F F7 1023                        stab    TFLG1_TimerInterruptFlag1
13215:     F312 7E F3AA                        jmp     loc_F3AA
13216:                                 
13217:     F315                        loc_F315:
13218:     F315 B6 1000                        ldaa    PORTA_PortA
13219:     F318 85 08                          bita    #$08
13220:     F31A 26 34                          bne     loc_F350
13221:     F31C B6 1020                        ldaa    TCTL1_TimerControlReg1
13222:     F31F 85 01                          bita    #$01
13223:     F321 26 03                          bne     loc_F326
13224:     F323 7E F3B8                        jmp     loc_F3B8
13225:                                 
13226:     F326                        loc_F326:
13227:     F326 FC 648B                        ldd     Temp5_t3
13228:     F329 B3 6495                        subd    AntiDwellTime_HB
13229:     F32C FD 101E                        std     TOC5_Counter_OC5_Dwell
13230:     F32F F6 1020                        ldab    TCTL1_TimerControlReg1
13231:     F332 CA 03                          orab    #$03
13232:     F334 F7 1020                        stab    TCTL1_TimerControlReg1
13233:     F337 FC 101E                        ldd     TOC5_Counter_OC5_Dwell
13234:     F33A 83 0040                        subd    #$40
13235:     F33D B3 100E                        subd    TCNT_Counter_FreeRunning16bit
13236:     F340 2A 76                          bpl     loc_F3B8
13237:     F342 86 08                          ldaa    #$08
13238:     F344 B7 100B                        staa    CFORC_TimerForceCompare
13239:     F347 FC 100E                        ldd     TCNT_Counter_FreeRunning16bit
13240:     F34A F3 6495                        addd    AntiDwellTime_HB
13241:     F34D FD 648B                        std     Temp5_t3
13242:                                 
13243:     F350                        loc_F350:
13244:     F350 B6 1020                        ldaa    TCTL1_TimerControlReg1
13245:     F353 85 01                          bita    #$01
13246:     F355 27 1B                          beq     loc_F372
13247:     F357 96 4E                          ldaa    <CalculatedSparkAdvance
13248:     F359 81 28                          cmpa    #$28
13249:     F35B 25 5B                          bcs     loc_F3B8
13250:     F35D FC 101E                        ldd     TOC5_Counter_OC5_Dwell
13251:     F360 F3 6495                        addd    AntiDwellTime_HB
13252:     F363 FD 101E                        std     TOC5_Counter_OC5_Dwell
13253:     F366 CC FE08                        ldd     #$FE08
13254:     F369 B4 1020                        anda    TCTL1_TimerControlReg1
13255:     F36C B7 1020                        staa    TCTL1_TimerControlReg1
13256:     F36F F7 1023                        stab    TFLG1_TimerInterruptFlag1
13257:                                 
13258:     F372                        loc_F372:
13259:     F372 96 4E                          ldaa    <CalculatedSparkAdvance
13260:     F374 81 28                          cmpa    #$28
13261:     F376 24 15                          bcc     loc_F38D
13262:     F378 B6 1020                        ldaa    TCTL1_TimerControlReg1
13263:     F37B 8A 03                          oraa    #$03
13264:     F37D B7 1020                        staa    TCTL1_TimerControlReg1
13265:     F380 FC 100E                        ldd     TCNT_Counter_FreeRunning16bit
13266:     F383 FD 101E                        std     TOC5_Counter_OC5_Dwell
13267:     F386 86 08                          ldaa    #$08
13268:     F388 B7 1023                        staa    TFLG1_TimerInterruptFlag1
13269:     F38B 20 2B                          bra     loc_F3B8
13270:                                 
13271:     F38D                        loc_F38D:
13272:     F38D FC 648B                        ldd     Temp5_t3
13273:     F390 B3 101E                        subd    TOC5_Counter_OC5_Dwell
13274:     F393 1A83 0010                      cpd     #$0010
13275:     F397 25 06                          bcs     loc_F39F
13276:     F399 FC 648B                        ldd     Temp5_t3
13277:     F39C FD 101E                        std     TOC5_Counter_OC5_Dwell
13278:                                 
13279:     F39F                        loc_F39F:
13280:     F39F FC 101E                        ldd     TOC5_Counter_OC5_Dwell
13281:     F3A2 B3 100E                        subd    TCNT_Counter_FreeRunning16bit
13282:     F3A5 2A 11                          bpl     loc_F3B8
13283:     F3A7 15 20 02                       bclr    <IPL1 $02
13284:                                 
13285:     F3AA                        loc_F3AA:
13286:     F3AA 86 08                          ldaa    #$08
13287:     F3AC B7 100B                        staa    CFORC_TimerForceCompare
13288:     F3AF FC 100E                        ldd     TCNT_Counter_FreeRunning16bit
13289:     F3B2 C3 0004                        addd    #$0004
13290:     F3B5 FD 101E                        std     TOC5_Counter_OC5_Dwell
13291:                                 
13292:     F3B8                        loc_F3B8:
13293:     F3B8 B6 64AC                        ldaa    SparkScatter
13294:     F3BB BB 64AB                        adda    SparkScatterIncrement
13295:     F3BE 28 28                          bvc     loc_F3E8
13296:     F3C0 13 25 04 23                    brclr   <BitFlags68_t3 $04 loc_F3E7
13297:     F3C4 D6 69                          ldab    <DesiredNewAisPosition
13298:     F3C6 D1 08                          cmpb    <CurrentAisPosition
13299:     F3C8 26 1D                          bne     loc_F3E7
13300:     F3CA F6 869A                        ldab    byte_869A
13301:     F3CD 27 18                          beq     loc_F3E7
13302:     F3CF 4D                             tsta
13303:     F3D0 2B 08                          bmi     loc_F3DA
13304:     F3D2 96 69                          ldaa    <DesiredNewAisPosition
13305:     F3D4 10                             sba
13306:     F3D5 24 0E                          bcc     loc_F3E5
13307:     F3D7 4F                             clra
13308:     F3D8 20 0B                          bra     loc_F3E5
13309:                                 
13310:     F3DA                        loc_F3DA:
13311:     F3DA B6 87A8                        ldaa    byte_87A8
13312:     F3DD DB 69                          addb    <DesiredNewAisPosition
13313:     F3DF 25 04                          bcs     loc_F3E5
13314:     F3E1 11                             cba
13315:     F3E2 23 01                          bls     loc_F3E5
13316:     F3E4 17                             tba
13317:                                 
13318:     F3E5                        loc_F3E5:
13319:     F3E5 97 69                          staa    <DesiredNewAisPosition
13320:                                 
13321:     F3E7                        loc_F3E7:
13322:     F3E7 4F                             clra
13323:                                 
13324:     F3E8                        loc_F3E8:
13325:     F3E8 B7 64AB                        staa    SparkScatterIncrement
13326:     F3EB 3B                             rti
13327:                                 
13328:     F3EC                        loc_F3EC:
13329:     F3EC 7E F4AD                        jmp     loc_F4AD
13330:                                 
13331:     F3EF                        CrankInterrupt_HandleCamSensorRisingEdgeB:
13332:     F3EF FC 1010                        ldd     TIC1_Counter_IC1_CamSensor
13333:     F3F2 FD 6493                        std     Counter_IC1_Temp
13334:     F3F5 96 46                          ldaa    <EngineRpm_HB
13335:     F3F7 81 5E                          cmpa    #$5E
13336:     F3F9 24 F1                          bcc     loc_F3EC
13337:     F3FB 13 20 02 ED                    brclr   <IPL1 $02 loc_F3EC
13338:     F3FF FC 1010                        ldd     TIC1_Counter_IC1_CamSensor
13339:     F402 B3 6491                        subd    L00F5_t3
13340:     F405 05                             lsld
13341:     F406 05                             lsld
13342:     F407 188F                           xgdy
13343:     F409 86 30                          ldaa    #$30
13344:     F40B 90 4E                          suba    <CalculatedSparkAdvance
13345:     F40D 24 01                          bcc     loc_F410
13346:     F40F 4F                             clra
13347:                                 
13348:     F410                        loc_F410:
13349:     F410 C6 CD                          ldab    #$CD
13350:     F412 3D                             mul
13351:     F413 05                             lsld
13352:     F414 58                             aslb
13353:     F415 89 00                          adca    #$00
13354:     F417 BD E60D                        jsr     ScaleYbyA
13355:     F41A 188F                           xgdy
13356:     F41C F3 1010                        addd    TIC1_Counter_IC1_CamSensor
13357:     F41F 83 000A                        subd    #$000A
13358:     F422 FD 648B                        std     Temp5_t3
13359:     F425 13 20 01 C3                    brclr   <IPL1 $01 loc_F3EC
13360:     F429 B6 1000                        ldaa    PORTA_PortA
13361:     F42C 85 08                          bita    #$08
13362:     F42E 26 36                          bne     loc_F466
13363:     F430 B6 1020                        ldaa    TCTL1_TimerControlReg1
13364:     F433 85 01                          bita    #$01
13365:     F435 27 76                          beq     loc_F4AD
13366:     F437 FC 648B                        ldd     Temp5_t3
13367:     F43A B3 6495                        subd    AntiDwellTime_HB
13368:     F43D FD 101E                        std     TOC5_Counter_OC5_Dwell
13369:     F440 F6 1020                        ldab    TCTL1_TimerControlReg1
13370:     F443 CA 03                          orab    #$03
13371:     F445 F7 1020                        stab    TCTL1_TimerControlReg1
13372:     F448 C6 08                          ldab    #$08
13373:     F44A F7 1023                        stab    TFLG1_TimerInterruptFlag1
13374:     F44D FC 101E                        ldd     TOC5_Counter_OC5_Dwell
13375:     F450 83 0040                        subd    #$40
13376:     F453 B3 100E                        subd    TCNT_Counter_FreeRunning16bit
13377:     F456 2A 55                          bpl     loc_F4AD
13378:     F458 86 08                          ldaa    #$08
13379:     F45A B7 100B                        staa    CFORC_TimerForceCompare
13380:     F45D FC 100E                        ldd     TCNT_Counter_FreeRunning16bit
13381:     F460 F3 6495                        addd    AntiDwellTime_HB
13382:     F463 FD 648B                        std     Temp5_t3
13383:                                 
13384:     F466                        loc_F466:
13385:     F466 B6 1020                        ldaa    TCTL1_TimerControlReg1
13386:     F469 85 01                          bita    #$01
13387:     F46B 27 15                          beq     loc_F482
13388:     F46D FC 101E                        ldd     TOC5_Counter_OC5_Dwell
13389:     F470 F3 6495                        addd    AntiDwellTime_HB
13390:     F473 FD 101E                        std     TOC5_Counter_OC5_Dwell
13391:     F476 CC FE08                        ldd     #$FE08
13392:     F479 B4 1020                        anda    TCTL1_TimerControlReg1
13393:     F47C B7 1020                        staa    TCTL1_TimerControlReg1
13394:     F47F F7 1023                        stab    TFLG1_TimerInterruptFlag1
13395:                                 
13396:     F482                        loc_F482:
13397:     F482 FC 648B                        ldd     Temp5_t3
13398:     F485 B3 101E                        subd    TOC5_Counter_OC5_Dwell
13399:     F488 1A83 0010                      cpd     #$0010
13400:     F48C 25 06                          bcs     loc_F494
13401:     F48E FC 648B                        ldd     Temp5_t3
13402:     F491 FD 101E                        std     TOC5_Counter_OC5_Dwell
13403:                                 
13404:     F494                        loc_F494:
13405:     F494 FC 101E                        ldd     TOC5_Counter_OC5_Dwell
13406:     F497 B3 100E                        subd    TCNT_Counter_FreeRunning16bit
13407:     F49A 2A 11                          bpl     loc_F4AD
13408:     F49C 15 20 02                       bclr    <IPL1 $02
13409:     F49F 86 08                          ldaa    #$08
13410:     F4A1 B7 100B                        staa    CFORC_TimerForceCompare
13411:     F4A4 FC 100E                        ldd     TCNT_Counter_FreeRunning16bit
13412:     F4A7 C3 0004                        addd    #$0004
13413:     F4AA FD 101E                        std     TOC5_Counter_OC5_Dwell
13414:                                 
13415:     F4AD                        loc_F4AD:
13416:     F4AD 96 46                          ldaa    <EngineRpm_HB
13417:     F4AF 81 6D                          cmpa    #$6D
13418:     F4B1 24 11                          bcc     loc_F4C4
13419:     F4B3 81 6A                          cmpa    #$6A
13420:     F4B5 24 03                          bcc     loc_F4BA
13421:     F4B7 15 20 04                       bclr    <IPL1 $04
13422:                                 
13423:     F4BA                        loc_F4BA:
13424:     F4BA BD E6AA                        jsr     sub_E6AA
13425:     F4BD DD 46                          std     <EngineRpm_HB
13426:     F4BF BD E721                        jsr     sub_E721
13427:     F4C2 20 03                          bra     loc_F4C7
13428:                                 
13429:     F4C4                        loc_F4C4:
13430:     F4C4 14 20 04                       bset    <IPL1 $04
13431:                                 
13432:     F4C7                        loc_F4C7:
13433:     F4C7 4F                             clra
13434:     F4C8 13 22 40 05                    brclr   <BitFlags66_t3 $40 loc_F4D1
13435:     F4CC 96 42                          ldaa    <CounterUp_42
13436:     F4CE 4C                             inca
13437:     F4CF 27 02                          beq     loc_F4D3
13438:                                 
13439:     F4D1                        loc_F4D1:
13440:     F4D1 97 42                          staa    <CounterUp_42
13441:                                 
13442:     F4D3                        loc_F4D3:
13443:     F4D3 96 42                          ldaa    <CounterUp_42
13444:     F4D5 B1 81BB                        cmpa    byte_81BB
13445:     F4D8 25 05                          bcs     loc_F4DF
13446:     F4DA 14 20 10                       bset    <IPL1 $10
13447:     F4DD 20 03                          bra     loc_F4E2
13448:                                 
13449:     F4DF                        loc_F4DF:
13450:     F4DF 15 20 10                       bclr    <IPL1 $10
13451:                                 
13452:     F4E2                        loc_F4E2:
13453:     F4E2 96 BA                          ldaa    <CounterDn_ba_o2
13454:     F4E4 27 03                          beq     loc_F4E9
13455:     F4E6 4A                             deca
13456:     F4E7 97 BA                          staa    <CounterDn_ba_o2
13457:                                 
13458:     F4E9                        loc_F4E9:
13459:     F4E9 96 BB                          ldaa    <CounterDn_bb_o2
13460:     F4EB 27 03                          beq     loc_F4F0
13461:     F4ED 4A                             deca
13462:     F4EE 97 BB                          staa    <CounterDn_bb_o2
13463:                                 
13464:     F4F0                        loc_F4F0:
13465:     F4F0 12 20 40 07                    brset   <IPL1 $40 loc_F4FB
13466:     F4F4 96 FD                          ldaa    <CounterUp_UsedInCalcFuel
13467:     F4F6 4C                             inca
13468:     F4F7 27 02                          beq     loc_F4FB
13469:     F4F9 97 FD                          staa    <CounterUp_UsedInCalcFuel
13470:                                 
13471:     F4FB                        loc_F4FB:
13472:     F4FB 96 BC                          ldaa    <CounterDn_bc_o2
13473:     F4FD 27 03                          beq     loc_F502
13474:     F4FF 4A                             deca
13475:     F500 97 BC                          staa    <CounterDn_bc_o2
13476:                                 
13477:     F502                        loc_F502:
13478:     F502 96 B9                          ldaa    <CounterDn_b9_o2
13479:     F504 27 03                          beq     loc_F509
13480:     F506 4A                             deca
13481:     F507 97 B9                          staa    <CounterDn_b9_o2
13482:                                 
13483:     F509                        loc_F509:
13484:     F509 96 B6                          ldaa    <CounterUp_b6_o2
13485:     F50B 4C                             inca
13486:     F50C 27 02                          beq     loc_F510
13487:     F50E 97 B6                          staa    <CounterUp_b6_o2
13488:                                 
13489:     F510                        loc_F510:
13490:     F510 4F                             clra
13491:     F511 13 20 01 05                    brclr   <IPL1 $01 loc_F51A
13492:     F515 96 43                          ldaa    <CounterUp_43
13493:     F517 4C                             inca
13494:     F518 27 02                          beq     loc_F51C
13495:                                 
13496:     F51A                        loc_F51A:
13497:     F51A 97 43                          staa    <CounterUp_43
13498:                                 
13499:     F51C                        loc_F51C:
13500:     F51C 96 B7                          ldaa    <CounterDn_b7_o2
13501:     F51E 27 03                          beq     loc_F523
13502:     F520 4A                             deca
13503:     F521 97 B7                          staa    <CounterDn_b7_o2
13504:                                 
13505:     F523                        loc_F523:
13506:     F523 B6 6497                        ldaa    Counter_SomethingWithDistributor
13507:     F526 4C                             inca
13508:     F527 27 03                          beq     loc_F52C
13509:     F529 B7 6497                        staa    Counter_SomethingWithDistributor
13510:                                 
13511:     F52C                        loc_F52C:
13512:     F52C 7E F52F                        jmp     locret_F52F
13513:                                 
13514:     F52F                        locret_F52F:
13515:     F52F 3B                             rti
13516:                                 
13517:     F530                        CrankInterrupt_CalculateFuel:
13518:     F530 12 20 01 12                    brset   <IPL1 $01 loc_F546
13519:     F534 B6 1020                        ldaa    TCTL1_TimerControlReg1
13520:     F537 84 FE                          anda    #$FE
13521:     F539 B7 1020                        staa    TCTL1_TimerControlReg1
13522:     F53C 86 08                          ldaa    #$08
13523:     F53E B7 100B                        staa    CFORC_TimerForceCompare
13524:     F541 15 20 02                       bclr    <IPL1 $02
13525:     F544 20 2C                          bra     loc_F572
13526:                                 
13527:     F546                        loc_F546:
13528:     F546 20 00                          bra     loc_F548
13529:                                 
13530:     F548                        loc_F548:
13531:     F548 4F                             clra
13532:     F549 5F                             clrb
13533:     F54A 20 1B                          bra     loc_F567
13534:     F54C 96 CF                          ldaa    <PIA3_Buffer_t3
13535:     F54E 84 BF                          anda    #$BF
13536:     F550 97 CF                          staa    <PIA3_Buffer_t3
13537:     F552 B7 6440                        staa    PIA3_Buffer_2_t3
13538:     F555 FC 1010                        ldd     TIC1_Counter_IC1_CamSensor
13539:     F558 B3 6493                        subd    Counter_IC1_Temp
13540:     F55B FD 648F                        std     DoubleTempC
13541:     F55E CE 648F                        ldx     #DoubleTempC
13542:     F561 FC 828E                        ldd     word_828E
13543:     F564 BD E621                        jsr     ScaleXbyB_somethingelse
13544:                                 
13545:     F567                        loc_F567:
13546:     F567 F3 1010                        addd    TIC1_Counter_IC1_CamSensor
13547:     F56A FD 101C                        std     TOC4_Counter_OC4
13548:     F56D 86 10                          ldaa    #$10
13549:     F56F B7 1023                        staa    TFLG1_TimerInterruptFlag1
13550:                                 
13551:     F572                        loc_F572:
13552:     F572 96 3B                          ldaa    <CylinderPointer
13553:     F574 4C                             inca
13554:     F575 12 27 80 04                    brset   <BitFlags27 $80 loc_F57D
13555:     F579 81 06                          cmpa    #$06
13556:     F57B 20 02                          bra     loc_F57F
13557:                                 
13558:     F57D                        loc_F57D:
13559:     F57D 81 04                          cmpa    #$04
13560:                                 
13561:     F57F                        loc_F57F:
13562:     F57F 25 01                          bcs     loc_F582
13563:     F581 4F                             clra
13564:                                 
13565:     F582                        loc_F582:
13566:     F582 97 3B                          staa    <CylinderPointer
13567:     F584 12 27 80 1F                    brset   <BitFlags27 $80 loc_F5A7
13568:     F588 13 27 40 24                    brclr   <BitFlags27 $40 loc_F5B0
13569:     F58C 96 3B                          ldaa    <CylinderPointer
13570:     F58E 27 17                          beq     loc_F5A7
13571:     F590 81 03                          cmpa    #$03
13572:     F592 27 13                          beq     loc_F5A7
13573:     F594 81 02                          cmpa    #$02
13574:     F596 27 18                          beq     loc_F5B0
13575:     F598 81 05                          cmpa    #$05
13576:     F59A 27 14                          beq     loc_F5B0
13577:     F59C 96 CF                          ldaa    <PIA3_Buffer_t3
13578:     F59E 84 FD                          anda    #$FD
13579:     F5A0 97 CF                          staa    <PIA3_Buffer_t3
13580:     F5A2 B7 6440                        staa    PIA3_Buffer_2_t3
13581:     F5A5 20 09                          bra     loc_F5B0
13582:                                 
13583:     F5A7                        loc_F5A7:
13584:     F5A7 96 CF                          ldaa    <PIA3_Buffer_t3
13585:     F5A9 8A 02                          oraa    #$02
13586:     F5AB 97 CF                          staa    <PIA3_Buffer_t3
13587:     F5AD B7 6440                        staa    PIA3_Buffer_2_t3
13588:                                 
13589:     F5B0                        loc_F5B0:
13590:     F5B0 12 20 01 03                    brset   <IPL1 $01 loc_F5B7
13591:     F5B4 7E F680                        jmp     loc_F680
13592:                                 
13593:     F5B7                        loc_F5B7:
13594:     F5B7 12 27 80 31                    brset   <BitFlags27 $80 loc_F5EC
13595:     F5BB D6 46                          ldab    <EngineRpm_HB
13596:     F5BD C1 1F                          cmpb    #$1F
13597:     F5BF 24 03                          bcc     loc_F5C4
13598:     F5C1 7E F680                        jmp     loc_F680
13599:                                 
13600:     F5C4                        loc_F5C4:
13601:     F5C4 96 4A                          ldaa    <AdvanceTemporary
13602:     F5C6 13 2D 80 0B                    brclr   <BitFlags2d $80 loc_F5D5
13603:     F5CA 91 4D                          cmpa    <Ram_4D
13604:     F5CC 25 04                          bcs     loc_F5D2
13605:     F5CE 96 4D                          ldaa    <Ram_4D
13606:     F5D0 20 03                          bra     loc_F5D5
13607:                                 
13608:     F5D2                        loc_F5D2:
13609:     F5D2 15 2D 80                       bclr    <BitFlags2d $80
13610:                                 
13611:     F5D5                        loc_F5D5:
13612:     F5D5 97 4E                          staa    <CalculatedSparkAdvance
13613:     F5D7 81 50                          cmpa    #$50
13614:     F5D9 24 03                          bcc     loc_F5DE
13615:     F5DB 7E F680                        jmp     loc_F680
13616:                                 
13617:     F5DE                        loc_F5DE:
13618:     F5DE 86 F8                          ldaa    #$F8
13619:     F5E0 90 4E                          suba    <CalculatedSparkAdvance
13620:     F5E2 36                             psha
13621:     F5E3 C6 11                          ldab    #$11
13622:     F5E5 3D                             mul
13623:     F5E6 89 00                          adca    #$00
13624:     F5E8 33                             pulb
13625:     F5E9 1B                             aba
13626:     F5EA 20 2D                          bra     loc_F619
13627:                                 
13628:     F5EC                        loc_F5EC:
13629:     F5EC D6 46                          ldab    <EngineRpm_HB
13630:     F5EE C1 1F                          cmpb    #$1F
13631:     F5F0 25 17                          bcs     loc_F609
13632:     F5F2 96 4A                          ldaa    <AdvanceTemporary
13633:     F5F4 13 2D 80 0B                    brclr   <BitFlags2d $80 loc_F603
13634:     F5F8 91 4D                          cmpa    <Ram_4D
13635:     F5FA 25 04                          bcs     loc_F600
13636:     F5FC 96 4D                          ldaa    <Ram_4D
13637:     F5FE 20 03                          bra     loc_F603
13638:                                 
13639:     F600                        loc_F600:
13640:     F600 15 2D 80                       bclr    <BitFlags2d $80
13641:                                 
13642:     F603                        loc_F603:
13643:     F603 97 4E                          staa    <CalculatedSparkAdvance
13644:     F605 81 50                          cmpa    #$50
13645:     F607 24 03                          bcc     loc_F60C
13646:                                 
13647:     F609                        loc_F609:
13648:     F609 7E F680                        jmp     loc_F680
13649:                                 
13650:     F60C                        loc_F60C:
13651:     F60C 44                             lsra
13652:     F60D 16                             tab
13653:     F60E 86 B8                          ldaa    #$B8
13654:     F610 10                             sba
13655:     F611 36                             psha
13656:     F612 C6 6C                          ldab    #$6C
13657:     F614 3D                             mul
13658:     F615 89 00                          adca    #$00
13659:     F617 33                             pulb
13660:     F618 1B                             aba
13661:                                 
13662:     F619                        loc_F619:
13663:     F619 36                             psha
13664:     F61A D6 36                          ldab    <DistributorFallingEdgePulsewidth_HB
13665:     F61C 3D                             mul
13666:     F61D FD 648B                        std     Temp5_t3
13667:     F620 32                             pula
13668:     F621 D6 37                          ldab    <DistributorFallingEdgePulsewidth_LB
13669:     F623 3D                             mul
13670:     F624 89 00                          adca    #$00
13671:     F626 16                             tab
13672:     F627 4F                             clra
13673:     F628 F3 648B                        addd    Temp5_t3
13674:     F62B F3 1010                        addd    TIC1_Counter_IC1_CamSensor
13675:     F62E 83 000A                        subd    #$0A
13676:     F631 FD 648B                        std     Temp5_t3
13677:     F634 14 20 02                       bset    <IPL1 $02
13678:     F637 CE 1020                        ldx     #TCTL1_TimerControlReg1
13679:     F63A B3 6495                        subd    AntiDwellTime_HB
13680:     F63D FD 648D                        std     DoubleTempB
13681:     F640 B3 100E                        subd    TCNT_Counter_FreeRunning16bit
13682:     F643 2B 0D                          bmi     loc_F652
13683:     F645 1A83 0020                      cpd     #$0020
13684:     F649 2B 07                          bmi     loc_F652
13685:     F64B B6 1000                        ldaa    PORTA_PortA
13686:     F64E 85 08                          bita    #$08
13687:     F650 27 18                          beq     loc_F66A
13688:                                 
13689:     F652                        loc_F652:
13690:     F652 1C 00 03                       bset    $00,x $03
13691:     F655 86 08                          ldaa    #$08
13692:     F657 B7 100B                        staa    CFORC_TimerForceCompare
13693:     F65A FC 648B                        ldd     Temp5_t3
13694:     F65D FD 101E                        std     TOC5_Counter_OC5_Dwell
13695:     F660 1D 00 01                       bclr    $00,x $01
13696:     F663 86 08                          ldaa    #$08
13697:     F665 B7 1023                        staa    TFLG1_TimerInterruptFlag1
13698:     F668 20 16                          bra     loc_F680
13699:                                 
13700:     F66A                        loc_F66A:
13701:     F66A 1D 00 01                       bclr    $00,x $01
13702:     F66D 86 08                          ldaa    #$08
13703:     F66F B7 100B                        staa    CFORC_TimerForceCompare
13704:     F672 FC 648D                        ldd     DoubleTempB
13705:     F675 FD 101E                        std     TOC5_Counter_OC5_Dwell
13706:     F678 1C 00 03                       bset    $00,x $03
13707:     F67B 86 08                          ldaa    #$08
13708:     F67D B7 1023                        staa    TFLG1_TimerInterruptFlag1
13709:                                 
13710:     F680                        loc_F680:
13711:     F680 B6 1030                        ldaa    ADCTL_A2DControlReg
13712:     F683 2A FB                          bpl     loc_F680
13713:     F685 FC 1033                        ldd     ADR3_A2DResults3
13714:     F688 97 53                          staa    <O2SensorVolts
13715:     F68A D7 5A                          stab    <LastTpsVolts
13716:     F68C F1 8A59                        cmpb    byte_8A59
13717:     F68F 25 0B                          bcs     loc_F69C
13718:     F691 F1 8A5A                        cmpb    byte_8A5A
13719:     F694 24 06                          bcc     loc_F69C
13720:     F696 12 D5 40 02                    brset   <b5C_IPL1_t3 $40 loc_F69C
13721:     F69A D7 51                          stab    <TpsVolts
13722:                                 
13723:     F69C                        loc_F69C:
13724:     F69C B6 1031                        ldaa    ADR1_A2DResults1
13725:     F69F D6 46                          ldab    <EngineRpm_HB
13726:     F6A1 C1 2F                          cmpb    #$2F
13727:     F6A3 24 0E                          bcc     loc_F6B3
13728:     F6A5 C1 0D                          cmpb    #$0D
13729:     F6A7 25 0A                          bcs     loc_F6B3
13730:     F6A9 B1 8A66                        cmpa    byte_8A66
13731:     F6AC 24 09                          bcc     loc_F6B7
13732:     F6AE B1 8A65                        cmpa    byte_8A65
13733:     F6B1 25 04                          bcs     loc_F6B7
13734:                                 
13735:     F6B3                        loc_F6B3:
13736:     F6B3 13 D5 88 03                    brclr   <b5C_IPL1_t3 $88 loc_F6BA
13737:                                 
13738:     F6B7                        loc_F6B7:
13739:     F6B7 BD D7BF                        jsr     sub_D7BF
13740:                                 
13741:     F6BA                        loc_F6BA:
13742:     F6BA BD E6DB                        jsr     sub_E6DB
13743:     F6BD 16                             tab
13744:     F6BE 13 20 04 08                    brclr   <IPL1 $04 loc_F6CA
13745:     F6C2 FB 64A9                        addb    MapValue_t3
13746:     F6C5 56                             rorb
13747:     F6C6 D7 50                          stab    <MapValue
13748:     F6C8 20 05                          bra     loc_F6CF
13749:                                 
13750:     F6CA                        loc_F6CA:
13751:     F6CA F7 64A9                        stab    MapValue_t3
13752:     F6CD D6 50                          ldab    <MapValue
13753:                                 
13754:     F6CF                        loc_F6CF:
13755:     F6CF 96 0D                          ldaa    <BaroPressure
13756:     F6D1 10                             sba
13757:     F6D2 24 01                          bcc     loc_F6D5
13758:     F6D4 4F                             clra
13759:                                 
13760:     F6D5                        loc_F6D5:
13761:     F6D5 97 4F                          staa    <MapVolts
13762:     F6D7 BD D9A2                        jsr     sub_D9A2
13763:     F6DA 13 20 40 45                    brclr   <IPL1 $40 loc_F723
13764:     F6DE B6 1023                        ldaa    TFLG1_TimerInterruptFlag1
13765:     F6E1 85 08                          bita    #$08
13766:     F6E3 27 03                          beq     loc_F6E8
13767:     F6E5 BD F75A                        jsr     sub_F75A
13768:                                 
13769:     F6E8                        loc_F6E8:
13770:     F6E8 B6 1023                        ldaa    TFLG1_TimerInterruptFlag1
13771:     F6EB 85 10                          bita    #$10
13772:     F6ED 27 03                          beq     loc_F6F2
13773:     F6EF BD F750                        jsr     sub_F750
13774:                                 
13775:     F6F2                        loc_F6F2:
13776:     F6F2 BD C49A                        jsr     sub_C49A
13777:     F6F5 BD C4CE                        jsr     sub_C4CE
13778:     F6F8 BD C674                        jsr     sub_C674
13779:     F6FB B6 1023                        ldaa    TFLG1_TimerInterruptFlag1
13780:     F6FE 85 08                          bita    #$08
13781:     F700 27 03                          beq     loc_F705
13782:     F702 BD F75A                        jsr     sub_F75A
13783:                                 
13784:     F705                        loc_F705:
13785:     F705 B6 1023                        ldaa    TFLG1_TimerInterruptFlag1
13786:     F708 85 10                          bita    #$10
13787:     F70A 27 03                          beq     loc_F70F
13788:     F70C BD F750                        jsr     sub_F750
13789:                                 
13790:     F70F                        loc_F70F:
13791:     F70F BD C726                        jsr     sub_C726
13792:     F712 13 20 04 0D                    brclr   <IPL1 $04 loc_F723
13793:     F716 B6 1023                        ldaa    TFLG1_TimerInterruptFlag1
13794:     F719 85 10                          bita    #$10
13795:     F71B 27 03                          beq     loc_F720
13796:     F71D BD F750                        jsr     sub_F750
13797:                                 
13798:     F720                        loc_F720:
13799:     F720 BD C79F                        jsr     loc_C79F
13800:                                 
13801:     F723                        loc_F723:
13802:     F723 7F 00E0                        clr     ATMOffset
13803:     F726 96 D8                          ldaa    <DRBPointer1
13804:     F728 81 0A                          cmpa    #$0A
13805:     F72A 26 06                          bne     locret_F732
13806:     F72C 7F 00D8                        clr     DRBPointer1
13807:     F72F 15 DB 30                       bclr    <DRBSerialMode $30
13808:                                 
13809:     F732                        locret_F732:
13810:     F732 3B                             rti
13811:                                 
13812:     F733                        PAII:
13813:     F733 CC 9E61                        ldd     #$9E61
13814:     F736 B4 1022                        anda    TMSK1_TimerInterruptMask1
13815:     F739 B7 1022                        staa    TMSK1_TimerInterruptMask1
13816:     F73C F7 1023                        stab    TFLG1_TimerInterruptFlag1
13817:     F73F CC 0FF0                        ldd     #$0FF0
13818:     F742 B4 1024                        anda    TMSK2_TimerInterruptMask2
13819:     F745 B7 1024                        staa    TMSK2_TimerInterruptMask2
13820:     F748 F7 1025                        stab    TFLG2_TimerInterruptFlag2
13821:     F74B 3B                             rti
13822:                                 
13823:     F74C                        nullsub_1:
13824:     F74C 39                             rts
13825:                                 
13826:     F74D                        OC4I:
13827:     F74D 8D 01                          bsr     sub_F750
13828:     F74F 3B                             rti
13829:                                 
13830:     F750                        sub_F750:
13831:     F750 CC 1014                        ldd     #TIC3_Counter_IC3_CrankSensor
13832:     F753 B7 1023                        staa    TFLG1_TimerInterruptFlag1
13833:     F756 39                             rts
13834:                                 
13835:     F757                        I4_I5:
13836:     F757 8D 01                          bsr     sub_F75A
13837:     F759 3B                             rti
13838:                                 
13839:     F75A                        sub_F75A:
13840:     F75A 86 08                          ldaa    #$08
13841:     F75C B7 1023                        staa    TFLG1_TimerInterruptFlag1
13842:     F75F 13 3A 80 39                    brclr   <BitFlags_BF_t3 $80 locret_F79C
13843:     F763 D6 35                          ldab    <TimerOverflowsBetweenCamPulses
13844:     F765 26 35                          bne     locret_F79C
13845:     F767 13 20 01 31                    brclr   <IPL1 $01 locret_F79C
13846:     F76B F6 1020                        ldab    TCTL1_TimerControlReg1
13847:     F76E C8 01                          eorb    #$01
13848:     F770 C5 01                          bitb    #$01
13849:     F772 26 04                          bne     loc_F778
13850:     F774 13 20 02 24                    brclr   <IPL1 $02 locret_F79C
13851:                                 
13852:     F778                        loc_F778:
13853:     F778 F7 1020                        stab    TCTL1_TimerControlReg1
13854:     F77B 54                             lsrb
13855:     F77C 25 1F                          bcs     loc_F79D
13856:     F77E C6 01                          ldab    #$01
13857:     F780 96 4E                          ldaa    <CalculatedSparkAdvance
13858:     F782 81 58                          cmpa    #$58
13859:     F784 24 06                          bcc     loc_F78C
13860:     F786 5C                             incb
13861:     F787 81 30                          cmpa    #$30
13862:     F789 24 01                          bcc     loc_F78C
13863:     F78B 5C                             incb
13864:                                 
13865:     F78C                        loc_F78C:
13866:     F78C 96 3A                          ldaa    <BitFlags_BF_t3
13867:     F78E 84 07                          anda    #$07
13868:     F790 11                             cba
13869:     F791 25 14                          bcs     loc_F7A7
13870:     F793 FC 6495                        ldd     AntiDwellTime_HB
13871:                                 
13872:     F796                        loc_F796:
13873:     F796 F3 101E                        addd    TOC5_Counter_OC5_Dwell
13874:     F799 FD 101E                        std     TOC5_Counter_OC5_Dwell
13875:                                 
13876:     F79C                        locret_F79C:
13877:     F79C 39                             rts
13878:                                 
13879:     F79D                        loc_F79D:
13880:     F79D 15 20 02                       bclr    <IPL1 $02
13881:     F7A0 DC 36                          ldd     <DistributorFallingEdgePulsewidth_HB
13882:     F7A2 B3 6495                        subd    AntiDwellTime_HB
13883:     F7A5 20 EF                          bra     loc_F796
13884:                                 
13885:     F7A7                        loc_F7A7:
13886:     F7A7 F6 1020                        ldab    TCTL1_TimerControlReg1
13887:     F7AA CA 03                          orab    #$03
13888:     F7AC F7 1020                        stab    TCTL1_TimerControlReg1
13889:     F7AF 39                             rts
13890:                                 
13891:     F7B0                        IRQ_tbl_1:
13892:     F7B0 04 04 04 04 03 03              fcb $04, $04, $04, $04, $03, $03, $03, $03
           F7B6 03 03 
13893:     F7B8 02 02 02 02 01 01              fcb $02, $02, $02, $02, $01, $01, $01, $01
           F7BE 01 01 
13894:                                 
13895:     F7C0                        IRQ_tbl_2:
13896:     F7C0 03 02 02 02 02 01              fcb $03, $02, $02, $02, $02, $01, $01, $01
           F7C6 01 01 
13897:     F7C8 01 01 01 01 01 01              fcb $01, $01, $01, $01, $01, $01, $01, $01
           F7CE 01 01 
13898:                                 
13899:     F7D0                        IRQ:
13900:     F7D0 CE 1023                        ldx     #TFLG1_TimerInterruptFlag1
13901:     F7D3 1F 00 04 03                    brclr   $00,x $04 loc_F7DA
13902:     F7D7 7E F85A                        jmp     loc_F85A
13903:                                 
13904:     F7DA                        loc_F7DA:
13905:     F7DA FE 100E                        ldx     TCNT_Counter_FreeRunning16bit
13906:     F7DD C6 0C                          ldab    #$0C
13907:     F7DF 3A                             abx
13908:                                 
13909:     F7E0                        loc_F7E0:
13910:     F7E0 B6 6401                        ldaa    SwitchPortAccessReg2
13911:     F7E3 B8 6403                        eora    PIA_Ctrl_2
13912:     F7E6 44                             lsra
13913:     F7E7 25 7C                          bcs     loc_F865
13914:     F7E9 BC 100E                        cpx     TCNT_Counter_FreeRunning16bit
13915:     F7EC 2A F2                          bpl     loc_F7E0
13916:     F7EE 13 EC 40 23                    brclr   <Ram_EC $40 loc_F815
13917:     F7F2 B6 6401                        ldaa    SwitchPortAccessReg2
13918:     F7F5 85 80                          bita    #$80
13919:     F7F7 26 1C                          bne     loc_F815
13920:     F7F9 15 EC 40                       bclr    <Ram_EC $40
13921:     F7FC CE F7B0                        ldx     #IRQ_tbl_1
13922:     F7FF 12 27 40 03                    brset   <BitFlags27 $40 loc_F806
13923:     F803 CE F7C0                        ldx     #IRQ_tbl_2
13924:                                 
13925:     F806                        loc_F806:
13926:     F806 D6 EC                          ldab    <Ram_EC
13927:     F808 17                             tba
13928:     F809 C4 0F                          andb    #$0F
13929:     F80B 3A                             abx
13930:     F80C E6 00                          ldab    $00,x
13931:     F80E 84 F0                          anda    #$F0
13932:     F810 1B                             aba
13933:     F811 8A 10                          oraa    #$10
13934:     F813 97 EC                          staa    <Ram_EC
13935:                                 
13936:     F815                        loc_F815:
13937:     F815 86 02                          ldaa    #$02
13938:     F817 F6 6401                        ldab    SwitchPortAccessReg2
13939:     F81A 54                             lsrb
13940:     F81B 24 07                          bcc     loc_F824
13941:     F81D 4F                             clra
13942:     F81E 12 27 80 02                    brset   <BitFlags27 $80 loc_F824
13943:     F822 86 05                          ldaa    #$05
13944:                                 
13945:     F824                        loc_F824:
13946:     F824 13 3A 80 0C                    brclr   <BitFlags_BF_t3 $80 loc_F834
13947:     F828 C6 0C                          ldab    #$0C
13948:     F82A 13 27 80 02                    brclr   <BitFlags27 $80 loc_F830
13949:     F82E C6 08                          ldab    #$08
13950:                                 
13951:     F830                        loc_F830:
13952:     F830 D1 F4                          cmpb    <Ram_F4
13953:     F832 26 15                          bne     loc_F849
13954:                                 
13955:     F834                        loc_F834:
13956:     F834 C6 84                          ldab    #$84
13957:     F836 97 3B                          staa    <CylinderPointer
13958:     F838 12 3A 80 06                    brset   <BitFlags_BF_t3 $80 loc_F842
13959:     F83C 7F 0044                        clr     KeyOnOrEngineRunningTime
13960:     F83F 7F 0045                        clr     Counter_MainLoop
13961:                                 
13962:     F842                        loc_F842:
13963:     F842 D7 3A                          stab    <BitFlags_BF_t3
13964:     F844 14 2B 80                       bset    <BitFlags2b $80
13965:     F847 20 03                          bra     loc_F84C
13966:                                 
13967:     F849                        loc_F849:
13968:     F849 15 2B 80                       bclr    <BitFlags2b $80
13969:                                 
13970:     F84C                        loc_F84C:
13971:     F84C 13 05 01 0A                    brclr   <Ram_05 $01 loc_F85A
13972:     F850 F6 64B9                        ldab    UNe_64B9
13973:     F853 CB 20                          addb    #$20
13974:     F855 25 03                          bcs     loc_F85A
13975:     F857 F7 64B9                        stab    UNe_64B9
13976:                                 
13977:     F85A                        loc_F85A:
13978:     F85A B6 6403                        ldaa    PIA_Ctrl_2
13979:     F85D 88 01                          eora    #$01
13980:     F85F B7 6403                        staa    PIA_Ctrl_2
13981:     F862 7F 00F4                        clr     Ram_F4
13982:                                 
13983:     F865                        loc_F865:
13984:     F865 86 01                          ldaa    #$01
13985:     F867 B7 6405                        staa    PIA_Ctrl_4
13986:     F86A 3B                             rti
13987:                                 
13988:                                 
13989:                                 ;>>>>>>>>>>>>>>>>MCU eeprom<<<<<<<<<<<<<<<<<<
13990:                                  IF Data_start == $2000
13995:                                  ENDIF
13996:                                 ;>>>>>>>>>>>>>>>>>>>>><<<<<<<<<<<<<<<<<<<<<<<
13997:                                 
13998:                                 
13999:          =0000FFA1               ORG $FFA1
14000:     FFA1 FF                             fcb     $FF
14001:     FFA2 FF                             fcb     $FF
14002:          =0000FFA5               ORG $FFA5
14003:     FFA5 31 39 39 34 20 43              fcc     '1994 COPYRIGHT CHRYSLER .'
           FFAB 4F 50 59 52 49 47 
           FFB1 48 54 20 43 48 52 
           FFB7 59 53 4C 45 52 20 
           FFBD 2E 
14004:     FFBE 80 02                          fcb     $80, $02
14005:                                 
14006:          =0000FFC0               ORG $FFC0
14007:     FFC0 FF                     RESERVFFC0: fcb $FF
14008:     FFC1 FF                     RESERVFFC1: fcb $FF
14009:     FFC2 FF                     RESERVFFC2: fcb $FF
14010:     FFC3 FF                     RESERVFFC3: fcb $FF
14011:     FFC4 FF                     RESERVFFC4: fcb $FF
14012:     FFC5 FF                     RESERVFFC5: fcb $FF
14013:     FFC6 FF                     RESERVFFC6: fcb $FF
14014:     FFC7 FF                     RESERVFFC7: fcb $FF
14015:     FFC8 FF                     RESERVFFC8: fcb $FF
14016:     FFC9 FF                     RESERVFFC9: fcb $FF
14017:     FFCA FF                     RESERVFFCA: fcb $FF
14018:     FFCB FF                     RESERVFFCB: fcb $FF
14019:     FFCC FF                     RESERVFFCC: fcb $FF
14020:     FFCD FF                     RESERVFFCD: fcb $FF
14021:     FFCE FF                     RESERVFFCE: fcb $FF
14022:     FFCF FF                     RESERVFFCF: fcb $FF
14023:     FFD0 FF                     RESERVFFD0: fcb $FF
14024:     FFD1 FF                     RESERVFFD1: fcb $FF
14025:     FFD2 FF                     RESERVFFD2: fcb $FF
14026:     FFD3 FF                     RESERVFFD3: fcb $FF
14027:     FFD4 FF                     RESERVFFD4: fcb $FF
14028:     FFD5 FF                     RESERVFFD5: fcb $FF
14029:     FFD6 940C                               fdb SCISS
14030:     FFD8 9410                               fdb SPIE
14031:     FFDA F733                               fdb PAII
14032:     FFDC F733                               fdb PAII
14033:     FFDE F733                               fdb PAII
14034:     FFE0 F757                               fdb I4_I5
14035:     FFE2 F74D                               fdb OC4I
14036:     FFE4 F733                               fdb PAII
14037:     FFE6 F733                               fdb PAII
14038:     FFE8 EB19                               fdb OC1I
14039:     FFEA F733                               fdb PAII
14040:     FFEC EA26                               fdb IC2I
14041:     FFEE EF33                               fdb loc_EF33
14042:     FFF0 F733                               fdb PAII
14043:     FFF2 F7D0                               fdb IRQ
14044:     FFF4 9400                               fdb XIRQ
14045:     FFF6 9414                               fdb SOFT
14046:     FFF8 9408                               fdb OPC
14047:     FFFA 9404                               fdb NOCOP
14048:     FFFC 943D                               fdb CME
14049:     FFFE 9470                               fdb __RESET
14050:                                 
