			ORG	$8000
		Y0000	EQU	$0000
		Y0001	EQU	$0001
		Y0003	EQU	$0003   ;cs1
		Y0004	EQU	$0004
		Y0005	EQU	$0005
		Y0006	EQU	$0006
		Y0007	EQU	$0007
		Y0008	EQU	$0008
		Y0009	EQU	$0009
		Y000A	EQU	$000A
		Y000B	EQU	$000B
		Y000C	EQU	$000C
		Y000D	EQU	$000D
		Y000E	EQU	$000E
		Y0010	EQU	$0010
		Y0015	EQU	$0015
		Y0017	EQU	$0017
		Y0019	EQU	$0019
		Y001A	EQU	$001A
		Y001B	EQU	$001B
		Y001C	EQU	$001C
		Y001D	EQU	$001D
		Y001E	EQU	$001E
		Y001F	EQU	$001F
		Y0022	EQU	$0022
		Y0023	EQU	$0023
		Y0024	EQU	$0024
		Y0025	EQU	$0025
		Y0026	EQU	$0026
		Y0027	EQU	$0027
		Y0028	EQU	$0028
		Y0029	EQU	$0029
		Y0030	EQU	$0030
		Y0032	EQU	$0032
		Y0033	EQU	$0033
		Y0034	EQU	$0034
		Y0035	EQU	$0035   ;Hig TimeTic
		TimeTic	EQU	$0036
		Y0037	EQU	$0037
		old_tic	EQU	$0038
		Y003A	EQU	$003A
		Y003B	EQU	$003B
		Y003C	EQU	$003C
		Y003D	EQU	$003D
		Y003E	EQU	$003E
		Y0040	EQU	$0040
		Y0042	EQU	$0042
		Y0043	EQU	$0043
		Y0044	EQU	$0044
		Y0045	EQU	$0045
		T_RPM	EQU	$0046
		Y0048	EQU	$0048
		Y0049	EQU	$0049
		Y004A	EQU	$004A
		Y004B	EQU	$004B
		Y004C	EQU	$004C
		Y004D	EQU	$004D
		Y004E	EQU	$004E
		Y004F	EQU	$004F
		Y0050	EQU	$0050		;baro   MAP_DATA1
		Y0051	EQU	$0051
		Y0052	EQU	$0052
		Y0053	EQU	$0053
		Y0054	EQU	$0054
		Y0055	EQU	$0055
		Y0056	EQU	$0056
		Y0057	EQU	$0057
		Y0058	EQU	$0058
		Y0059	EQU	$0059
		Y005A	EQU	$005A   	;TPS_DATA
		Y005B	EQU	$005B		;BATT_Volt
		Y005C	EQU	$005C
		Y005D	EQU	$005D
		Y005F	EQU	$005F
		Y0060	EQU	$0060
		Y0061	EQU	$0061
		Y0062	EQU	$0062
		Y0063	EQU	$0063
		Y0064	EQU	$0064
		Y0065	EQU	$0065
		Y0066	EQU	$0066
		Y0067	EQU	$0067
		Y0068	EQU	$0068
		Y0069	EQU	$0069
		Y006A	EQU	$006A
		Y006B	EQU	$006B
		Y006C	EQU	$006C
		Y006D	EQU	$006D
		Y006F	EQU	$006F
		Y0071	EQU	$0071
		Y0073	EQU	$0073
		Y0075	EQU	$0075
		Y0077	EQU	$0077
		Y0079	EQU	$0079
		Y007A	EQU	$007A
		Y007B	EQU	$007B
		Y007C	EQU	$007C
		Y007D	EQU	$007D
		Y007F	EQU	$007F
		Y0080	EQU	$0080
		Y0081	EQU	$0081
		Y0082	EQU	$0082
		Y0083	EQU	$0083
		Y0084	EQU	$0084
		Y0085	EQU	$0085
		Y0086	EQU	$0086
		Y0087	EQU	$0087
		Y0088	EQU	$0088
		Y008A	EQU	$008A
		Y008C	EQU	$008C
		Y008E	EQU	$008E
		Y0090	EQU	$0090
		Y0092	EQU	$0092
		Y0093	EQU	$0093
		Y0094	EQU	$0094
		Y0095	EQU	$0095
		Y0097	EQU	$0097
		Y0099	EQU	$0099
		Y009A	EQU	$009A
		Y009B	EQU	$009B
		Y009D	EQU	$009D
		Y009E	EQU	$009E
		Y009F	EQU	$009F
		Y00A1	EQU	$00A1
		Y00A2	EQU	$00A2
		Y00A3	EQU	$00A3
		Y00A4	EQU	$00A4
		Y00A6	EQU	$00A6
		Y00A7	EQU	$00A7
		Y00A9	EQU	$00A9
		Y00AA	EQU	$00AA
		Y00AC	EQU	$00AC
		Y00AD	EQU	$00AD
		Y00AF	EQU	$00AF
		Y00B1	EQU	$00B1
		Y00B2	EQU	$00B2
		Y00B3	EQU	$00B3
		Y00B4	EQU	$00B4
		Y00B5	EQU	$00B5
		Y00B6	EQU	$00B6
		Y00B7	EQU	$00B7
		Y00B9	EQU	$00B9
		Y00BA	EQU	$00BA
		Y00BB	EQU	$00BB
		Y00BC	EQU	$00BC
		Y00BD	EQU	$00BD
		Y00BE	EQU	$00BE
		Y00BF	EQU	$00BF
		Y00C0	EQU	$00C0
		Y00C2	EQU	$00C2
		Y00C3	EQU	$00C3
		Y00C4	EQU	$00C4
		Y00C5	EQU	$00C5
		Y00C6	EQU	$00C6
		Y00C7	EQU	$00C7
		Y00C8	EQU	$00C8
		Y00C9	EQU	$00C9
		Y00CA	EQU	$00CA
		Y00CB	EQU	$00CB
		Y00CC	EQU	$00CC
		Y00CD	EQU	$00CD
		Y00CE	EQU	$00CE
		Y00CF	EQU	$00CF
		Y00D0	EQU	$00D0
		Y00D1	EQU	$00D1
		Y00D2	EQU	$00D2
		Y00D3	EQU	$00D3
		Y00D4	EQU	$00D4
		Y00D5	EQU	$00D5		;error bit
		Y00D6	EQU	$00D6		;error bit
		Y00D7	EQU	$00D7		;error bit

		Y00D8	EQU	$00D8           ;command  serial
		Y00D9	EQU	$00D9		;first_data serial
		Y00DA	EQU	$00DA		;next_data serial
		Y00DB	EQU	$00DB		;mode_serial

		Y00DC	EQU	$00DC
		Y00DD	EQU	$00DD
		Y00DE	EQU	$00DE
		Y00DF	EQU	$00DF

		Y00E0	EQU	$00E0
		Y00E2	EQU	$00E2
		Y00E3	EQU	$00E3
		Y00E4	EQU	$00E4
		Y00E6	EQU	$00E6
		Y00E7	EQU	$00E7
		Y00E8	EQU	$00E8
		Y00E9	EQU	$00E9
		Y00EA	EQU	$00EA
		Y00EB	EQU	$00EB
		Y00ED	EQU	$00ED
		Y00EE	EQU	$00EE
		Y00EF	EQU	$00EF
		Y00F0	EQU	$00F0
		Y00F1	EQU	$00F1
		Y00F2	EQU	$00F2
		Y00F3	EQU	$00F3
		Y00F4	EQU	$00F4
		Y00F5	EQU	$00F5
		Y00F6	EQU	$00F6
		Y00F7	EQU	$00F7
		Y00F8	EQU	$00F8
		Y00FA	EQU	$00FA
		Y00FB	EQU	$00FB
		Y00FC	EQU	$00FC

		;internal register CPU
		PORTA	EQU	$1000
		PORTD	EQU	$1008
		DDRD	EQU	$1009
		CFORC	EQU	$100B
		OCM1	EQU	$100C
		OC1D	EQU	$100D
		TCNT	EQU	$100E
		TIC1	EQU	$1010
		TIC2	EQU	$1012
		TOC1	EQU	$1016
		TOC2	EQU	$1018
		TOC3    EQU	$101A
		TOC4	EQU	$101C
		TOC5	EQU	$101E
		TCTL1	EQU	$1020
		TCTL2	EQU	$1021
		TMSK1	EQU	$1022
		TFLG1	EQU	$1023
		TMSK2	EQU	$1024
		TFLG2	EQU	$1025
		PACTL	EQU	$1026
		PACNT	EQU	$1027
		SPCR	EQU	$1028
		SPSR	EQU	$1029
		SPDR	EQU	$102A
		BAUD	EQU	$102B
		SCCR1	EQU	$102C
		SCCR2	EQU	$102D
		SCSR	EQU	$102E
		SCDR	EQU	$102F
		Y1030	EQU	$1030
		Y1031	EQU	$1031
		Y1032	EQU	$1032
		Y1033	EQU	$1033
		Y1034	EQU	$1034
		BPROT	EQU	$1035
		Y1039	EQU	$1039
		Y103A	EQU	$103A
		Y103B	EQU	$103B
		Y103C	EQU	$103C
	     ;external
		Y6000	EQU	$6000
		Y6001	EQU	$6001
		Y6002	EQU	$6002
		Y6003	EQU	$6003
		Y6004	EQU	$6004
		Y6005	EQU	$6005
		Y6006	EQU	$6006
		Y6008	EQU	$6008
		Y600A	EQU	$600A
		Y600C	EQU	$600C
		Y600E	EQU	$600E
		Y6040	EQU	$6040
		Y6080	EQU	$6080
		Y6081	EQU	$6081
		Y6082	EQU	$6082
		Y6083	EQU	$6083
		Y6084	EQU	$6084
		Y6085	EQU	$6085
		Y6086	EQU	$6086
		Y6087	EQU	$6087
		Y6088	EQU	$6088
		Y6089	EQU	$6089
		Y608A	EQU	$608A
		Y608B	EQU	$608B
		Y608D	EQU	$608D
		Y608F	EQU	$608F
		Y6090	EQU	$6090
		Y6091	EQU	$6091
		Y6093	EQU	$6093
		Y6095	EQU	$6095
		Y6097	EQU	$6097
		Y6098	EQU	$6098
		Y6099	EQU	$6099
		Y609A	EQU	$609A
		Y609B	EQU	$609B
		Y609C	EQU	$609C
		Y609D	EQU	$609D
		Y609E	EQU	$609E
		Y609F	EQU	$609F
		Y60A0	EQU	$60A0
		Y60A1	EQU	$60A1	 ;sync time
		Y60A3	EQU	$60A3
		Y60A5	EQU	$60A5
		Y60A6	EQU	$60A6
		Y60A7	EQU	$60A7
		Y60A8	EQU	$60A8
		Y60A9	EQU	$60A9
		Y60AA	EQU	$60AA
		Y60AB	EQU	$60AB
		Y60AC	EQU	$60AC
		Y60AD	EQU	$60AD
		Y60AE	EQU	$60AE
		Y60AF	EQU	$60AF
		Y60B0	EQU	$60B0
		Y60B1	EQU	$60B1
		Y60B2	EQU	$60B2
		Y60B3	EQU	$60B3
		Y60B4	EQU	$60B4
		Y60B5	EQU	$60B5
		Y60B6	EQU	$60B6
		Y60B7	EQU	$60B7
		Y60B8	EQU	$60B8
		Y60B9	EQU	$60B9
		Y60BA	EQU	$60BA
		X60BC	EQU	$60BC
		;------------------------------------------
8000 01 	T8000	FCB	$01
8001 00 		FCB	$00

8002 56 	T8002	FCB	$56
8003 02 		FCB	$02
8004 90 		FCB	$90
8005 09 	D8005	FCB	$09
8006 A2 	D8006	FCB	$A2

8007 56 	T8007	FCB	$56
8008 02 		FCB	$02
8009 90 		FCB	$90
800A 09 		FCB	$09
800B A2 	D800B	FCB	$A2
800C 71 		FCB	$71

800D 4A 	T800D	FCB	$4A
800E 18 		FCB	$18
800F 83 		FCB	$83
8010 88 		FCB	$88
8011 00 	D8011	FCB	$00
8012 05 	D8012	FCB	$05
8013 A2 		FCB	$A2
8014 00 	D8014	FCB	$00
8015 40 	D8015	FCB	$40
8016 02 	D8016	FCB	$02
8017 03 	D8017	FCB	$03
8018 10 	D8018	FCB	$10
8019 02 	D8019	FCB	$02
801A 01 	D801A	FCB	$01
801B 39 	D801B	FCB	$39
801C 26 	D801C	FCB	$26
801D 4C 	D801D	FCB	$4C
801E 05 	D801E	FCB	$05
801F 84 	D801F	FCB	$84
8020 FF 	D8020	FCB	$FF

		;Data To Convert MAP
8021 00 	D8021	FCB	$00   ;Not mul
8022 00 	D8022	FCB	$00   ;Not ADD

8023 00 		FCB	$00
8024 05 	T8024	FCB	$05
8025 1F 		FCB	$1F,$01,$00,$10
8029 5E 		FCB	$5E,$05,$00,$22
802D 6D 		FCB	$6D,$07,$00,$40
8031 7D 		FCB	$7D,$0B,$00,$20
8035 8D 		FCB	$8D,$0D
8037 90 	D8037	FCB	$90
8038 05 	D8038	FCB	$05
8039 0F 		FCB	$0F,$A0,$14,$50
803D 17 		FCB	$17,$70,$20,$D0
8041 23 		FCB	$23,$F0,$2E,$E0
8045 3E 		FCB	$3E,$80,$4E,$20
8049 5D 		FCB	$5D
804A C0 		FCB	$C0
804B 6D 		FCB	$6D
804C 60 		FCB	$60
804D 7D 		FCB	$7D
804E 00 		FCB	$00
804F 8C 		FCB	$8C
8050 A0 		FCB	$A0
8051 9C 		FCB	$9C
8052 40 		FCB	$40

8053 06 	T8053	FCB	$06
8054 10 		FCB	16,$00,$02,$AB
8058 16 		FCB	22,$10,$04,$EC
805C 23 		FCB	35,$50,$04,$00
8060 27 		FCB	39,$60,$02,$0D
8064 4E 		FCB	78,$B0,$01,$03
8068 9C 		FCB	156,$FF
806A FF 		FCB	$FF,$FF,$FF,$FF,$FF,$FF,$FF,$FF

8072 02 	D8072	FDB	610	;* 4 =  2.440
8074 5A 	D8074	FDB	23040	;* 4 = 92.160

8076 00 	D8076	FDB	2       ; * 4 = 8 uS
8078 62 	D8078	FDB	25178	; * 4 = 100.712 ms

807A 37 	D807A	FDB	14285	 ;*4 = 57.140 ms
807C 4E 	D807C	FDB	20000	 ;*4 = 80 ms

807E 00 	D807E	FCB	$00
807F 14 	D807F	FCB	$14
8080 02 	D8080	FCB	$02
8081 0C 	D8081	FCB	$0C
8082 04 	D8082	FCB	$04
		;--------------------------------------------
		;[rpm][map]     fuel table1
8083 11 	T8083	FCB	17   	;row       RMP
8084 09 		FCB	9    	;column    map
8085 00 		FCB	0    	;Flg_Interpol
		;
8086 1C 		FCB	28,28,28,28,28,20,20,20,20
808F 1C 		FCB	28,28,28,28,28,26,30,24,20
8098 1C 		FCB	28,28,28,28,28,27,30,24,20
80A1 1C 		FCB	28,28,28,28,28,42,32,24,20
80AA 1C 		FCB	28,28,28,28,28,56,44,26,12
80B3 1C 		FCB	28,28,28,28,28,57,44,28,12
80BC 1C 		FCB	28,31,36,45,48,59,45,30,13
80C5 1C 		FCB	28,40,50,66,61,60,48,36,22
80CE 1C 		FCB	28,46,57,71,63,65,56,41,28
80D7 1C 		FCB	28,52,64,76,64,70,64,46,35
80E0 1C 		FCB	28,54,72,78,71,70,64,49,37
80E9 1C 		FCB	28,56,80,80,83,70,64,51,38
80F2 1C 		FCB	28,56,84,82,78,72,65,54,38
80FB 1C 		FCB	28,56,84,82,82,69,58,46,43
8104 1C 		FCB	28,56,86,78,76,68,53,46,40
810D 1C 		FCB	28,56,86,90,84,63,60,49,37
8116 1C 		FCB	28,56,86,92,80,62,66,64,42
		;fuel table2
811F 11 	T811F	FCB	17   	;row
8120 09 		FCB	9    	;column
8121 00 		FCB	0    	;FlgIntpol
8122 1C 		FCB	28,28,28,28,28,20,20,20,20
812B 1C 		FCB	28,28,28,28,28,26,30,24,20
8134 1C 		FCB	28,28,28,28,28,$1D,$1E,$18,20
813D 1C 		FCB	28,28,28,28,$30,$25,$1F,$18,$18
8146 1C 		FCB	28,28,28,28,56,$36,$30,$1D,20
814F 1C 		FCB	28,28,28,28,$43,$42,$33,$24,$15
8158 1C 		FCB	28,$29,$31,$31,$46,$42,$37,$26,$16
8161 1C 		FCB	28,$2B,$3B,$3C,$49,$43,$3B,44,$18
816A 1C 		FCB	28,$2D,$45,$4C,$4C,$44,63,$2F,$1B
8173 1C 		FCB	28,$30,$50,$5C,$4F,$44,65,46,$1F
817C 1C 		FCB	28,56,$50,$5C,$58,84,$50,$3C,$30
8185 1C 		FCB	28,56,$4E,$66,$60,$5E,$56,$3C,$2E
818E 1C 		FCB	28,56,$4C,$6E,$66,$60,$4A,$3C,$2D
8197 1C 		FCB	28,56,$4A,$6C,$64,$4E,$44,64,$2A
81A0 1C 		FCB	28,56,$4A,$5C,$4A,$44,$3E,$34,$22
81A9 1C 		FCB	28,56,64,$5C,$48,$42,$3E,$34,$20
81B2 1C 		FCB	28,56,64,$56,$4C,$44,$3C,$34,$28
81BB 03 	D81BB	FCB	$03
81BC 11 	T81BC	FCB	17  	;row
81BD 09 		FCB	9   	;column
81BE 00 		FCB	0	;FlgIntpol
81BF 00 		FCB	0,0,0,0,0,0,0,0,0
81C8 00 		FCB	0,0,0,0,0,0,0,0,0
81D1 00 		FCB	0,0,0,0,0,0,0,0,0
81DA 00 		FCB	0,0,0,0,0,0,0,0,0
81E3 00 		FCB	0,0,0,0,0,0,0,0,0
81EC 00 		FCB	0,0,0,0,0,0,0,0,0
81F5 00 		FCB	0,0,0,0,0,0,0,0,0
81FE 00 		FCB	0,0,0,0,0,0,0,0,0
8207 00 		FCB	0,0,0,0,0,0,0,0,0
8210 00 		FCB	0,0,0,0,0,0,0,0,0
8219 00 		FCB	0,0,0,0,0,0,0,0,0
8222 00 		FCB	0,0,0,0,0,0,0,0,0
822B 00 		FCB	0,0,0,0,0,0,0,0,0
8234 00 		FCB	0,0,0,0,0,0,0,0,0
823D 00 		FCB	0,0,0,0,0,0,0,0,0
8246 00 		FCB	0,0,0,0,0,0,0,0,0
824F 00 		FCB	0,0,0,0,0,0,0,0,0
8258 FF 	T8258	FCB	$FF
8259 FF 		FCB	$FF
825A FE 		FCB	$FE
825B FE 		FCB	$FE
825C FE 		FCB	$FE
825D 9C 		FCB	$9C
825E A4 		FCB	$A4
825F A4 		FCB	$A4
8260 80 		FCB	$80
8261 80 		FCB	$80
8262 80 		FCB	$80
8263 80 		FCB	$80
8264 80 		FCB	$80
8265 80 		FCB	$80
8266 2A 	T8266	FCB	$2A
8267 2A 		FCB	$2A
8268 2A 		FCB	$2A
8269 2A 		FCB	$2A
826A 28 		FCB	$28
826B 26 		FCB	$26
826C 20 		FCB	$20
826D 1E 		FCB	$1E
826E 1A 		FCB	$1A
826F 28 	T826F	FCB	$28
8270 24 		FCB	$24
8271 24 		FCB	$24
8272 20 		FCB	$20
8273 20 		FCB	$20
8274 1A 		FCB	$1A
8275 1A 		FCB	$1A
8276 1A 		FCB	$1A
8277 1A 		FCB	$1A
8278 D0 	D8278	FCB	$D0
8279 02 	D8279	FCB	$02
827A 00 	D827A	FCB	$00
827B 00 	D827B	FCB	$00
827C 00 	T827C	FCB	$00
827D 00 		FCB	$00
827E 00 		FCB	$00
827F 00 		FCB	$00
8280 00 		FCB	$00
8281 00 		FCB	$00
8282 00 		FCB	$00
8283 00 		FCB	$00
8284 00 		FCB	$00
8285 FF 	T8285	FCB	$FF
8286 FF 		FCB	$FF
8287 FF 		FCB	$FF
8288 FF 		FCB	$FF
8289 FF 		FCB	$FF
828A FF 		FCB	$FF
828B FF 		FCB	$FF
828C FF 		FCB	$FF
828D FF 		FCB	$FF
828E 02 	D828E	FCB	$02
828F B3 		FCB	$B3
8290 05 		FCB	$05
8291 4E 		FCB	$4E
8292 04 		FCB	$04
8293 00 		FCB	$00
8294 BD 		FCB	$BD
8295 65 		FCB	$65
8296 15 		FCB	$15
8297 02 		FCB	$02
8298 66 		FCB	$66
8299 79 		FCB	$79
829A 45 		FCB	$45
829B 00 		FCB	$00
829C C0 		FCB	$C0
829D 7D 		FCB	$7D
829E 48 		FCB	$48
829F 01 		FCB	$01
82A0 CE 		FCB	$CE
82A1 9C 		FCB	$9C
82A2 80 		FCB	$80
82A3 08 		FCB	$08
82A4 06 		FCB	$06
82A5 00 		FCB	$00
82A6 D0 		FCB	$D0
82A7 00 		FCB	$00
82A8 01 		FCB	$01
82A9 00 		FCB	$00
82AA 00 		FCB	$00
82AB 00 		FCB	$00
82AC 00 		FCB	$00
82AD 00 		FCB	$00
82AE 00 		FCB	$00
82AF 37 	D82AF	FDB	$37CD
82B1 4E 	D82B1	FDB	20000 		; * 4 = 80 ms
		;table1 crank
82B3 11 	T82B3	FCB	17    	;row
82B4 09 		FCB	9       ;column
82B5 00 		FCB	0	;FlgIntpol
82B6 46 		FCB	 70, 63, 40, 47, 54, 57, 59, 64, 83
82BF 46 		FCB	 70, 62, 40, 47, 54, 57, 59, 64, 83
82C8 52 		FCB	 82, 80, 55, 51, 55, 61, 62, 69, 89
82D1 69 		FCB	105, 88, 75, 68, 66, 68,$48,$4F,$68
82DA 7F 		FCB	127, 96, 80, 82, 89, 85,$5B,$65,$73
82E3 88 		FCB	136, 98,$62,$64,$69, 89,$5E,$69,$79
82EC 91 		FCB	145,112,$71,$6B,$6A,$68,$71,$78,$8A
82F5 9A 		FCB	154,122,$6A,$69,$70,$70,$74,$7E,$88
82FE A3 		FCB	163,131,$6C,$64,$6A,$6A,$74,$84,$90
8307 D0 		FCB	208,144,$8A,$80,$80,$82,$84,$88,$88
8310 F0 		FCB	240,202,$A7,$9A,$92,$92,$92,$8E,$8E
8319 FF 		FCB	255,239,$BD,$A6,160,160,160,$9E,$9E
8322 FF 		FCB	255,239,$B8,$B1,$A6,160,$9C,$97,$97
832B FF 		FCB	255,255,$E2,$C1,$A2,$78,$80,160,$C0
8334 FF 		FCB	255,255,$F4,$CB,160,$AA,$AC,$CE,$F0
833D FF 		FCB	255,255,$80,$90,$A4,$BC,$C8,$E8,$FF
8346 C0 		FCB	192,192,160,$94,$9E,$B0,$C3,$CC,$FF
		;table2 crank
834F 11 	T834F	FCB	17   	;row
8350 09 		FCB	9	;column
8351 00 		FCB	0	;FlgIntpol
8352 38 		FCB	56,$32,$2F,$2F,$2F,$3E,$43,$65,$6E
835B 4C 		FCB	$4C,$4D,$3C,57,56,71,$4E,$6E,$79
8364 61 		FCB	$61,$69,$49,$43,64,$50,$59,$76,$85
836D 77 		FCB	$77,$6E,$51,$4C,$4A,$60,$66,$7D,$84
8376 8E 		FCB	$8E,$74,$5A,$56,84,$70,$73,$84,$83
837F A2 		FCB	$A2,$85,$65,$65,$62,$71,$74,$87,$88
8388 B6 		FCB	$B6,$96,$70,$73,$70,$71,$74,$89,$8D
8391 BE 		FCB	$BE,$99,$78,$76,$74,$72,$78,$8C,$8B
839A B6 		FCB	$B6,$90,$74,$6D,$72,$73,$77,$8E,$92
83A3 B1 		FCB	$B1,$8D,$67,$65,$6B,$70,$77,$91,$90
83AC FF 		FCB	$FF,$CB,$80,$7E,$7E,$7F,$80,$95,$89
83B5 FF 		FCB	$FF,$F9,$A7,$96,$8C,$8C,$84,$91,$99
83BE FF 		FCB	$FF,$FF,$CD,$B2,$A5,$97,$94,$A5,$A4
83C7 FF 		FCB	$FF,$FF,$C2,$AC,$A2,$9F,$95,$AE,$AB
83D0 FF 		FCB	$FF,$FF,$C3,$AF,$A4,$A4,$A6,$BD,$B0
83D9 FF 		FCB	$FF,$FF,$C7,$B3,$A3,$A5,$A2,$BB,$B2
83E2 FF 		FCB	$FF,$FF,$D4,$B8,$A4,$AC,$AC,$C9,$BF
83EB D0 	T83EB	FCB	$D0
83EC A4 		FCB	$A4
83ED 74 		FCB	$74
83EE 18 		FCB	$18
83EF 0E 		FCB	$0E
83F0 0C 		FCB	$0C
83F1 06 		FCB	$06
83F2 06 		FCB	$06
83F3 06 		FCB	$06
83F4 40 	T83F4	FCB	$40
83F5 38 		FCB	$38
83F6 30 		FCB	$30
83F7 22 		FCB	$22
83F8 12 		FCB	$12
83F9 0C 		FCB	$0C
83FA 08 		FCB	$08
83FB 08 		FCB	$08
83FC 04 		FCB	$04
83FD B8 	T83FD	FCB	$B8
83FE 90 		FCB	$90
83FF 50 		FCB	$50
8400 2C 		FCB	$2C
8401 28 		FCB	$28
8402 18 		FCB	$18
8403 10 		FCB	$10
8404 10 		FCB	$10
8405 10 		FCB	$10
8406 2C 	T8406	FCB	$2C
8407 2C 		FCB	$2C
8408 28 		FCB	$28
8409 1A 		FCB	$1A
840A 0C 		FCB	$0C
840B 0C 		FCB	$0C
840C 00 		FCB	$00
840D 00 		FCB	$00
840E 00 		FCB	$00
840F 00 	T840F	FCB	$00
8410 00 		FCB	$00
8411 00 		FCB	$00
8412 00 		FCB	$00
8413 00 		FCB	$00
8414 A0 		FCB	$A0
8415 B0 		FCB	$B0
8416 C0 		FCB	$C0
8417 C0 		FCB	$C0
8418 00 	T8418	FCB	$00
8419 00 		FCB	$00
841A 00 		FCB	$00
841B 00 		FCB	$00
841C 00 		FCB	$00
841D 00 		FCB	$00
841E 00 		FCB	$00
841F 00 		FCB	$00
8420 00 		FCB	$00
8421 40 	T8421	FCB	$40
8422 38 		FCB	$38
8423 2D 		FCB	$2D
8424 20 		FCB	$20
8425 1C 		FCB	$1C
8426 14 		FCB	$14
8427 10 		FCB	$10
8428 1C 		FCB	$1C
8429 1C 		FCB	$1C
		;tbl interpol BATT_Volt1
842A 08 	T842A	FCB	$08
842B 61 		FCB	$61,$FF,$FC,$C0
842F 71 		FCB	$71,$CB,$FB,$20
8433 81 		FCB	$81,$7D,$FD,$C4
8437 92 		FCB	$92,$57,$FE,$40
843B A2 		FCB	$A2,$3B,$FF,$38
843F C2 		FCB	$C2,$22,$FF,$74
8443 E3 		FCB	$E3,$10,$FF,$68
8447 FE 		FCB	$FE,$00
8449 F4 	T8449	FCB	$F4
844A C8 		FCB	$C8
844B 90 		FCB	$90
844C 40 		FCB	$40
844D 20 		FCB	$20
844E 14 		FCB	$14
844F 10 		FCB	$10
8450 0F 		FCB	$0F
8451 0B 		FCB	$0B
8452 CC 	T8452	FCB	$CC
8453 CC 		FCB	$CC
8454 CC 		FCB	$CC
8455 CC 		FCB	$CC
8456 CC 		FCB	$CC
8457 CC 		FCB	$CC
8458 E6 		FCB	$E6
8459 FF 		FCB	$FF
845A FF 		FCB	$FF
845B 0C 	D845B	FCB	$0C
845C 00 		FCB	$00
845D E8 	D845D	FCB	$E8
845E D0 	D845E	FCB	$D0
845F 00 	D845F	FCB	$00
8460 08 	T8460	FCB	$08
8461 08 		FCB	$08
8462 08 		FCB	$08
8463 0A 		FCB	$0A
8464 0C 		FCB	$0C
8465 0E 		FCB	$0E
8466 14 		FCB	$14
8467 1C 		FCB	$1C
8468 1C 		FCB	$1C
8469 1C 	T8469	FCB	$1C
846A 1C 		FCB	$1C
846B 1C 		FCB	$1C
846C 09 		FCB	$09
846D 09 		FCB	$09
846E 09 		FCB	$09
846F 09 		FCB	$09
8470 09 		FCB	$09
8471 09 		FCB	$09
8472 10 	T8472	FCB	$10
8473 10 		FCB	$10
8474 10 		FCB	$10
8475 20 		FCB	$20
8476 20 		FCB	$20
8477 20 		FCB	$20
8478 20 		FCB	$20
8479 20 		FCB	$20
847A 20 		FCB	$20
847B CF 	T847B	FCB	$CF
847C BC 		FCB	$BC
847D A0 		FCB	$A0
847E 2A 		FCB	$2A
847F 2A 		FCB	$2A
8480 2A 		FCB	$2A
8481 1C 		FCB	$1C
8482 16 		FCB	$16
8483 16 		FCB	$16
8484 60 	T8484	FCB	$60
8485 50 		FCB	$50
8486 40 		FCB	$40
8487 32 		FCB	$32
8488 2C 		FCB	$2C
8489 28 		FCB	$28
848A 20 		FCB	$20
848B 20 		FCB	$20
848C 20 		FCB	$20
848D 60 	T848D	FCB	$60
848E 50 		FCB	$50
848F 40 		FCB	$40
8490 40 		FCB	$40
8491 30 		FCB	$30
8492 20 		FCB	$20
8493 10 		FCB	$10
8494 10 		FCB	$10
8495 10 		FCB	$10
8496 80 	T8496	FCB	$80
8497 80 		FCB	$80
8498 7B 	D8498	FCB	$7B
8499 50 	D8499	FCB	$50
849A D6 	D849A	FCB	$D6
849B 20 	T849B	FCB	$20
849C 20 		FCB	$20
849D 00 	D849D	FCB	$00
849E 0A 		FCB	$0A
849F FF 	D849F	FCB	$FF
84A0 EB 		FCB	$EB
84A1 02 	D84A1	FCB	$02
84A2 19 		FCB	$19
84A3 76 	D84A3	FCB	$76

		;Map Coef
84A4 7E 	D84A4	FCB	$7E
84A5 40 	T84A5	FCB	$40
84A6 40 		FCB	$40

84A7 F0 	D84A7	FCB	$F0
84A8 45 	T84A8	FCB	$45
84A9 43 		FCB	$43
84AA 47 		FCB	$47
84AB 1A 		FCB	$1A
84AC 1B 		FCB	$1B
84AD 1C 		FCB	$1C
84AE 1C 		FCB	$1C
84AF 1B 		FCB	$1B
84B0 1B 		FCB	$1B
84B1 06 	D84B1	FCB	$06
84B2 02 	D84B2	FCB	$02
84B3 4E 		FCB	$4E
84B4 05 	T84B4	FCB	$05
84B5 16 		FCB	$16,$00,$04,$92
84B9 24 		FCB	$24,$40,$05,$D1
84BD 2F 		FCB	$2F,$80,$04,$00
84C1 3F 		FCB	$3F,$C0,$04,$33
84C5 4E 		FCB	$4E,$FF
84C7 FF 		FCB	$FF,$FF,$FF,$FF
84CB FF 		FCB	$FF,$FF,$FF,$FF
84CF FF 		FCB	$FF,$FF,$FF,$FF
84D3 05 	T84D3	FCB	5       ;row
84D4 09 		FCB	9       ;column
84D5 00 		FCB	0	;FlgIntpol
84D6 16 		FCB	22,22,22,22,22,22,22,22,22
84DF 16 		FCB	22,22,22,22,22,22,22,22,22
84E8 16 		FCB	22,22,23,23,23,22,22,22,22
84F1 16 		FCB	22,22,22,22,22,22,22,22,22
84FA 16 		FCB	22,22,22,22,22,22,22,22,22
8503 FF 		FCB	$FF,$FF,$FF,$FF,$FF,$FF,$FF,$FF,$FF
850C FF 		FCB	$FF,$FF,$FF,$FF,$FF,$FF,$FF,$FF,$FF
8515 FF 		FCB	$FF,$FF,$FF,$FF,$FF,$FF,$FF,$FF,$FF
851E FF 		FCB	$FF,$FF,$FF,$FF,$FF,$FF,$FF,$FF,$FF
8527 FF 		FCB	$FF,$FF,$FF,$FF,$FF,$FF,$FF,$FF,$FF
8530 FF 		FCB	$FF,$FF,$FF,$FF,$FF,$FF,$FF,$FF,$FF
8539 FF 		FCB	$FF,$FF,$FF,$FF,$FF,$FF,$FF,$FF,$FF
8542 FF 		FCB	$FF,$FF,$FF,$FF,$FF,$FF,$FF,$FF,$FF
854B FF 		FCB	$FF,$FF,$FF,$FF,$FF,$FF,$FF,$FF,$FF
8554 FF 		FCB	$FF,$FF,$FF,$FF,$FF,$FF,$FF,$FF,$FF
855D FF 		FCB	$FF,$FF,$FF,$FF,$FF,$FF,$FF,$FF,$FF
8566 FF 		FCB	$FF,$FF,$FF,$FF,$FF,$FF,$FF,$FF,$FF
856F 05 	T856F	FCB	5       ;row
8570 09 		FCB	9       ;column
8571 00 		FCB	0	;FlgIntpol
8572 1C 		FCB	28,28,28,28,28,28,28,30,30
857B 1C 		FCB	28,28,30,31,31,31,31,31,31
8584 1E 		FCB	30,30,30,30,30,30,30,30,30
858D 1E 		FCB	30,30,30,30,30,30,30,30,30
8596 22 		FCB	34,34,34,36,36,36,36,34,34
859F FF 		FCB	$FF,$FF,$FF,$FF,$FF,$FF,$FF,$FF,$FF
85A8 FF 		FCB	$FF,$FF,$FF,$FF,$FF,$FF,$FF,$FF,$FF
85B1 FF 		FCB	$FF,$FF,$FF,$FF,$FF,$FF,$FF,$FF,$FF
85BA FF 		FCB	$FF,$FF,$FF,$FF,$FF,$FF,$FF,$FF,$FF
85C3 FF 		FCB	$FF,$FF,$FF,$FF,$FF,$FF,$FF,$FF,$FF
85CC FF 		FCB	$FF,$FF,$FF,$FF,$FF,$FF,$FF,$FF,$FF
85D5 FF 		FCB	$FF,$FF,$FF,$FF,$FF,$FF,$FF,$FF,$FF
85DE FF 		FCB	$FF,$FF,$FF,$FF,$FF,$FF,$FF,$FF,$FF
85E7 FF 		FCB	$FF,$FF,$FF,$FF,$FF,$FF,$FF,$FF,$FF
85F0 FF 		FCB	$FF,$FF,$FF,$FF,$FF,$FF,$FF,$FF,$FF
85F9 FF 		FCB	$FF,$FF,$FF,$FF,$FF,$FF,$FF,$FF,$FF
8602 FF 		FCB	$FF,$FF,$FF,$FF,$FF,$FF,$FF,$FF,$FF
860B 0A 	D860B	FCB	$0A
860C 0C 	D860C	FCB	$0C
860D 20 	D860D	FCB	$20
860E 20 	D860E	FCB	$20
860F 04 	D860F	FCB	$04
8610 02 	D8610	FCB	$02
8611 60 	D8611	FCB	$60
8612 0C 	D8612	FCB	$0C
8613 FE 	D8613	FCB	$FE
8614 57 	D8614	FCB	$57
8615 0A 	T8615	FCB	$0A
8616 08 	D8616	FCB	$08
8617 05 	D8617	FCB	$05
8618 60 	D8618	FCB	$60
8619 20 	T8619	FCB	$20
861A FF 	D861A	FCB	$FF

861B 0E 	D861B	FCB	$0E,$08

861D 1F 	D861D	FCB	$1F
861E 05 	D861E	FCB	$05
861F 80 	D861F	FCB	$80
8620 18 	T8620	FCB	$18
8621 C0 		FCB	$C0
8622 D6 	D8622	FCB	$D6
8623 08 	D8623	FCB	$08
8624 18 	D8624	FCB	$18
8625 74 	D8625	FCB	$74
8626 FF 	D8626	FCB	$FF
8627 01 	D8627	FCB	$01
8628 28 	D8628	FCB	$28
8629 10 	T8629	FCB	$10
862A 07 		FCB	$07
862B A0 		FCB	$A0
862C 00 		FCB	$00
862D C0 		FCB	$C0
862E 08 	T862E	FCB	$08
862F 03 		FCB	$03
8630 90 		FCB	$90
8631 00 		FCB	$00
8632 E0 		FCB	$E0
8633 A8 	D8633	FCB	$A8
8634 6C 	D8634	FCB	$6C
8635 10 	D8635	FCB	$10
8636 04 	D8636	FCB	$04
8637 00 	D8637	FCB	$00
8638 0A 	D8638	FCB	$0A
8639 6D 	D8639	FCB	$6D
863A 36 	D863A	FCB	$36
863B 22 	D863B	FCB	$22
863C 5A 	D863C	FCB	$5A
863D F2 	D863D	FCB	$F2
863E 36 	D863E	FCB	$36
863F 00 	D863F	FCB	$00
8640 01 		FCB	$01
8641 6A 	D8641	FCB	$6A
8642 80 	D8642	FCB	$80
8643 04 	D8643	FCB	$04
8644 00 		FCB	$00
8645 02 	D8645	FCB	$02
8646 BF 	D8646	FCB	$BF
8647 FF 	D8647	FCB	$FF
8648 03 	D8648	FCB	$03
8649 01 	D8649	FCB	$01
864A 03 	D864A	FCB	$03
864B 14 	D864B	FCB	$14
864C 94 	D864C	FCB	$94
864D 00 	D864D	FCB	$00
864E 00 		FCB	$00
864F 00 	D864F	FCB	$00
8650 00 		FCB	$00
8651 00 	D8651	FCB	$00
8652 02 	D8652	FCB	$02
8653 03 	D8653	FCB	$03
8654 20 		FCB	$20
8655 5D 	D8655	FCB	$5D
8656 C0 		FCB	$C0
8657 06 	D8657	FCB	$06
8658 40 		FCB	$40
8659 E0 	D8659	FCB	$E0
865A 06 	D865A	FCB	$06
865B A6 	D865B	FCB	$A6
865C 00 		FCB	$00
865D 01 	D865D	FCB	$01
865E 90 		FCB	$90
865F 58 	D865F	FCB	$58
8660 01 	D8660	FCB	$01
8661 03 	D8661	FCB	$03
8662 8D 		FCB	$8D
8663 0A 	D8663	FCB	$0A
8664 1C 	D8664	FCB	$1C
8665 1C 	D8665	FCB	$1C
8666 03 	T8666	FCB	$03
8667 03 		FCB	$03,$00,$01,$C7
866B 0C 		FCB	$0C,$10,$00,$9E
866F 19 		FCB	$19,$18
8671 03 	T8671	FCB	$03
8672 03 		FCB	$03,$00,$FE,$8C
8676 0E 		FCB	$0E,$F0,$FF,$55
867A 1A 		FCB	$1A,$E8
867C 71 	D867C	FCB	$71	;batt 113
867D 03 	T867D	FCB	$03
867E FF 		FCB	$FF,$FF,$00,$00
8682 FF 		FCB	$FF,$FF,$00,$00
8686 FF 		FCB	$FF,$FF
8688 05 	T8688	FCB	$05
8689 6A 		FCB	$6A,$C8,$FC,$BA
868D 80 		FCB	$80,$80,$FD,$80
8691 98 		FCB	$98,$44,$FF,$DB
8695 D0 		FCB	$D0,$3C,$FF,$00
8699 E0 		FCB	$E0,$2C
869B 03 	T869B	FCB	$03
869C 9A 		FCB	$9A,$10,$FF,$D3
86A0 C8 		FCB	$C8,$08,$FF,$CD
86A4 F0 		FCB	$F0,$00
86A6 18 	D86A6	FCB	$18
86A7 94 	D86A7	FCB	$94
86A8 38 	D86A8	FCB	$38	*8
86A9 FF 	D86A9	FCB	$FF
86AA E0 	D86AA	FCB	$E0
86AB 04 	T86AB	FCB	$04
86AC 28 		FCB	$28,$18,$00,$00
86B0 3C 		FCB	$3C,$18,$00,$00
86B4 50 		FCB	$50,$18,$00,$33
86B8 78 		FCB	$78,$20
86BA 00 	D86BA	FCB	$00
86BB 04 	T86BB	FCB	$04
86BC 64 		FCB	$64,$68,$FE,$97
86C0 75 		FCB	$75,$50,$FF,$53
86C4 9A 		FCB	$9A,$37,$FE,$DB
86C8 CA 		FCB	$CA,$00
86CA 03 	T86CA	FCB	$03
86CB 00 		FCB	$00,$00,$00,$00
86CF 10 		FCB	$10,$00,$00,$00
86D3 1A 		FCB	$1A,$00
86D5 04 	T86D5	FCB	$04
86D6 00 		FCB	$00,$00,$00,$00
86DA 02 		FCB	$02,$00,$00,$00
86DE 05 		FCB	$05,$00,$00,$00
86E2 1E 		FCB	$1E,$00
86E4 04 	T86E4	FCB	$04
86E5 20 		FCB	$20,$00,$00,$92
86E9 2E 		FCB	$2E,$08,$00,$00
86ED 3F 		FCB	$3F,$08,$00,$00
86F1 5E 		FCB	$5E,$08
86F3 03 	T86F3	FCB	$03
86F4 9A 		FCB	$9A,$64,$FF,$91
86F8 C8 		FCB	$C8,$50,$FF,$9A
86FC F0 		FCB	$F0,$40
86FE 05 	T86FE	FCB	$05
86FF 68 		FCB	$68,$80,$FF,$A3
8703 94 		FCB	$94,$70,$FF,$8D
8707 A8 		FCB	$A8,$67,$FF,$AD
870B D0 		FCB	$D0,$5A,$00,$00
870F F8 		FCB	$F8,$5A
8711 05 	T8711	FCB	$05
8712 68 		FCB	$68,$80,$FF,$A3
8716 94 		FCB	$94,$70,$FF,$8D
871A A8 		FCB	$A8,$67,$FF,$AD
871E D0 		FCB	$D0,$5A,$00,$00
8722 F8 		FCB	$F8,$5A
8724 02 	T8724	FCB	$02
8725 00 		FCB	$00,$00,$00,$00
8729 00 		FCB	$00,$00
872B FF 		FCB	$FF,$FF,$FF,$FF
872F 5A 	D872F	FCB	$5A
8730 64 	D8730	FCB	$64
8731 05 	T8731	FCB	$05
8732 28 		FCB	$28,$01,$00,$00
8736 4B 		FCB	$4B,$02,$00,$00
873A 5A 		FCB	$5A,$03,$00,$00
873E 78 		FCB	$78,$05,$00,$00
8742 96 		FCB	$96,$08
8744 05 	T8744	FCB	$05
8745 28 		FCB	$28,$FF,$00,$00
8749 50 		FCB	$50,$FE,$00,$00
874D A6 		FCB	$A6,$FD,$00,$00
8751 C8 		FCB	$C8,$FC,$00,$00
8755 FF 		FCB	$FF,$F7
8757 10 	D8757	FCB	$10
8758 0C 	D8758	FCB	$0C
8759 E8 	D8759	FCB	$E8
875A 00 	T875A	FCB	$00
875B 00 		FCB	$00
875C 00 		FCB	$00
875D 00 		FCB	$00
875E 00 		FCB	$00
875F 00 		FCB	$00
8760 00 		FCB	$00
8761 00 		FCB	$00
8762 00 		FCB	$00
8763 2F 	D8763	FCB	$2F
8764 1A 	T8764	FCB	$1A
8765 1A 		FCB	$1A
8766 1A 		FCB	$1A
8767 1A 		FCB	$1A
8768 1A 		FCB	$1A
8769 1A 		FCB	$1A
876A 16 		FCB	$16
876B 08 		FCB	$08
876C 08 		FCB	$08
876D 38 	D876D	FCB	$38
876E D8 	D876E	FCB	$D8
876F 8B 	T876F	FCB	$8B
8770 8B 		FCB	$8B
8771 FF 	D8771	FCB	$FF
8772 10 	D8772	FCB	$10
8773 00 	D8773	FCB	$00
8774 03 	T8774	FCB	$03
8775 80 		FCB	$80
8776 F0 		FCB	$F0
8777 FF 		FCB	$FF
8778 66 		FCB	$66
8779 94 		FCB	$94
877A E4 		FCB	$E4
877B 00 		FCB	$00
877C 32 		FCB	$32
877D D2 		FCB	$D2
877E F0 		FCB	$F0
877F 03 	T877F	FCB	$03
8780 80 		FCB	$80,$10,$00,$66
8784 94 		FCB	$94,$18,$FF,$DF
8788 D2 		FCB	$D2,$10
878A 03 	T878A	FCB	$03
878B 9A 		FCB	$9A,$DC,$00,$59
878F C8 		FCB	$C8,$EC,$00,$80
8793 F0 		FCB	$F0,$00
8795 FF 		FCB	$FF,$FF,$FF,$FF,$FF,$FF,$FF,$FF
879D 02 	T879D	FCB	$02
879E 0B 		FCB	$0B,$00,$00,$00
87A2 1B 		FCB	$1B,$00
87A4 FF 		FCB	$FF,$FF,$FF,$FF
87A8 05 	T87A8	FCB	$05
87A9 68 		FCB	$68,$30,$FF,$55
87AD 80 		FCB	$80,$20,$FF,$D5
87B1 B0 		FCB	$B0,$18,$FF,$76
87B5 D5 		FCB	$D5,$04,$FC,$00
87B9 D6 		FCB	$D6,$00
87BB 04 	T87BB	FCB	$04
87BC 19 		FCB	$19,$00,$00,$00
87C0 1F 		FCB	$1F,$00,$00,$00
87C4 26 		FCB	$26,$00,$00,$00
87C8 70 		FCB	$70,$00
87CA 03 	T87CA	FCB	$03
87CB 9A 		FCB	$9A,$00,$00,$00
87CF C8 		FCB	$C8,$00,$00,$00
87D3 F0 		FCB	$F0,$00
87D5 02 	T87D5	FCB	$02
87D6 90 		FCB	$90,$FF,$00,$00
87DA C7 		FCB	$C7,$FF
87DC FF 		FCB	$FF,$FF,$FF,$FF
87E0 04 	T87E0	FCB	$04
87E1 0F 		FCB	$0F,$00,$01,$00
87E5 11 		FCB	$11,$02,$00,$80
87E9 13 		FCB	$13,$03,$00,$AB
87ED 16 		FCB	$16,$05
87EF 04 	T87EF	FCB	$04
87F0 05 		FCB	$05,$00,$FF,$CD
87F4 0A 		FCB	$0A,$FF,$FF,$CD
87F8 0F 		FCB	$0F,$FE,$00,$00
87FC 14 		FCB	$14,$FE
87FE 20 	D87FE	FCB	$20
87FF D6 	D87FF	FCB	$D6
8800 02 	D8800	FCB	$02
8801 10 	D8801	FCB	$10
8802 5A 	D8802	FCB	$5A
8803 00 	D8803	FCB	$00
8804 10 	D8804	FCB	$10
8805 7F 	D8805	FCB	$7F

8806 0F 	D8806	FCB	$0FA0

8808 2D 	D8808	FCB	$2D
8809 FE 	D8809	FCB	$FE
880A 88 	D880A	FCB	$88
880B FD 	D880B	FCB	$FD

880C FF 	D880C	FCB	$FFA0
880E FF 	D880E	FCB	$FF00

8810 02 	D8810	FCB	$02
8811 B6 	D8811	FCB	$B6
8812 07 	D8812	FCB	$07
8813 04 	D8813	FCB	$04
8814 FF 	D8814	FCB	$FF
8815 FF 	D8815	FCB	$FF
8816 1B 	D8816	FCB	$1B
8817 0A 	D8817	FCB	$0A
8818 04 	D8818	FCB	$04
8819 70 	D8819	FCB	$70
881A 03 	D881A	FCB	$03
881B 9B 	D881B	FCB	$9B
881C A0 	D881C	FCB	$A0
881D FF 	D881D	FCB	$FF
881E FE 	D881E	FCB	$FE
881F E7 	T881F	FCB	$E7
8820 E2 		FCB	$E2
8821 E7 		FCB	$E7
8822 E2 		FCB	$E2
8823 0B 	D8823	FCB	$0B
8824 9B 		FCB	$9B
8825 00 	D8825	FCB	$00
8826 C0 		FCB	$C0
8827 15 	D8827	FCB	$15
8828 C0 	D8828	FCB	$C0
8829 92 	D8829	FCB	$92
882A 00 	D882A	FCB	$00
882B 20 	D882B	FCB	$20
882C 32 	D882C	FCB	$32
882D 00 	D882D	FCB	$00
882E 06 	D882E	FCB	$06
882F 40 	D882F	FCB	$40
8830 06 	T8830	FCB	$06
8831 1C 		FCB	$1C,$24,$00,$E7
8835 3B 		FCB	$3B,$40,$05,$C0
8839 3F 		FCB	$3F,$57,$06,$AB
883D 42 		FCB	$42,$6B,$00,$00
8841 54 		FCB	$54,$6B,$00,$00
8845 54 		FCB	$54,$A8

8847 04 	T8847	FCB	$04
8848 1F 		FCB	$1F,$0F,$00,$F7
884C 74 		FCB	$74,$61,$00,$00
8850 8A 		FCB	$8A,$61,$00,$00
8854 8A 		FCB	$8A,$A8
8856 FF 		FCB	$FF,$FF,$FF,$FF
885A FF 		FCB	$FF,$FF,$FF,$FF
885E 04 	T885E	FCB	$04
885F 1F 		FCB	$1F,$0F,$00,$F7
8863 74 		FCB	$74,$61,$00,$00
8867 8A 		FCB	$8A,$61,$00,$00
886B 8A 		FCB	$8A,$A8
886D FF 		FCB	$FF,$FF,$FF,$FF
8871 FF 		FCB	$FF,$FF,$FF,$FF
8875 B8 	D8875	FCB	$B8
8876 07 	D8876	FCB	$07	 ;mask subr
8877 7C 	D8877	FCB	$7C
8878 14 	D8878	FCB	$14
8879 66 	D8879	FCB	$66
887A 81 	T887A	FCB	$81
887B 18 		FCB	$18
887C 20 	D887C	FCB	$20
887D 11 	D887D	FCB	$11
887E 00 	D887E	FCB	$00
887F 04 	T887F	FCB	$04
8880 64 		FCB	$64
8881 0F 		FCB	$0F
8882 00 		FCB	$00
8883 00 		FCB	$00
8884 64 		FCB	$64
8885 2E 		FCB	$2E
8886 00 		FCB	$00
8887 AB 		FCB	$AB
8888 82 		FCB	$82
8889 42 		FCB	$42
888A 00 		FCB	$00
888B 00 		FCB	$00
888C 82 		FCB	$82
888D A8 		FCB	$A8
888E 02 		FCB	$02
888F 64 		FCB	$64
8890 0F 		FCB	$0F
8891 00 		FCB	$00
8892 00 		FCB	$00
8893 96 		FCB	$96
8894 0F 		FCB	$0F
8895 FF 		FCB	$FF
8896 FF 		FCB	$FF
8897 FF 		FCB	$FF
8898 FF 		FCB	$FF
8899 FF 		FCB	$FF
889A FF 		FCB	$FF
889B FF 		FCB	$FF
889C FF 		FCB	$FF
889D 04 	T889D	FCB	$04
889E 5E 		FCB	$5E
889F 05 		FCB	$05
88A0 00 		FCB	$00
88A1 00 		FCB	$00
88A2 5E 		FCB	$5E
88A3 33 		FCB	$33
88A4 00 		FCB	$00
88A5 AB 		FCB	$AB
88A6 7C 		FCB	$7C
88A7 47 		FCB	$47
88A8 00 		FCB	$00
88A9 00 		FCB	$00
88AA 7C 		FCB	$7C
88AB A8 		FCB	$A8
88AC 02 		FCB	$02
88AD 5E 		FCB	$5E
88AE 05 		FCB	$05
88AF 00 		FCB	$00
88B0 00 		FCB	$00
88B1 96 		FCB	$96
88B2 05 		FCB	$05
88B3 FF 		FCB	$FF
88B4 FF 		FCB	$FF
88B5 FF 		FCB	$FF
88B6 FF 		FCB	$FF
88B7 FF 		FCB	$FF
88B8 FF 		FCB	$FF
88B9 FF 		FCB	$FF
88BA FF 		FCB	$FF

88BB 50 	D88BB	FCB	$50
88BC 20 	D88BC	FCB	$20
88BD 1A 	D88BD	FCB	$1A
88BE 05 	D88BE	FCB	$05
88BF 0A 	D88BF	FCB	$0A
88C0 05 	D88C0	FCB	$05
88C1 10 	D88C1	FCB	$10
88C2 0F 	D88C2	FCB	$0F
88C3 49 	D88C3	FCB	$49
88C4 07 	D88C4	FCB	$07

88C5 FF 	T88C5	FCB	$FF
88C6 FF 		FCB	$FF
88C7 41 		FCB	$41
88C8 41 		FCB	$41
88C9 41 		FCB	$41
88CA 35 		FCB	$35
88CB 38 		FCB	$38
88CC 3B 		FCB	$3B
88CD 3B 		FCB	$3B

88CE 08 	D88CE	FCB	$08
88CF 14 	D88CF	FCB	$14
88D0 71 	D88D0	FCB	$71
88D1 FE 	D88D1	FCB	$FE
88D2 F0 	D88D2	FCB	$F0
88D3 02 	D88D3	FCB	$02
88D4 52 	D88D4	FCB	$52
88D5 1A 	D88D5	FCB	$1A
88D6 04 	D88D6	FCB	$04
88D7 A0 	D88D7	FCB	$A0
88D8 AA 	D88D8	FCB	$AA
88D9 46 	D88D9	FCB	$46
88DA 40 	D88DA	FCB	$40
88DB 00 	D88DB	FCB	$00
88DC 3C 	D88DC	FCB	$3C
88DD 9A 	D88DD	FCB	$9A
88DE 05 	D88DE	FCB	$05
88DF 00 		FCB	$00
88E0 2D 		FCB	$2D
88E1 00 	D88E1	FCB	$00
88E2 00 	D88E2	FCB	$00
88E3 02 	D88E3	FCB	$02
88E4 01 	D88E4	FCB	$01
88E5 01 	D88E5	FCB	$01
88E6 03 	D88E6	FCB	$03
88E7 03 	D88E7	FCB	$03
88E8 40 	D88E8	FCB	$40
88E9 20 	D88E9	FCB	$20
88EA 04 	D88EA	FCB	$04
88EB 18 	D88EB	FCB	$18
88EC 06 	D88EC	FCB	$06
88ED 74 	D88ED	FCB	$74
88EE 02 	D88EE	FCB	$02
88EF 04 	D88EF	FCB	$04
88F0 10 	D88F0	FCB	$10
88F1 F0 	D88F1	FCB	$F0
88F2 04 	D88F2	FCB	$04
88F3 04 	D88F3	FCB	$04
88F4 28 	D88F4	FCB	$28
88F5 D8 	D88F5	FCB	$D8
88F6 0B 	D88F6	FCB	$0B
88F7 08 	D88F7	FCB	$08
88F8 04 	T88F8	FCB	$04
88F9 00 		FCB	$00,$00,$FF,$F4
88FD 40 		FCB	$40,$FD,$FF,$D4
8901 80 		FCB	$80,$F2,$FF,$F0
8905 C0 		FCB	$C0,$EE
8907 05 	T8907	FCB	$05
8908 00 		FCB	$00,$00,$00,$30
890C 10 		FCB	$10,$03,$00,$1B
8910 40 		FCB	$40,$08,$00,$18
8914 80 		FCB	$80,$0E,$00,$0C
8918 FF 		FCB	$FF,$14
891A FF 		FCB	$FF,$FF,$FF,$FF
891E 04 	T891E	FCB	$04
891F 00 		FCB	$00,$00,$01,$00
8923 10 		FCB	$10,$10,$00,$F0
8927 20 		FCB	$20,$1F,$00,$88
892B 40 		FCB	$40,$30
892D 04 	T892D	FCB	$04
892E 46 		FCB	$46,$22,$00,$22
8932 64 		FCB	$64,$26,$00,$33
8936 82 		FCB	$82,$2C,$00,$33
893A A0 		FCB	$A0,$32
893C 06 	T893C	FCB	$06
893D 30 		FCB	$30,$9B,$FF,$A8
8941 50 		FCB	$50,$90,$FF,$70
8945 60 		FCB	$60,$87,$FF,$C8
8949 80 		FCB	$80,$80,$00,$00
894D 90 		FCB	$90,$80,$FF,$30
8951 B0 		FCB	$B0,$66
8953 04 	T8953	FCB	$04
8954 80 		FCB	$80,$80,$00,$0D
8958 94 		FCB	$94,$81,$00,$0A
895C C6 		FCB	$C6,$83,$00,$00
8960 EE 		FCB	$EE,$83
8962 FF 		FCB	$FF,$FF,$FF,$FF,$FF,$FF,$FF,$FF
896A FF 		FCB	$FF,$FF,$FF,$FF,$FF,$FF,$FF,$FF
8972 04 	T8972	FCB	$04
8973 3C 		FCB	$3C,$16,$FF,$73
8977 50 		FCB	$50,$0B,$FF,$A6
897B 64 		FCB	$64,$04,$FF,$E6
897F 82 		FCB	$82,$01
8981 03 	T8981	FCB	$03
8982 00 		FCB	$00,$10,$00,$5D
8986 16 		FCB	$16,$18,$FF,$A3
898A 2C 		FCB	$2C,$10
898C FF 		FCB	$FF,$FF,$FF,$FF
8990 02 	T8990	FCB	$02
8991 02 		FCB	$02,$0C,$07,$00
8995 04 		FCB	$04,$1A
8997 FF 		FCB	$FF,$FF,$FF,$FF
899B 02 	T899B	FCB	$02
899C 20 		FCB	$20,$E0,$FF,$00
89A0 30 		FCB	$30,$D0
89A2 FF 		FCB	$FF,$FF,$FF,$FF,$FF,$FF,$FF,$FF
89AA 02 	T89AA	FCB	$02
89AB 90 		FCB	$90,$00,$00,$60
89AF 98 		FCB	$98,$03
89B1 FF 		FCB	$FF,$FF,$FF,$FF
89B5 03 	T89B5	FCB	$03
89B6 90 		FCB	$90,$FF,$FA,$B5
89BA A8 		FCB	$A8,$80,$FC,$CD
89BE D0 		FCB	$D0,$00
89C0 03 	T89C0	FCB	$03
89C1 60 		FCB	$60,$00,$00,$00
89C5 78 		FCB	$78,$00,$00,$00
89C9 80 		FCB	$80,$00
89CB 03 	T89CB	FCB	$03
89CC 80 		FCB	$80,$00,$00,$00
89D0 94 		FCB	$94,$00,$00,$00
89D4 A8 		FCB	$A8,$00

89D6 10 	T89D6	FCB	$10
89D7 26 		FCB	$26
89D8 00 		FCB	$00
89D9 00 		FCB	$00
89DA 00 		FCB	$00
89DB 00 		FCB	$00

89DC 04 	D89DC	FCB	$04
89DD 11 	D89DD	FCB	$11
89DE EB 	D89DE	FCB	$EB
89DF 00 	D89DF	FCB	$00	;mask error bit  Y00D6
89E0 38 	D89E0	FCB	$38
89E1 63 	D89E1	FCB	$63
89E2 E4 	D89E2	FCB	$E4
89E3 CF 	D89E3	FCB	$CF
89E4 32 	D89E4	FCB	$32
89E5 AA 	D89E5	FCB	$AA
89E6 04 	D89E6	FCB	$04
89E7 BD 	D89E7	FCB	$BD     ;189 [volt_bat]
89E8 79 	D89E8	FCB	$79     ;121 [volt_bat]
89E9 1A 	D89E9	FCB	$1A
89EA FD 	D89EA	FCB	$FD
89EB A8 	D89EB	FCB	$A8
89EC 1A 	D89EC	FCB	$1A
89ED FD 	D89ED	FCB	$FD
89EE A8 	D89EE	FCB	$A8
89EF 10 	D89EF	FCB	$10
89F0 2E 	D89F0	FCB	$2E
89F1 E0 		FCB	$E0
89F2 8E 	D89F2	FCB	$8E
89F3 7F 	D89F3	FCB	$7F
89F4 04 	D89F4	FCB	$04
89F5 06 	D89F5	FCB	$06
89F6 2E 	D89F6	FCB	$2E
89F7 22 	D89F7	FCB	$22
89F8 14 	D89F8	FCB	$14
89F9 0A 	D89F9	FCB	$0A
89FA 38 	D89FA	FCB	$38
89FB 70 	D89FB	FCB	$70
89FC B0 	D89FC	FCB	$B0
89FD 08 	D89FD	FCB	$08
89FE F0 	D89FE	FCB	$F0
89FF D1 	D89FF	FCB	$D1
8A00 20 	D8A00	FCB	$20
8A01 28 	D8A01	FCB	$28
8A02 2F 	D8A02	FCB	$2F
8A03 28 	D8A03	FCB	$28
8A04 DC 	D8A04	FCB	$DC
8A05 8C 	D8A05	FCB	$8C
8A06 64 	D8A06	FCB	$64
8A07 CE 	D8A07	FCB	$CE
8A08 AB 	D8A08	FCB	$AB
8A09 02 	D8A09	FCB	$02      ;min_map  2
8A0A FD 	D8A0A	FCB	$FD      ;max_map  253
8A0B 66 	D8A0B	FCB	$66	 ;map_xx   102
8A0C 01 	D8A0C	FCB	$01	 ;dif_map  1
8A0D 02 	D8A0D	FCB	$02
8A0E 05 	D8A0E	FCB	$05
8A0F F0 	T8A0F	FCB	$F0
8A10 80 		FCB	$80
8A11 50 		FCB	$50
8A12 40 		FCB	$40
8A13 30 		FCB	$30
8A14 30 		FCB	$30
8A15 20 		FCB	$20
8A16 20 		FCB	$20
8A17 20 		FCB	$20
8A18 10 		FCB	$10
8A19 10 		FCB	$10
8A1A 10 		FCB	$10
8A1B 10 		FCB	$10
8A1C 00 		FCB	$00
8A1D 00 		FCB	$00
8A1E 00 		FCB	$00
8A1F 12 	D8A1F	FDB	$12C0      ;rpm
8A21 2E 	D8A21	FDB	$2EE0 	   ;rpm
8A23 12 	D8A23	FCB	$12        ;map   18
8A24 F7 	D8A24	FCB	$F7        ;map  247
8A25 02 	D8A25	FCB	$02
8A26 00 		FCB	$00
8A27 CE 	D8A27	FCB	$CE
8A28 21 	T8A28	FCB	$21
8A29 10 		FCB	$10
8A2A 05 	T8A2A	FCB	$05
8A2B 00 		FCB	$00,$00,$07,$11
8A2F 0F 		FCB	$0F,$6A,$07,$6E
8A33 16 		FCB	$16,$9E,$00,$A0
8A37 36 		FCB	$36,$B2,$01,$E0
8A3B 46 		FCB	$46,$D0
8A3D 14 	D8A3D	FCB	$14
8A3E 0F 	D8A3E	FCB	$0F
8A3F 20 	D8A3F	FCB	$20
8A40 08 	D8A40	FCB	$08
8A41 E1 	D8A41	FCB	$E1
8A42 80 	D8A42	FCB	$80
8A43 1F 	D8A43	FCB	$1F
8A44 29 	D8A44	FCB	$29
8A45 07 	D8A45	FCB	$07
8A46 C7 	D8A46	FCB	$C7     ;199  [map]
8A47 5A 	D8A47	FCB	$5A	;90   [map]
8A48 5E 	D8A48	FCB	$5E
8A49 1F 	D8A49	FCB	$1F
8A4A 80 	D8A4A	FCB	$80
8A4B 01 	D8A4B	FCB	$01
8A4C C7 		FCB	$C7
8A4D 2B 	D8A4D	FCB	$2B
8A4E 58 	D8A4E	FCB	$58
8A4F 08 	D8A4F	FCB	$08
8A50 21 	D8A50	FCB	$21
8A51 6E 	D8A51	FCB	$6E     ;110  [map]
8A52 AD 	D8A52	FCB	$AD     ;173  [map]
8A53 80 	D8A53	FCB	$80
8A54 07 	D8A54	FCB	$07
8A55 01 	D8A55	FCB	$01
8A56 6C 		FCB	$6C
8A57 08 	D8A57	FCB	$08
8A58 27 	D8A58	FCB	$27
8A59 57 	D8A59	FCB	$57
8A5A 08 	T8A5A	FDB	$0800
8A5C 00 		FDB	$0000
8A5E 00 		FDB	$0000
8A60 00 		FDB	$0000
8A62 00 		FDB	$0000
8A64 00 		FDB	$0000
8A66 00 		FDB	$0000
8A68 00 		FDB	$0000
8A6A 00 		FCB	$00
8A6B 3F 		FCB	$3F

			ORG     $9400
		;XIRQ
9400 C601	A9400	LDAB	#1
9402 2012		BRA	A9416
		* ------------------- *
		;COP Failure
9404 C602	A9404	LDAB	#2
9406 200E		BRA	A9416
		* ------------------- *
		;Illegal Opcode Trap
9408 C604	A9408	LDAB	#4
940A 200A		BRA	A9416
		* ------------------- *
		;SCI Serial System
940C C610	A940C	LDAB	#$10
940E 2006		BRA	A9416
		* ------------------- *
		;SPI Serial Transfer Complete
9410 C620	A9410	LDAB	#$20
9412 2002		BRA	A9416
		* ------------------- *
		;Software Interrupt
9414 C640	A9414	LDAB	#$40
		;----------------------
9416 0F 	A9416	SEI
9417 CA80		ORAB	#$80            ;Set FlgError Interrupt
9419 F76099		STAB	Y6099
941C CC02A9		LDD	#$02A9
941F B71024		STAA	TMSK2           ;Set PR1:PR0  10
9422 F71039		STAB	Y1039           ;OPTION
9425 86F8		LDAA	#$F8
9427 B71035		STAA	BPROT		;disable
942A 30 		TSX
942B EC07		LDD	7,X
942D DD01		STD	Y0001           ;adr interrupt
942F FD609A		STD	Y609A
9432 8E60FF		LDS	#$60FF
9435 7F0003		CLR	Y0003   ;cs1L
9438 7F0004		CLR	Y0004   ;cs1H
943B 2065		BRA	A94A2
		* ------------------- *
		;Clock Monitor Fail
943D 0F 	A943D	SEI
943E 8E60FF		LDS	#$60FF
9441 CC02A9		LDD	#$02A9
9444 B71024		STAA	TMSK2           ;Set PR1:PR0   10
9447 F71039		STAB	Y1039           ;OPTION
944A 86F8		LDAA	#$F8
944C B71035		STAA	BPROT		;disable
944F 4F 		CLRA
9450 5F 		CLRB
9451 B76099		STAA	Y6099           ;clear
9454 FD609A		STD	Y609A
9457 CE0000		LDX	#$0000
945A A600	A945A	LDAA	,X
945C 8100		CMPA	#0
945E 2608		BNE	A9468
9460 08 		INX
9461 8C0020		CPX	#$0020
9464 25F4		BCS	A945A
9466 203A		BRA	A94A2
		* ------------------- *
9468 DC0E	A9468	LDD	Y000E
946A 17 		TBA
946B 53 		COMB
946C DD03		STD	Y0003        ;cs1
946E 2032		BRA	A94A2
		* ------------------- *
		;RESET    START_POWER
		;memory map
		;Internal RAM 0x0000
		;Register     0x1000
9470 0F 	A9470	SEI
9471 8E60FF		LDS	#$60FF
9474 CC02A9		LDD	#$02A9
	       	        ;base time timer 4 mkS
9477 B71024		STAA	TMSK2           ;Set PR1:PR0   00000010 div/8

947A F71039		STAB	Y1039         ;OPTION = 1010 1001
	       ; 5 IRQ is configured for edge-sensitive-only operation.
	       ; CR[1:0]   65.536 ms
947D 86F8		LDAA	#$F8
947F B71035		STAA	BPROT
9482 4F 		CLRA
9483 5F 		CLRB
9484 B76099		STAA	Y6099         ;Clear
9487 FD609A		STD	Y609A         ;Clear

948A DC0E		LDD	Y000E
948C 17 		TBA
948D 53 		COMB
948E 188F		XGDY
9490 BDE682		JSR	AE682         ;math cs_word 0x05..0x1F
9493 1A9303		CPD	Y0003         ;cs1
9496 2704		BEQ	A949C
9498 18CE0000		LDY	#$0000
949C 18DF03	A949C	STY	Y0003         ;cs1
949F 14050A		BSET	Y0005,#$0A    ;1010

		;-----------------------------
		;Entry not  Reset
94A2 BDE52D	A94A2	JSR	AE52D    	;RSTCOP1
94A5 8690		LDAA	#$90
94A7 06 		TAP
94A8 C60F		LDAB	#$0F            ;Highest Priority OC5
94AA B68015		LDAA	D8015           ;0x40
94AD 8508		BITA	#8
94AF 2702		BEQ	A94B3
94B1 C606		LDAB	#6              ;Highest Priority IRQ
94B3 F7103C	A94B3	STAB	Y103C		;Highest Priority I Bit Interrupt
94B6 7F100C		CLR	OCM1		;Disable to pin pa
94B9 7F100D		CLR	OC1D
94BC CC00FF		LDD	#$00FF
94BF B71022		STAA	TMSK1           ;Disable all  Interrupts
94C2 F71023		STAB	TFLG1		;clear all flags

		;Initial Mode Capture
94C5 861A		LDAA	#$1A            ;00 01 10 10

		;00[4] Capture disabled

		;  датчик коленвала
		;01[1] Capture on rising edges only   __/~~~
		;  датчик скорости
		;10[2] Capture on falling edges only ~~~\___
		;  датчик коленвала
		;10[3] Capture on falling edges only ~~~\___
94C7 B71021		STAA	TCTL2
94CA CCAA78		LDD	#TAA78
94CD B71020		STAA	TCTL1           ;10 10 10 10
94D0 F7100B		STAB	CFORC           ;FOC2,3,4,5
94D3 CC7520		LDD	#$7520
94D6 B76040		STAA	Y6040
94D9 97CF		STAA	Y00CF           ;01110101
94DB F71008		STAB	PORTD		;PORTD = 0x20
94DE CC088F		LDD	#$088F
94E1 B76000		STAA	Y6000
94E4 F76002		STAB	Y6002
94E7 F66002		LDAB	Y6002
94EA C4F7		ANDB	#$F7
94EC F76002		STAB	Y6002
94EF BDE537		JSR	AE537     	;RSTCOP
94F2 BDE537		JSR	AE537     	;RSTCOP
94F5 CC3A55		LDD	#$3A55
94F8 B71009		STAA	DDRD		;DDRD = 0x3A 11 1010
94FB B61029		LDAA	SPSR
94FE F71028		STAB	SPCR            ;0101 0101
9501 BDE537		JSR	AE537		;RSTCOP
9504 CCF870		LDD	#$F870
9507 B76006		STAA	Y6006
		;0111 0000
		; 1 = Pulse accumulator enabled
		;  1 = Gated time accumulation
		;   1 = Gated time accumulation  (накопление)

		;   A 1 on PAI inhibits counting.
		;  11  запрет накоплени при 1 на входе
		; Real-Time Interrupt  00  4.096 ms
950A F71026		STAB	PACTL		;Pulse Accumulator Control
950D 4F 		CLRA
950E B7103B		STAA	PPROG
9511 B76003		STAA	Y6003
		;
9514 CC0008		LDD	#$0008
9517 FD6008		STD	Y6008
951A FD600A		STD	Y600A
951D FD600C		STD	Y600C
9520 FD600E		STD	Y600E
		;--------------------------------
9523 CC0C22		LDD	#$0C22          ;Enable TE & RE
9526 B7102D		STAA	SCCR2
		;scp 010  scr 010     baud = 7813
9529 F7102B		STAB	BAUD		; = 0x22
		;clear status & data
952C FC102E		LDD	SCSR
952F BDE537		JSR	AE537           ;RSTCOP
9532 7F102C		CLR	SCCR1
9535 CE0020		LDX	#$0020          ;Clear 0x0020....0x0FF

9538 DC03		LDD	Y0003    	;Test
953A 43 		COMA                    ;check sum word1
953B 11 		CBA
953C 272F		BEQ	A956D           ;cs OKey
		;else
953E C608		LDAB	#8
9540 B66099		LDAA	Y6099          ;Test FlgError Interrupt
9543 2A02		BPL	A9547          ;No Error
9545 C680		LDAB	#$80
9547 D705	A9547	STAB	Y0005          ;0x80  or 8
9549 847F		ANDA	#$7F
954B 9700		STAA	Y0000
954D FC609A		LDD	Y609A
9550 DD01		STD	Y0001
9552 865C		LDAA	#$5C
9554 9706		STAA	Y0006
9556 8680		LDAA	#$80
9558 9709		STAA	Y0009
955A 970B		STAA	Y000B
955C 970A		STAA	Y000A
955E B688BC		LDAA	D88BC
9561 970C		STAA	Y000C
9563 CC40DF		LDD	#$40DF
9566 9707		STAA	Y0007
9568 D708		STAB	Y0008
		;Clear 0x000E....0x0FF    if error check sum
956A CE000E		LDX	#$000E
		;else
		;Clear 0x0020.... 0x0FF
956D 18CE0594	A956D	LDY	#$0594
9571 1809	A9571	DEY                ;Delay
9573 26FC		BNE	A9571
		;Clear Internal RAM
9575 09 		DEX
9576 5F 		CLRB
9577 08 	A9577	INX
9578 E700		STAB	,X
957A 8C00FF		CPX	#$00FF
957D 25F8		BCS	A9577

957F B68015		LDAA	D8015
9582 9727		STAA	Y0027
		;Clear External RAM
		;6080 - 60B8
9584 CE6080		LDX	#$6080
9587 09 		DEX
9588 5F 		CLRB
9589 08 	A9589	INX
958A E700		STAB	,X
958C 8C60B9		CPX	#$60B9
958F 25F8		BCS	A9589

9591 86E5		LDAA	#$E5
9593 97CF		STAA	Y00CF           ;11100101
9595 B76040		STAA	Y6040
9598 BDE537		JSR	AE537           ;RSTCOP
		;Delay
959B 18CE0594		LDY	#$0594
959F 1809	A959F	DEY
95A1 26FC		BNE	A959F
		;------------------------------------------
95A3 8614		LDAA	#$14		;ADR[4:7]
95A5 B71030		STAA	Y1030           ;ADCTL
95A8 B61030	A95A8	LDAA	Y1030           ; ADCTL
95AB 2AFB		BPL	A95A8           ; wait conversion

95AD B61031		LDAA	Y1031          	;ADR4 coolant
95B0 B760AA		STAA	Y60AA          	;coolant temp

95B3 96CF		LDAA	Y00CF
95B5 847F		ANDA	#$7F           ;01111111
95B7 97CF		STAA	Y00CF
95B9 B76040		STAA	Y6040
95BC BDE537		JSR	AE537           ;RSTCOP
		;delay
95BF 18CE0476		LDY	#1142
95C3 1809	A95C3	DEY
95C5 26FC		BNE	A95C3
		;------------------------------
95C7 8614		LDAA	#$14            ;ADR[4:7]
95C9 B71030		STAA	Y1030           ;ADCTL
95CC B61030	A95CC	LDAA	Y1030           ;ADCTL
95CF 2AFB		BPL	A95CC           ; wait conversion
		;------------------------------
95D1 B61031		LDAA	Y1031		;ADC4 coolant
95D4 B760A8		STAA	Y60A8           ;coolant temp
95D7 B660A8		LDAA	Y60A8
95DA F660AA		LDAB	Y60AA
95DD 3D 		MUL
95DE FD609A		STD	Y609A
95E1 F660A8		LDAB	Y60A8
95E4 F060AA		SUBB	Y60AA
95E7 231B		BLS	A9604
		;
95E9 4F 		CLRA
95EA 8F 		XGDX
95EB FC609A		LDD	Y609A
95EE 58 		ASLB
95EF 8900		ADCA	#0
95F1 16 		TAB
95F2 3A 		ABX
95F3 FC609A		LDD	Y609A
95F6 02 		IDIV
95F7 8F 		XGDX
95F8 4D 		TSTA
95F9 2609		BNE	A9604
95FB 17 		TBA
95FC CEE301		LDX	#TE301
95FF BDE3AC		JSR	AE3AC      ;Interpol
9602 2002		BRA	A9606
		* ------------------- *
9604 86C1	A9604	LDAA	#$C1
9606 9767	A9606	STAA	Y0067
9608 BDBCE3		JSR	ABCE3
960B BDBCB0		JSR	ABCB0
960E 96CF		LDAA	Y00CF
9610 8A10		ORAA	#$10
9612 97CF		STAA	Y00CF
9614 B76040		STAA	Y6040
9617 BDE537		JSR	AE537           ;RSTCOP
961A 18CE0594		LDY	#$0594
961E 1809	A961E	DEY
9620 26FC		BNE	A961E
9622 8614		LDAA	#$14            ;ADR[4:7]
9624 B71030		STAA	Y1030           ;ADCTL
9627 B61030	A9627	LDAA	Y1030           ;ADCTL
962A 2AFB		BPL	A9627           ; wait conversion
962C B61031		LDAA	Y1031           ;coolant temp ADR3
962F 8140		CMPA	#$40
9631 2409		BCC	A963C
9633 96CF		LDAA	Y00CF
9635 84EF		ANDA	#$EF            ;11101111
9637 97CF		STAA	Y00CF
9639 B76040		STAA	Y6040
963C BDE537	A963C	JSR	AE537           ;RSTCOP

963F 18CE0594		LDY	#$0594
9643 1809	A9643	DEY
9645 26FC		BNE	A9643

9647 8614		LDAA	#$14            ;ADR[4:7]
9649 B71030		STAA	Y1030           ;ADCTL
964C B61030	A964C	LDAA	Y1030           ;ADCTL
964F 2AFB		BPL	A964C           ; wait conversion

9651 B61031		LDAA	Y1031           ;ADC4 coolant
9654 9759		STAA	Y0059           ;CLT_DATA

9656 B61030	A9656	LDAA	Y1030           ;ADCTL
9659 2AFB		BPL	A9656           ; wait conversion

965B B61032		LDAA	Y1032           ;ADC5 = MAT
965E 8140		CMPA	#$40            ;64
9660 2409		BCC	A966B
9662 96CF		LDAA	Y00CF
9664 84DF		ANDA	#$DF            ;11011111
9666 97CF		STAA	Y00CF
9668 B76040		STAA	Y6040
966B BDE537	A966B	JSR	AE537           ;RSTCOP

966E 18CE0594		LDY	#$0594
9672 1809	A9672	DEY
9674 26FC		BNE	A9672

9676 8614		LDAA	#$14            ;ADR[4:7]
9678 B71030		STAA	Y1030           ;ADCTL
967B B61030	A967B	LDAA	Y1030           ;ADCTL
967E 2AFB		BPL	A967B           ; wait conversion

9680 F61032		LDAB	Y1032		;ADC5 = MAT
9683 D758		STAB	Y0058           ;MAT_DATA

9685 8610		LDAA	#$10            ;start
9687 B71030		STAA	Y1030           ;     ADCTL
968A BDE537		JSR	AE537           ;RSTCOP
968D B61030	A968D	LDAA	Y1030           ;ADCTL
9690 2AFB		BPL	A968D		; wait conversion

9692 BDBCD0		JSR	ABCD0           ;Get BATT_DATA
9695 975B		STAA	Y005B           ;BATT_V
9697 F61034		LDAB	Y1034           ;
969A D75A		STAB	Y005A		;TPS_DATA

969C B61031		LDAA	Y1031           ;MAP
969F BDE432		JSR	AE432           ;Convert Map
96A2 9750		STAA	Y0050           ;baro
96A4 5F 		CLRB
96A5 DD90		STD	Y0090           ;MAP_DATA2
96A7 B760A9		STAA	Y60A9
96AA 1305080B		BRCLR	Y0005,#8,A96B9
96AE 8180		CMPA	#$80
96B0 2402		BCC	A96B4
96B2 8680		LDAA	#$80
96B4 970D	A96B4	STAA	Y000D
96B6 150508		BCLR	Y0005,#8
		;---------------------------------
96B9 B61031	A96B9	LDAA	Y1031           ;MAP
96BC 97EA		STAA	Y00EA		;MAP
96BE 97EB		STAA	Y00EB           ;MAP
96C0 13050226		BRCLR	Y0005,#2,A96EA  ;no reset mode
96C4 13050422		BRCLR	Y0005,#4,A96EA  ;
96C8 B18A0B		CMPA	D8A0B		;102
96CB 241D		BCC	A96EA
		;
96CD C602		LDAB	#2
96CF 8610	A96CF	LDAA	#$10
96D1 B71030		STAA	Y1030           ;ADCTL
96D4 B61030	A96D4	LDAA	Y1030           ;ADCTL
96D7 2AFB		BPL	A96D4
96D9 B61031		LDAA	Y1031           ;MAP
96DC B18A0B		CMPA	D8A0B           ;  102
96DF 2409		BCC	A96EA
96E1 5A 		DECB
96E2 26EB		BNE	A96CF           ;loop
		;-------------------------------
96E4 14D508		BSET	$D5,#8
96E7 142E80		BSET	$2E,#$80
		;no reset mode
96EA 150502	A96EA	BCLR	Y0005,#2       ;end reset mode
96ED 9605		LDAA	Y0005
96EF 84C0		ANDA	#$C0
96F1 8180		CMPA	#$80
96F3 2616		BNE	A970B		;error interrupt
		; next error interrupt  mode
96F5 CC0AFF		LDD	#$0AFF
96F8 DDD8		STD	Y00D8     ;cmd_serial = 0x0A  Y00D9 = 0xFF
96FA 86F1		LDAA	#$F1
96FC B760B2		STAA	Y60B2     ;=0xF1
96FF C6FF		LDAB	#$FF
9701 9627		LDAA	Y0027
9703 85C0		BITA	#$C0
9705 271C		BEQ	A9723
9707 C6FB		LDAB	#$FB
9709 2018		BRA	A9723
		* ------------------- *
		; first error interrupt mode
970B 9605	A970B	LDAA	Y0005
970D 8B40		ADDA	#$40         ;
970F 9705		STAA	Y0005
9711 B66002		LDAA	Y6002
9714 8A04		ORAA	#4
9716 B76002		STAA	Y6002
		;--------------------------
9719 C6EF		LDAB	#$EF        ;1110 1111
971B 9627		LDAA	Y0027
971D 85C0		BITA	#$C0
971F 2702		BEQ	A9723
9721 C6EB		LDAB	#$EB        ;1110 1011
9723 D7CE	A9723	STAB	Y00CE
9725 96CF		LDAA	Y00CF
9727 84FB		ANDA	#$FB         ;11111011
9729 B76040		STAA	Y6040
972C 97CF		STAA	Y00CF
972E F11029		CMPB	SPSR
9731 F7102A		STAB	SPDR
9734 3D 		MUL
9735 3D 		MUL
9736 01 		NOP
9737 96CF		LDAA	Y00CF        ;
9739 8A04		ORAA	#4           ;00000100
973B 97CF		STAA	Y00CF        ;
973D B76040		STAA	Y6040
9740 F61028		LDAB	SPCR
9743 C4FC		ANDB	#$FC
9745 F71028		STAB	SPCR           ;Serial Peripheral Control
		;--------------------------
9748 BDE537		JSR	AE537          ;RSTCOP
974B CE0535		LDX	#$0535
974E B66000	A974E	LDAA	Y6000
9751 8510		BITA	#$10
9753 2603		BNE	A9758
9755 09 		DEX
9756 26F6		BNE	A974E
		;---------------------------
9758 BDE537	A9758	JSR	AE537           ;RSTCOP
975B B66002		LDAA	Y6002
975E 84FB		ANDA	#$FB
9760 B76002		STAA	Y6002

9763 B660A7		LDAA	Y60A7
9766 8A03		ORAA	#3
9768 B760A7		STAA	Y60A7

976B 140501		BSET	Y0005,#1       ;start

976E 142410		BSET	$24,#$10
9771 1462FF		BSET	$62,#$FF
9774 142210		BSET	$22,#$10
9777 142544		BSET	$25,#$44
977A 140720		BSET	7,#$20
977D 150710		BCLR	7,#$10
9780 1431A0		BSET	$31,#$A0
9783 8680		LDAA	#$80
9785 9733		STAA	Y0033
9787 CCFFFF		LDD	#$FFFF
978A DD36		STD	TimeTic
978C DD34		STD	Y0034
978E DD3C		STD	Y003C
9790 DD3E		STD	Y003E
9792 974C		STAA	Y004C
9794 9650		LDAA	Y0050           ;MAP_DATA1
9796 5F 		CLRB
9797 DD8A		STD	Y008A
9799 DD8C		STD	Y008C
979B DD8E		STD	Y008E
		;---------------------------
979D 965A		LDAA	Y005A		;TPS_DATA
979F DD95		STD	Y0095
97A1 DD97		STD	Y0097
97A3 CEB616		LDX	#EEPROM+$16
97A6 A600		LDAA	,X
97A8 814A		CMPA	#$4A
97AA 2608		BNE	A97B4
97AC 43 		COMA
97AD A101		CMPA	1,X
97AF 2603		BNE	A97B4
97B1 142D04		BSET	$2D,#4
97B4 9659	A97B4	LDAA	Y0059           ;CLT_DATA
97B6 CEE28E		LDX	#TE28E
97B9 13CF1003		BRCLR	$CF,#$10,A97C0
97BD CEE273		LDX	#TE273
97C0 BDE3AC	A97C0	JSR	AE3AC
97C3 9754		STAA	Y0054
97C5 9659		LDAA	Y0059           ;CLT_DATA
97C7 B189EA		CMPA	D89EA
97CA 2409		BCC	A97D5
97CC B189E9		CMPA	D89E9
97CF 2504		BCS	A97D5
97D1 9654		LDAA	Y0054
97D3 2003		BRA	A97D8
		* ------------------- *
97D5 B689EB	A97D5	LDAA	D89EB
97D8 9754	A97D8	STAA	Y0054
97DA CEE29D		LDX	#TE29D
97DD BDE3AC		JSR	AE3AC
97E0 9755		STAA	Y0055
97E2 9756		STAA	Y0056
97E4 9658		LDAA	Y0058		;MAT_DATA
97E6 CEE28E		LDX	#TE28E
97E9 13CF2003		BRCLR	$CF,#$20,A97F0
97ED CEE273		LDX	#TE273
97F0 BDE3AC	A97F0	JSR	AE3AC
97F3 9752		STAA	Y0052
97F5 9658		LDAA	Y0058           ;MAT_DATA
97F7 B189ED		CMPA	D89ED
97FA 2409		BCC	A9805
97FC B189EC		CMPA	D89EC
97FF 2504		BCS	A9805
9801 9652		LDAA	Y0052
9803 2003		BRA	A9808
		* ------------------- *
9805 B689EE	A9805	LDAA	D89EE
9808 9752	A9808	STAA	Y0052
980A CEE2DE		LDX	#TE2DE
980D BDE3AC		JSR	AE3AC
9810 9757		STAA	Y0057
9812 965A		LDAA	Y005A           ;TPS_DATA
9814 9751		STAA	Y0051
9816 D606		LDAB	Y0006
9818 FB8017		ADDB	D8017
981B F1801B		CMPB	D801B
981E 2509		BCS	A9829
9820 8B06		ADDA	#6
9822 F6801B		LDAB	D801B
9825 11 		CBA
9826 2401		BCC	A9829
9828 16 		TAB
9829 D706	A9829	STAB	Y0006
982B 9654		LDAA	Y0054
982D B189E1		CMPA	D89E1
9830 2505		BCS	A9837
9832 B189E2		CMPA	D89E2
9835 2503		BCS	A983A
9837 142802	A9837	BSET	$28,#2
983A BDC26C	A983A	JSR	AC26C
983D BDBF74		JSR	ABF74
9840 FC100E		LDD	TCNT
9843 C303E8		ADDD	#1000    ;* 4
9846 FD1016		STD	TOC1     ; 4 ms
9849 BDEA3A		JSR	AEA3A
984C 96CF		LDAA	Y00CF
984E 8A01		ORAA	#1
9850 B76040		STAA	Y6040
9853 84FE		ANDA	#$FE      ;
9855 97CF		STAA	Y00CF
9857 B76040		STAA	Y6040

		;-----------------------------
985A CEE26F		LDX	#TE26F     ;6,5,9,A
		;0110  1001  0010
	        ;0101  1010  0100
		;1001  0110  1100
		;1010  0101  1010

985D D610		LDAB	Y0010
985F 3A 		ABX
9860 E600		LDAB	,X
9862 17 		TBA
9863 53 		COMB
9864 58 		ASLB
9865 58 		ASLB
9866 58 		ASLB
9867 58 		ASLB
9868 840F		ANDA	#$0F
986A 1B 		ABA
986B CE1008		LDX	#PORTD
986E 1D0020		BCLR	,X,#$20      	;PORTD  0010 0000
9871 B11029		CMPA	SPSR
9874 B7102A		STAA	SPDR
9877 96CF		LDAA	Y00CF
9879 8A01		ORAA	#1
987B 97CF		STAA	Y00CF
987D B76040		STAA	Y6040
9880 3D 		MUL                     ;delay
9881 1C0020		BSET	,X,#$20         ;PORTD
		;------------------------------
9884 86BF		LDAA	#$BF
9886 F68016		LDAB	D8016
9889 C520		BITB	#$20
988B 2709		BEQ	A9896
988D F68015		LDAB	D8015
9890 C501		BITB	#1
9892 2702		BEQ	A9896
9894 84DF		ANDA	#$DF
9896 97CD	A9896	STAA	Y00CD
9898 B66000		LDAA	Y6000
989B 8A01		ORAA	#1
989D B76000		STAA	Y6000

98A0 CE0238		LDX	#$0238
98A3 09 	A98A3	DEX
98A4 26FD		BNE	A98A3

98A6 BDD31E		JSR	AD31E
98A9 0E 		CLI
98AA FC100E		LDD	TCNT
98AD FD60A1		STD	Y60A1     ;init sync time
98B0 2010		BRA	A98C2	  ;Main Loop
		* ------------------- *
98B2 9972	T98B2	FDB	A9972     ;0 Subr0
98B4 997B		FDB	A997B	  ;1 Subr1
98B6 99DF		FDB	A99DF     ;2 MainSubr
98B8 9994		FDB	A9994     ;3 Subr3
98BA 99DF		FDB	A99DF     ;4 MainSubr
98BC 99B3		FDB	A99B3     ;5 Subr5
98BE 99CC		FDB	A99CC     ;6 Subr6
98C0 99DF		FDB	A99DF     ;7 MainSubr

		;	Main Loop
98C2 BDE523	A98C2	JSR	AE523           ;WatcDog & Reset COP
						;togle 0x6000 bit 2
98C5 B68015		LDAA	D8015
98C8 9727		STAA	Y0027
98CA 0F 		SEI
98CB FC100E		LDD	TCNT
98CE FD6099		STD	Y6099    	;start time main Loop
98D1 7C0045		INC	Y0045           ;#subr
98D4 260D		BNE	A98E3
		;
98D6 1505C0		BCLR	Y0005,#$C0      ;clear
98D9 142604		BSET	$26,#4
		;
98DC 9644		LDAA	Y0044           ; if Y0044 == 0xFF
98DE 4C 		INCA                    ; no
98DF 2702		BEQ	A98E3           ;   change  Y0044
98E1 9744		STAA	Y0044           ;
		;--------------------------------------------------
98E3 8610	A98E3	LDAA	#$10            ;Start
98E5 B71030		STAA	Y1030           ; ADCTL  ADR0..ADR3
		;---------------------------------------------------
98E8 FC6099		LDD	Y6099           ;start time main Loop
98EB CE0034		LDX	#$0034
98EE 18CE609E		LDY	#$609E
98F2 BDE45A		JSR	AE45A
		;---------------------------------------------------
98F5 8110		CMPA	#$10
98F7 251E		BCS	A9917
		;----------------------------------------------------
98F9 122E101D		BRSET	$2E,#$10,A991A
98FD 142E10		BSET	$2E,#$10
9900 C6AA		LDAB	#$AA
9902 F71020		STAB	TCTL1
9905 C678		LDAB	#$78
9907 F7100B		STAB	CFORC    ;FOC2,3,4,5
990A B660B9		LDAA	Y60B9
990D 84E0		ANDA	#$E0
990F B760B9		STAA	Y60B9
9912 152BC0		BCLR	$2B,#$C0
9915 2003		BRA	A991A
		* ------------------- *
9917 152E10	A9917	BCLR	$2E,#$10
991A B61030	A991A	LDAA	Y1030           ;ADCTL
991D 2AFB		BPL	A991A		;wait convert ADC
		;---------------------
991F 9645		LDAA	Y0045           ;#subr
9921 44 		LSRA
9922 2508		BCS	A992C           ;xxx1  skip
9924 44 		LSRA
9925 2505		BCS	A992C           ;xx10 skip
		;------------------------       ;00
		;	only 0 subr
9927 BDBCD0		JSR	ABCD0           ;Get BATT_DATA
992A 975B		STAA	Y005B           ;BATT_V
		;------------------------
992C FC1033	A992C	LDD	Y1033           ;ADC2,3/ADC6,7
992F 9753		STAA	Y0053           ;O2_DATA
9931 D75A		STAB	Y005A           ;TPS_DATA
9933 B61031		LDAA	Y1031           ;ADR0 MAP
9936 0E 		CLI
9937 BDD66A		JSR	AD66A
993A 8614		LDAA	#$14
993C 0F 		SEI
993D B71030		STAA	Y1030           ;ADCTL  4...7
9940 FC100E		LDD	TCNT
9943 05 		ASLD
9944 CE003C		LDX	#$003C
9947 18CE609E		LDY	#$609E
994B BDE45A		JSR	AE45A
994E B61030	A994E	LDAA	Y1030           ;ADCTL
9951 2AFB		BPL	A994E
		;
9953 CE98B2		LDX	#T98B2
9956 D645		LDAB	Y0045		;#subr
9958 C407		ANDB	#7
995A 2716		BEQ	A9972		; Subr0
995C D645		LDAB	Y0045		;#subr
995E CA80		ORAB	#$80
9960 C1F8		CMPB	#$F8
9962 257B		BCS	A99DF		;MainSubr
9964 D6E2		LDAB	Y00E2
9966 2677		BNE	A99DF           ;MainSubr
9968 D645		LDAB	Y0045           ;#subr
996A C407		ANDB	#7
996C 58 		ASLB
996D 3A 		ABX
996E EE00		LDX	,X
9970 6E00		JMP	,X
		* ------------------- *
		;Subr0
9972 FC1031	A9972	LDD	Y1031           ;ADC4,ADC5
9975 9759		STAA	Y0059           ;CLT_DATA
9977 D758		STAB	Y0058           ;MAT_DATA
9979 2064		BRA	A99DF           ;MainSubr
		* ------------------- *
		;Subr1
997B 96CF	A997B	LDAA	Y00CF
997D 847F		ANDA	#$7F
997F 13CF1005		BRCLR	$CF,#$10,A9988
9983 142308		BSET	$23,#8
9986 2003		BRA	A998B
		* ------------------- *
9988 152308	A9988	BCLR	$23,#8
998B 84EF	A998B	ANDA	#$EF
998D 97CF		STAA	Y00CF
998F B76040		STAA	Y6040
9992 204B		BRA	A99DF           ;MainSubr
		* ------------------- *
		;Subr3
9994 B61031	A9994	LDAA	Y1031           ;ADC4
9997 0E 		CLI
9998 B160A8		CMPA	Y60A8
999B 2605		BNE	A99A2
999D 142320		BSET	$23,#$20
99A0 2003		BRA	A99A5
		* ------------------- *
99A2 152320	A99A2	BCLR	$23,#$20
99A5 B760A8	A99A5	STAA	Y60A8
99A8 96CF		LDAA	Y00CF
99AA 8A80		ORAA	#$80
99AC 97CF		STAA	Y00CF
99AE B76040		STAA	Y6040
99B1 202C		BRA	A99DF           ;MainSubr
		* ------------------- *
		;Subr5
99B3 B61031	A99B3	LDAA	Y1031           ;ADC4
99B6 0E 		CLI
99B7 B760AA		STAA	Y60AA
99BA 13232021		BRCLR	$23,#$20,A99DF  ;MainSubr
99BE D622		LDAB	Y0022
99C0 C503		BITB	#3
99C2 261B		BNE	A99DF           ;MainSubr
99C4 BDBC48		JSR	ABC48
99C7 BDBCB0		JSR	ABCB0
99CA 2013		BRA	A99DF           ;MainSubr
		* ------------------- *
		;Subr6
99CC 96CF	A99CC	LDAA	Y00CF
99CE 847F		ANDA	#$7F
99D0 13230804		BRCLR	$23,#8,A99D8
99D4 8A10		ORAA	#$10
99D6 2002		BRA	A99DA
		* ------------------- *
99D8 84EF	A99D8	ANDA	#$EF
99DA 97CF	A99DA	STAA	Y00CF
99DC B76040		STAA	Y6040
99DF 0E 	A99DF	CLI                     ;MainSubr
99E0 BDBA0E		JSR	ABA0E
99E3 BDBC27		JSR	ABC27
99E6 BDBB9B		JSR	ABB9B
99E9 BDE478		JSR	AE478           ;rpm
99EC BDB914		JSR	AB914
99EF BDA718		JSR	AA718
99F2 BDBBDE		JSR	ABBDE
99F5 BDBF2F		JSR	ABF2F
99F8 BDB88A		JSR	AB88A
99FB BDB800		JSR	AB800
99FE BDC26C		JSR	AC26C
9A01 BDBF74		JSR	ABF74
9A04 BDC087		JSR	AC087
9A07 BDBBF2		JSR	ABBF2
9A0A BD9BD4		JSR	A9BD4
9A0D BD9C73		JSR	A9C73
9A10 BDA2B3		JSR	AA2B3
9A13 BDA5BD		JSR	AA5BD
9A16 BDA6F8		JSR	AA6F8
9A19 BDB9BA		JSR	AB9BA
9A1C BDB9E3		JSR	AB9E3
9A1F BD9F8E		JSR	A9F8E
9A22 BDDEE8		JSR	ADEE8
9A25 9645		LDAA	Y0045           ;#subr
9A27 2606		BNE	A9A2F
9A29 BDEA78		JSR	AEA78    	;Init All Register
9A2C BDD5B2		JSR	AD5B2
		;-------------------------------
9A2F 9645	A9A2F	LDAA	Y0045           ;#subr
9A31 44 		LSRA
9A32 241C		BCC	A9A50           ;00 10
9A34 44 		LSRA
9A35 240E		BCC	A9A45           ;01
9A37 BDB976		JSR	AB976           ;11
9A3A BDD7F7		JSR	AD7F7
9A3D BDC221		JSR	AC221
9A40 BDBCE3		JSR	ABCE3
9A43 201D		BRA	A9A62
		* ------------------- *
9A45 BDA224	A9A45	JSR	AA224
9A48 BDA249		JSR	AA249
9A4B BDD565		JSR	AD565
9A4E 2012		BRA	A9A62
		* ------------------- *
9A50 BD9B6C	A9A50	JSR	A9B6C
9A53 BD9AE0		JSR	A9AE0
9A56 BDE6B3		JSR	AE6B3        ;EEPROM program
9A59 BDA12D		JSR	AA12D
9A5C BDA25C		JSR	AA25C
9A5F BDD9D9		JSR	AD9D9
9A62 BD9CF6	A9A62	JSR	A9CF6
9A65 BDBD25		JSR	ABD25         ;math Fuel
9A68 BDBF8E		JSR	ABF8E
9A6B BDC0AD		JSR	AC0AD
9A6E BDC11A		JSR	AC11A
9A71 BDC20F		JSR	AC20F
9A74 BDD519		JSR	AD519
9A77 9646		LDAA	T_RPM     ;if
9A79 817D		CMPA	#125      ; rpm >
9A7B 241B		BCC	A9A98     ;    skip
		;
9A7D BDD501		JSR	AD501
9A80 BDD96F		JSR	AD96F
9A83 BDD7BB		JSR	AD7BB
9A86 BDDA91		JSR	ADA91
9A89 BDD6C1		JSR	AD6C1
9A8C BDD997		JSR	AD997
9A8F BDD70A		JSR	AD70A
9A92 BDEB4A		JSR	AEB4A
9A95 BDD8C7		JSR	AD8C7
		;
9A98 BD9E86	A9A98	JSR	A9E86
9A9B BDC8C3		JSR	AC8C3       ;test Serial
9A9E BDCB12		JSR	ACB12       ;exe_cmd_Serial
		;--------------------------------------
9AA1 BDCD0A		JSR	ACD0A
9AA4 BDD31E		JSR	AD31E
9AA7 BDD27B		JSR	AD27B
9AAA BDD5DA		JSR	AD5DA
9AAD 12264016		BRSET	$26,#$40,A9AC7
9AB1 0F 		SEI
9AB2 B66080		LDAA	Y6080
9AB5 2610		BNE	A9AC7
9AB7 DC03		LDD	Y0003           ;old cs1
9AB9 0E 		CLI
9ABA 43 		COMA
9ABB 11 		CBA
9ABC 2709		BEQ	A9AC7
9ABE BDE748		JSR	AE748          	;clear EEPROM
9AC1 DC0E		LDD	Y000E
9AC3 17 		TBA
9AC4 53 		COMB
9AC5 DD03		STD	Y0003           ;new cs1
9AC7 0E 	A9AC7	CLI
9AC8 BDE57C		JSR	AE57C           ;check cs
		;---- sync time ----
9ACB FC100E	A9ACB	LDD	TCNT
9ACE B360A1		SUBD	Y60A1           ;sync time
9AD1 1A830ABE		CPD	#2750           ; * 4 = 11ms
9AD5 25F4		BCS	A9ACB
		;--------------------
9AD7 FC100E		LDD	TCNT
9ADA FD60A1		STD	Y60A1           ;new sync time
9ADD 7E98C2		JMP	A98C2           ;Main Loop
		* ------------------- *
9AE0 F68809	A9AE0	LDAB	D8809
9AE3 96CE		LDAA	Y00CE
9AE5 8501		BITA	#1
9AE7 2706		BEQ	A9AEF
9AE9 C003		SUBB	#3
9AEB 2402		BCC	A9AEF
9AED C600		LDAB	#0
9AEF D15C	A9AEF	CMPB	Y005C
9AF1 2416		BCC	A9B09
9AF3 F660AD		LDAB	Y60AD
9AF6 F1880A		CMPB	D880A
9AF9 2411		BCC	A9B0C
9AFB 9645		LDAA	Y0045           ;#subr
9AFD 8507		BITA	#7
9AFF 2606		BNE	A9B07
9B01 5C 		INCB
9B02 2703		BEQ	A9B07
9B04 F760AD		STAB	Y60AD
9B07 2053	A9B07	BRA	A9B5C
		* ------------------- *
9B09 7F60AD	A9B09	CLR	Y60AD
9B0C 1320404C	A9B0C	BRCLR	$20,#$40,A9B5C
9B10 D644		LDAB	Y0044
9B12 F18810		CMPB	D8810
9B15 2545		BCS	A9B5C
9B17 132D0410		BRCLR	$2D,#4,A9B2B
9B1B 9646		LDAA	T_RPM
9B1D 8120		CMPA	#$20
9B1F 243B		BCC	A9B5C
9B21 12618037		BRSET	$61,#$80,A9B5C
9B25 13614033		BRCLR	$61,#$40,A9B5C
9B29 2038		BRA	A9B63
		* ------------------- *
9B2B 1225082D	A9B2B	BRSET	$25,#8,A9B5C
9B2F D654		LDAB	Y0054
9B31 F1880B		CMPB	D880B
9B34 2226		BHI	A9B5C
9B36 DE46		LDX	T_RPM
9B38 BC880C		CPX	D880C
9B3B 241F		BCC	A9B5C
9B3D BC880E		CPX	D880E
9B40 2428		BCC	A9B6A
9B42 BC8806		CPX	D8806
9B45 2406		BCC	A9B4D
9B47 F68808		LDAB	D8808
9B4A F760AE		STAB	Y60AE
9B4D F660AE	A9B4D	LDAB	Y60AE
9B50 2711		BEQ	A9B63
9B52 9645		LDAA	Y0045           ;#subr
9B54 8507		BITA	#7
9B56 2604		BNE	A9B5C
9B58 5A 		DECB
9B59 F760AE		STAB	Y60AE
9B5C 0F 	A9B5C	SEI
9B5D 96CE		LDAA	Y00CE
9B5F 8A01		ORAA	#1
9B61 2005		BRA	A9B68
		* ------------------- *
9B63 0F 	A9B63	SEI
9B64 96CE		LDAA	Y00CE
9B66 84FE		ANDA	#$FE
9B68 97CE	A9B68	STAA	Y00CE
9B6A 0E 	A9B6A	CLI
9B6B 39 		RTS
		* ------------------- *
9B6C 12CE0115	A9B6C	BRSET	$CE,#1,A9B85
9B70 132D0411		BRCLR	$2D,#4,A9B85
9B74 B660AF		LDAA	Y60AF
9B77 4C 		INCA
9B78 2708		BEQ	A9B82
9B7A B760AF		STAA	Y60AF
9B7D B18811		CMPA	D8811
9B80 2503		BCS	A9B85
9B82 142D02	A9B82	BSET	$2D,#2
9B85 D662	A9B85	LDAB	Y0062
9B87 9625		LDAA	Y0025
9B89 44 		LSRA
9B8A 9825		EORA	Y0025
9B8C 8520		BITA	#$20
9B8E 272E		BEQ	A9BBE
9B90 13252015		BRCLR	$25,#$20,A9BA9
9B94 C130		CMPB	#$30
9B96 2506		BCS	A9B9E
9B98 156207		BCLR	$62,#7
9B9B 142540		BSET	$25,#$40
9B9E 9645	A9B9E	LDAA	Y0045           ;#subr
9BA0 851F		BITA	#$1F
9BA2 262F		BNE	A9BD3
9BA4 CB08		ADDB	#8
9BA6 2429		BCC	A9BD1
9BA8 39 		RTS
		* ------------------- *
9BA9 13620707	A9BA9	BRCLR	$62,#7,A9BB4
9BAD 17 		TBA
9BAE 8407		ANDA	#7
9BB0 8105		CMPA	#5
9BB2 2307		BLS	A9BBB
9BB4 C1B8	A9BB4	CMPB	#$B8
9BB6 25E6		BCS	A9B9E
9BB8 152540		BCLR	$25,#$40
9BBB 5F 	A9BBB	CLRB
9BBC 2013		BRA	A9BD1
		* ------------------- *
9BBE 12620703	A9BBE	BRSET	$62,#7,A9BC5
9BC2 5C 		INCB
9BC3 D762		STAB	Y0062
9BC5 122540D5	A9BC5	BRSET	$25,#$40,A9B9E
9BC9 C160		CMPB	#$60
9BCB 25D1		BCS	A9B9E
9BCD C407		ANDB	#7
9BCF CA60		ORAB	#$60
9BD1 D762	A9BD1	STAB	Y0062
9BD3 39 	A9BD3	RTS
		* ------------------- *
9BD4 96D8	A9BD4	LDAA	Y00D8		;cmd_serial
9BD6 810A		CMPA	#$0A
9BD8 2604		BNE	A9BDE
9BDA 14CE10		BSET	$CE,#$10
9BDD 39 		RTS
		* ------------------- *
9BDE 8118	A9BDE	CMPA	#$18
9BE0 2649		BNE	A9C2B
9BE2 96DB		LDAA	Y00DB	    	;mode_serial
9BE4 8530		BITA	#$30
9BE6 2643		BNE	A9C2B
9BE8 9635		LDAA	Y0035		;Hig TimeTic
9BEA 8150		CMPA	#$50
9BEC 232F		BLS	A9C1D
9BEE 96D9		LDAA	Y00D9		;first_data serial
9BF0 16 		TAB
9BF1 840F		ANDA	#$0F
9BF3 37 		PSHB
9BF4 54 		LSRB
9BF5 54 		LSRB
9BF6 54 		LSRB
9BF7 54 		LSRB
9BF8 53 		COMB
9BF9 C40F		ANDB	#$0F
9BFB 11 		CBA
9BFC 33 		PULB
9BFD 261E		BNE	A9C1D
9BFF 142D10		BSET	$2D,#$10
9C02 7D0045		TST	Y0045           ;#subr
9C05 260A		BNE	A9C11
9C07 4A 		DECA
9C08 2713		BEQ	A9C1D
9C0A C4F0		ANDB	#$F0
9C0C CB10		ADDB	#$10
9C0E 1B 		ABA
9C0F 97D9		STAA	Y00D9           ;first_data serial
9C11 86E1	A9C11	LDAA	#$E1
9C13 BDCBBC		JSR	ACBBC	       	;Out_RS
9C16 0F 		SEI
9C17 96CE		LDAA	Y00CE
9C19 84EF		ANDA	#$EF
9C1B 2045		BRA	A9C62
		* ------------------- *
9C1D 4F 	A9C1D	CLRA
9C1E 97D8		STAA	Y00D8           ;clear cmd_serial
9C20 97E0		STAA	Y00E0
9C22 152D10		BCLR	$2D,#$10
9C25 15DB30		BCLR	Y00DB,#$30     ;mode_serial
9C28 BDCBBC		JSR	ACBBC          	;Out_RS
9C2B CE002D	A9C2B	LDX	#$002D
9C2E 9654		LDAA	Y0054
9C30 818F		CMPA	#$8F
9C32 2403		BCC	A9C37
9C34 CE005B		LDX	#$005B
9C37 C604	A9C37	LDAB	#4
9C39 965B		LDAA	Y005B           ;BATT_V
9C3B 81B2		CMPA	#178
9C3D 1223040B		BRSET	$23,#4,A9C4C
9C41 240D		BCC	A9C50
9C43 8C005B		CPX	#$005B
9C46 2608		BNE	A9C50
9C48 C60B		LDAB	#$0B
9C4A 2004		BRA	A9C50
		* ------------------- *
9C4C 2502	A9C4C	BCS	A9C50
9C4E C603		LDAB	#3
9C50 0F 	A9C50	SEI
9C51 96CE		LDAA	Y00CE
9C53 84EF		ANDA	#$EF
9C55 D134		CMPB	Y0034
9C57 2209		BHI	A9C62
9C59 9C44		CPX	Y0044
9C5B 2205		BHI	A9C62
9C5D 8A10		ORAA	#$10
9C5F 1580FF		BCLR	$80,#$FF
9C62 97CE	A9C62	STAA	Y00CE
9C64 0E 		CLI
9C65 13204009		BRCLR	$20,#$40,A9C72
9C69 D644		LDAB	Y0044
9C6B C104		CMPB	#4
9C6D 2503		BCS	A9C72
9C6F 142304		BSET	$23,#4
9C72 39 	A9C72	RTS
		* ------------------- *
9C73 13204072	A9C73	BRCLR	$20,#$40,A9CE9
9C77 B68016		LDAA	D8016
9C7A 8502		BITA	#2
9C7C 2777		BEQ	A9CF5
9C7E 966F		LDAA	Y006F
9C80 D646		LDAB	T_RPM
9C82 3D 		MUL
9C83 FD6099		STD	Y6099
9C86 965B		LDAA	Y005B           ;BATT_V
9C88 F68827		LDAB	D8827
9C8B 3D 		MUL
9C8C B38823		SUBD	D8823
9C8F 2403		BCC	A9C94
9C91 CC0000		LDD	#$0000
9C94 13270806	A9C94	BRCLR	$27,#8,A9C9E
9C98 13CD8040		BRCLR	$CD,#$80,A9CDC
9C9C 200C		BRA	A9CAA
		* ------------------- *
9C9E 13CE083A	A9C9E	BRCLR	$CE,#8,A9CDC
9CA2 B38825		SUBD	D8825
9CA5 2403		BCC	A9CAA
9CA7 CC0000		LDD	#$0000
9CAA 1AB36099	A9CAA	CPD	Y6099
9CAE 2345		BLS	A9CF5
9CB0 122D400C		BRSET	$2D,#$40,A9CC0
9CB4 965B		LDAA	Y005B           ;BATT_V
9CB6 B18828		CMPA	D8828		;192
9CB9 233A		BLS	A9CF5
9CBB 142D40		BSET	$2D,#$40
9CBE 200E		BRA	A9CCE
		* ------------------- *
9CC0 965B	A9CC0	LDAA	Y005B           ;BATT_V
9CC2 F68828		LDAB	D8828           ;192+3 = 195
9CC5 CB03		ADDB	#3
9CC7 2402		BCC	A9CCB
9CC9 C6FF		LDAB	#$FF
9CCB 11 	A9CCB	CBA
9CCC 2327		BLS	A9CF5
9CCE 13270805	A9CCE	BRCLR	$27,#8,A9CD7
9CD2 15CD80		BCLR	$CD,#$80
9CD5 201E		BRA	A9CF5
		* ------------------- *
9CD7 15CE08	A9CD7	BCLR	$CE,#8
9CDA 2019		BRA	A9CF5
		* ------------------- *
9CDC 1AB36099	A9CDC	CPD	Y6099
9CE0 2307		BLS	A9CE9
9CE2 965B		LDAA	Y005B           ;BATT_V
9CE4 B18828		CMPA	D8828           ;192
9CE7 220C		BHI	A9CF5
9CE9 13270805	A9CE9	BRCLR	$27,#8,A9CF2
9CED 14CD80		BSET	$CD,#$80
9CF0 2003		BRA	A9CF5
		* ------------------- *
9CF2 14CE08	A9CF2	BSET	$CE,#8
9CF5 39 	A9CF5	RTS
		* ------------------- *
9CF6 B689DF	A9CF6	LDAA	D89DF
9CF9 8508		BITA	#8
9CFB 2603		BNE	A9D00
9CFD 7E9DDC		JMP	A9DDC
		* ------------------- *
9D00 1220400C	A9D00	BRSET	$20,#$40,A9D10
9D04 9654		LDAA	Y0054
9D06 B18A41		CMPA	D8A41
9D09 2414		BCC	A9D1F
9D0B 142880		BSET	$28,#$80
9D0E 200F		BRA	A9D1F
		* ------------------- *
9D10 9644	A9D10	LDAA	Y0044
9D12 B18A42		CMPA	D8A42
9D15 2508		BCS	A9D1F
9D17 12288004		BRSET	$28,#$80,A9D1F
9D1B 12294003		BRSET	$29,#$40,A9D22
9D1F 7E9D81	A9D1F	JMP	A9D81
		* ------------------- *
9D22 96D5	A9D22	LDAA	Y00D5
9D24 265B		BNE	A9D81
9D26 964F		LDAA	Y004F
9D28 B18A43		CMPA	D8A43
9D2B 2554		BCS	A9D81
9D2D DEE4		LDX	Y00E4
9D2F 1228406C		BRSET	$28,#$40,A9D9F
9D33 BC8A4B		CPX	D8A4B
9D36 2458		BCC	A9D90
9D38 9650		LDAA	Y0050           ;MAP_DATA1
9D3A B18A47		CMPA	D8A47		;90
9D3D 2542		BCS	A9D81
9D3F B18A46		CMPA	D8A46
9D42 243D		BCC	A9D81           ;199
9D44 965C		LDAA	Y005C
9D46 B18A45		CMPA	D8A45
9D49 2536		BCS	A9D81
9D4B B18A44		CMPA	D8A44
9D4E 2431		BCC	A9D81
9D50 9646		LDAA	T_RPM
9D52 B18A49		CMPA	D8A49
9D55 252A		BCS	A9D81
9D57 B18A48		CMPA	D8A48
9D5A 2425		BCC	A9D81
9D5C 9683		LDAA	Y0083
9D5E B18A4A		CMPA	D8A4A
9D61 241E		BCC	A9D81
9D63 08 		INX
9D64 DFE4		STX	Y00E4
9D66 142810		BSET	$28,#$10
9D69 F68A53		LDAB	D8A53
9D6C 90E3		SUBA	Y00E3
9D6E 2505		BCS	A9D75
9D70 3D 		MUL
9D71 8900		ADCA	#0
9D73 2005		BRA	A9D7A
		* ------------------- *
9D75 40 	A9D75	NEGA
9D76 3D 		MUL
9D77 8900		ADCA	#0
9D79 40 		NEGA
9D7A 9BE3	A9D7A	ADDA	Y00E3
9D7C 97E3		STAA	Y00E3
9D7E 7E9E17		JMP	A9E17
		* ------------------- *
9D81 CE0000	A9D81	LDX	#$0000
9D84 DFE4		STX	Y00E4
9D86 152850		BCLR	$28,#$50
9D89 9683		LDAA	Y0083
9D8B 97E3		STAA	Y00E3
9D8D 7E9E17		JMP	A9E17
		* ------------------- *
9D90 CE0000	A9D90	LDX	#$0000
9D93 142840		BSET	$28,#$40
9D96 152810		BCLR	$28,#$10
9D99 96E3		LDAA	Y00E3
9D9B 97E6		STAA	Y00E6
9D9D 2005		BRA	A9DA4
		* ------------------- *
9D9F BC8A55	A9D9F	CPX	D8A55
9DA2 2443		BCC	A9DE7
9DA4 08 	A9DA4	INX
9DA5 DFE4		STX	Y00E4
9DA7 9650		LDAA	Y0050           ;MAP_DATA1
9DA9 B18A51		CMPA	D8A51     	;110
9DAC 25D3		BCS	A9D81

9DAE B18A52		CMPA	D8A52           ;173
9DB1 24CE		BCC	A9D81

9DB3 965C		LDAA	Y005C
9DB5 B18A4F		CMPA	D8A4F
9DB8 25C7		BCS	A9D81
9DBA B18A50		CMPA	D8A50
9DBD 24C2		BCC	A9D81
9DBF 9646		LDAA	T_RPM
9DC1 B18A4D		CMPA	D8A4D
9DC4 25BB		BCS	A9D81
9DC6 B18A4E		CMPA	D8A4E
9DC9 24B6		BCC	A9D81
9DCB 9683		LDAA	Y0083
9DCD 91E6		CMPA	Y00E6
9DCF 2546		BCS	A9E17
9DD1 97E6		STAA	Y00E6
9DD3 90E3		SUBA	Y00E3
9DD5 97E8		STAA	Y00E8
9DD7 B18A54		CMPA	D8A54
9DDA 253B		BCS	A9E17
9DDC 7F00E7	A9DDC	CLR	Y00E7
9DDF 142880		BSET	$28,#$80
9DE2 152870		BCLR	$28,#$70
9DE5 2030		BRA	A9E17
		* ------------------- *
9DE7 CE0000	A9DE7	LDX	#$0000
9DEA DFE4		STX	Y00E4
9DEC D628		LDAB	Y0028
9DEE C4AF		ANDB	#$AF
9DF0 96E7		LDAA	Y00E7
9DF2 4C 		INCA
9DF3 97E7		STAA	Y00E7
9DF5 B18A57		CMPA	D8A57
9DF8 250F		BCS	A9E09
9DFA CA20		ORAB	#$20
9DFC 37 		PSHB
9DFD CC2E81		LDD	#$2E81
9E00 BDD163		JSR	AD163 	     	;error 2E81
9E03 2403		BCC	A9E08
9E05 14D608		BSET	Y00D6,#8          ;
9E08 33 	A9E08	PULB
9E09 96E9	A9E09	LDAA	Y00E9
9E0B 4C 		INCA
9E0C 97E9		STAA	Y00E9
9E0E B18A40		CMPA	D8A40
9E11 2502		BCS	A9E15
9E13 CA80		ORAB	#$80
9E15 D728	A9E15	STAB	Y0028
9E17 1228405A	A9E17	BRSET	$28,#$40,A9E75
9E1B 96CC		LDAA	Y00CC
9E1D 2703		BEQ	A9E22
9E1F 7A00CC		DEC	Y00CC
9E22 13228046	A9E22	BRCLR	$22,#$80,A9E6C
9E26 12224042		BRSET	$22,#$40,A9E6C
9E2A B68819		LDAA	D8819
9E2D 12CE0207		BRSET	$CE,#2,A9E38
9E31 B0881A		SUBA	D881A
9E34 2402		BCC	A9E38
9E36 8600		LDAA	#0
9E38 9146	A9E38	CMPA	T_RPM
9E3A 2530		BCS	A9E6C
9E3C 9654		LDAA	Y0054
9E3E B18815		CMPA	D8815
9E41 2529		BCS	A9E6C
9E43 9650		LDAA	Y0050		;MAP_DATA1
9E45 12CE0206		BRSET	$CE,#2,A9E4F
9E49 B08813		SUBA	D8813
9E4C 2401		BCC	A9E4F
9E4E 4F 		CLRA
9E4F B18814	A9E4F	CMPA	D8814
9E52 2518		BCS	A9E6C
9E54 960D		LDAA	Y000D
9E56 B08816		SUBA	D8816
9E59 2401		BCC	A9E5C
9E5B 4F 		CLRA
9E5C 9150	A9E5C	CMPA	Y0050           ;MAP_DATA1
9E5E 2419		BCC	A9E79
9E60 960D		LDAA	Y000D
9E62 B08818		SUBA	D8818
9E65 2401		BCC	A9E68
9E67 4F 		CLRA
9E68 9150	A9E68	CMPA	Y0050           ;MAP_DATA1
9E6A 2419		BCC	A9E85
9E6C 13CE0205	A9E6C	BRCLR	$CE,#2,A9E75
9E70 B68817		LDAA	D8817
9E73 97CC		STAA	Y00CC
9E75 15CE02	A9E75	BCLR	$CE,#2
9E78 39 		RTS
		* ------------------- *
9E79 12CE0205	A9E79	BRSET	$CE,#2,A9E82
9E7D B68817		LDAA	D8817
9E80 97CC		STAA	Y00CC
9E82 14CE02	A9E82	BSET	$CE,#2
9E85 39 	A9E85	RTS
		* ------------------- *
9E86 12204006	A9E86	BRSET	$20,#$40,A9E90
9E8A 1226040F		BRSET	$26,#4,A9E9D
9E8E 2012		BRA	A9EA2
		* ------------------- *
9E90 1226403D	A9E90	BRSET	$26,#$40,A9ED1
9E94 FCB610		LDD	EEPROM+$10
9E97 1A835AA5		CPD	#$5AA5
9E9B 2705		BEQ	A9EA2
9E9D 15CD08	A9E9D	BCLR	$CD,#8
9EA0 2003		BRA	A9EA5
		* ------------------- *
9EA2 14CD08	A9EA2	BSET	$CD,#8
9EA5 12208003	A9EA5	BRSET	$20,#$80,A9EAC
9EA9 7E9F53		JMP	A9F53
		* ------------------- *
9EAC 12264021	A9EAC	BRSET	$26,#$40,A9ED1
9EB0 1326201E		BRCLR	$26,#$20,A9ED2
9EB4 BD9F76		JSR	A9F76
9EB7 F760B1		STAB	Y60B1           ;data_eepr
9EBA 7C60B0		INC	Y60B0	    	;offset_prg_eepr
9EBD 142640		BSET	$26,#$40    	;requst prg
9EC0 152620		BCLR	$26,#$20
9EC3 0F 		SEI
9EC4 152080		BCLR	$20,#$80
9EC7 0E 		CLI
9EC8 1AB38A58		CPD	D8A58
9ECC 2603		BNE	A9ED1
9ECE 142610		BSET	$26,#$10
9ED1 39 	A9ED1	RTS
		* ------------------- *
9ED2 CE001C	A9ED2	LDX	#$001C
9ED5 8630		LDAA	#$30
9ED7 1F00FF0A	A9ED7	BRCLR	,X,#$FF,A9EE5
9EDB A100		CMPA	,X
9EDD 2756		BEQ	A9F35
9EDF 09 		DEX
9EE0 8C0015		CPX	#$0015
9EE3 24F2		BCC	A9ED7
9EE5 CC0000	A9EE5	LDD	#$0000
9EE8 FD609D		STD	Y609D
9EEB B760B0		STAA	Y60B0       	;offset_prg_eepr
9EEE CEB600		LDX	#DB600         	;EEPROM
9EF1 18CEB60E		LDY	#EEPROM+$000E
9EF5 EC00	A9EF5	LDD	,X
9EF7 18A300		SUBD	,Y
9EFA 1A830001		CPD	#$0001
9EFE 2611		BNE	A9F11
9F00 EC00		LDD	,X
9F02 1AB3609D		CPD	Y609D
9F06 2509		BCS	A9F11
9F08 FD609D		STD	Y609D
9F0B 3C 		PSHX
9F0C 32 		PULA
9F0D 32 		PULA
9F0E B760B0		STAA	Y60B0           ;offset_prg_eepr
9F11 8CB60E	A9F11	CPX	#EEPROM+$E
9F14 2712		BEQ	A9F28
9F16 08 		INX
9F17 08 		INX
9F18 188CB60E		CPY	#EEPROM+$E
9F1C 2604		BNE	A9F22
9F1E 18CEB5FE		LDY	#TB5FE
9F22 1808	A9F22	INY
9F24 1808		INY
9F26 20CD		BRA	A9EF5
		* ------------------- *
9F28 FC609D	A9F28	LDD	Y609D
9F2B 260E		BNE	A9F3B
9F2D CC3003		LDD	#$3003
9F30 BDD163		JSR	AD163 	 	;error 3003
9F33 2405		BCC	A9F3A
9F35 0F 	A9F35	SEI
9F36 152080		BCLR	$20,#$80
9F39 0E 		CLI
9F3A 39 	A9F3A	RTS
		* ------------------- *
9F3B B660B0	A9F3B	LDAA	Y60B0		;offset_prg_eepr
9F3E 8B02		ADDA	#2
9F40 8110		CMPA	#$10
9F42 2602		BNE	A9F46
9F44 8600		LDAA	#0
9F46 B760B0	A9F46	STAA	Y60B0           ;offset_prg_eepr
9F49 BD9F76		JSR	A9F76
9F4C B760B1		STAA	Y60B1           ;data_eepr
9F4F 142660		BSET	$26,#$60
9F52 39 	A9F52	RTS
		* ------------------- *
9F53 132610FB	A9F53	BRCLR	$26,#$10,A9F52
9F57 122640F7		BRSET	$26,#$40,A9F52
9F5B CC105A		LDD	#$105A
9F5E 1326200A		BRCLR	$26,#$20,A9F6C
9F62 4C 		INCA
9F63 53 		COMB
9F64 152630		BCLR	$26,#$30
9F67 142640		BSET	$26,#$40       	;requst prg
9F6A 2003		BRA	A9F6F
		* ------------------- *
9F6C 142660	A9F6C	BSET	$26,#$60
9F6F B760B0	A9F6F	STAA	Y60B0           ;offset_prg_eepr
9F72 F760B1		STAB	Y60B1           ;data_eepr
9F75 39 		RTS
		* ------------------- *
9F76 CEB600	A9F76	LDX	#DB600       	;EEPROM
9F79 F660B0		LDAB	Y60B0           ;offset_prg_eepr
9F7C C002		SUBB	#2
9F7E 2A02		BPL	A9F82
9F80 C60E		LDAB	#$0E
9F82 3A 	A9F82	ABX
9F83 EC00		LDD	,X
9F85 C30001		ADDD	#$0001
9F88 2403		BCC	A9F8D
9F8A CCFFFF		LDD	#$FFFF
9F8D 39 	A9F8D	RTS
		* ------------------- *
9F8E B68016	A9F8E	LDAA	D8016
9F91 8580		BITA	#$80
9F93 2603		BNE	A9F98
9F95 7EA03C	A9F95	JMP	AA03C
		* ------------------- *
9F98 1261017D	A9F98	BRSET	$61,#1,AA019
9F9C D6D7		LDAB	Y00D7
9F9E C580		BITB	#$80
9FA0 2706		BEQ	A9FA8
9FA2 8520		BITA	#$20
9FA4 2673		BNE	AA019
9FA6 20ED		BRA	A9F95
		* ------------------- *
9FA8 B6882C	A9FA8	LDAA	D882C
9FAB 122A4003		BRSET	$2A,#$40,A9FB2
9FAF BB882D		ADDA	D882D
9FB2 915F	A9FB2	CMPA	Y005F
9FB4 2460		BCC	AA016
9FB6 142A40		BSET	$2A,#$40
9FB9 9654		LDAA	Y0054
9FBB B18829		CMPA	D8829
9FBE 2559		BCS	AA019
9FC0 B6882F		LDAA	D882F
9FC3 12CD1002		BRSET	$CD,#$10,A9FC9
9FC7 8B04		ADDA	#4
9FC9 9163	A9FC9	CMPA	Y0063
9FCB 254C		BCS	AA019
9FCD 13251048		BRCLR	$25,#$10,AA019
9FD1 9646		LDAA	T_RPM
9FD3 B1882B		CMPA	D882B
9FD6 2514		BCS	A9FEC
9FD8 13D0FF10		BRCLR	$D0,#$FF,A9FEC
9FDC 9645		LDAA	Y0045           ;#subr
9FDE 8507		BITA	#7
9FE0 2605		BNE	A9FE7
9FE2 7A00D0		DEC	Y00D0
9FE5 2705		BEQ	A9FEC
9FE7 CE885E	A9FE7	LDX	#T885E
9FEA 2006		BRA	A9FF2
		* ------------------- *
9FEC CE8847	A9FEC	LDX	#T8847
9FEF 7F00D0		CLR	Y00D0
9FF2 9646	A9FF2	LDAA	T_RPM
9FF4 BDE3AC		JSR	AE3AC
9FF7 965C		LDAA	Y005C
9FF9 11 		CBA
9FFA 252E		BCS	AA02A
9FFC CE8830		LDX	#T8830
9FFF 9646		LDAA	T_RPM
A001 BDE3AC		JSR	AE3AC
A004 965C		LDAA	Y005C
A006 11 		CBA
A007 2406		BCC	AA00F
A009 13CD102F		BRCLR	$CD,#$10,AA03C
A00D 200D		BRA	AA01C
		* ------------------- *
A00F B6882A	AA00F	LDAA	D882A
A012 97D0		STAA	Y00D0
A014 2006		BRA	AA01C
		* ------------------- *
A016 152A40	AA016	BCLR	$2A,#$40
A019 7F00D0	AA019	CLR	Y00D0
A01C B6882E	AA01C	LDAA	D882E
A01F 97D1		STAA	Y00D1
A021 14CD10	AA021	BSET	$CD,#$10
A024 7F00D3		CLR	Y00D3
A027 7EA119	AA027	JMP	AA119
		* ------------------- *
A02A 96D1	AA02A	LDAA	Y00D1
A02C 270B		BEQ	AA039
A02E D645		LDAB	Y0045           ;#subr
A030 C507		BITB	#7
A032 26ED		BNE	AA021
A034 4A 		DECA
A035 97D1		STAA	Y00D1
A037 26E8		BNE	AA021
A039 15CD10	AA039	BCLR	$CD,#$10
A03C B68016	AA03C	LDAA	D8016
A03F 8540		BITA	#$40
A041 2603		BNE	AA046
A043 7EA0D7		JMP	AA0D7
		* ------------------- *
A046 9645	AA046	LDAA	Y0045           ;#subr
A048 8501		BITA	#1
A04A 260A		BNE	AA056
A04C 96D3		LDAA	Y00D3
A04E B1887E		CMPA	D887E
A051 2703		BEQ	AA056
A053 4C 		INCA
A054 97D3		STAA	Y00D3
A056 96D2	AA056	LDAA	Y00D2
A058 B7609E		STAA	Y609E
A05B 9645		LDAA	Y0045           ;#subr
A05D B48876		ANDA	D8876		;7
A060 2604		BNE	AA066
A062 9650		LDAA	Y0050           ;MAP_DATA1
A064 97D2		STAA	Y00D2
A066 965C	AA066	LDAA	Y005C
A068 27BD		BEQ	AA027
A06A B7609C		STAA	Y609C
A06D 9654		LDAA	Y0054
A06F B18875		CMPA	D8875
A072 25B3		BCS	AA027
A074 132510AF		BRCLR	$25,#$10,AA027
A078 132280AB		BRCLR	$22,#$80,AA027
A07C 126120A7		BRSET	$61,#$20,AA027
A080 965F		LDAA	Y005F
A082 B18877		CMPA	D8877
A085 240F		BCC	AA096
A087 9650		LDAA	Y0050           ;MAP_DATA
A089 B0609E		SUBA	Y609E
A08C 2508		BCS	AA096
A08E B18878		CMPA	D8878
A091 2532		BCS	AA0C5
A093 7EA119		JMP	AA119
		* ------------------- *
A096 B6609E	AA096	LDAA	Y609E
A099 9050		SUBA	Y0050           ;MAP_DATA
A09B 2528		BCS	AA0C5
A09D B7609E		STAA	Y609E
A0A0 CE887A		LDX	#T887A
A0A3 122A2015		BRSET	$2A,#$20,AA0BC
A0A7 122A1010		BRSET	$2A,#$10,AA0BB
A0AB B6609C		LDAA	Y609C
A0AE B18879		CMPA	D8879
A0B1 2505		BCS	AA0B8
A0B3 142A20		BSET	$2A,#$20
A0B6 2004		BRA	AA0BC
		* ------------------- *
A0B8 142A10	AA0B8	BSET	$2A,#$10
A0BB 08 	AA0BB	INX
A0BC F6609E	AA0BC	LDAB	Y609E
A0BF E100		CMPB	,X
A0C1 2456		BCC	AA119
A0C3 2003		BRA	AA0C8
		* ------------------- *
A0C5 152A30	AA0C5	BCLR	$2A,#$30
A0C8 96D4	AA0C8	LDAA	Y00D4
A0CA 8101		CMPA	#1
A0CC 230A		BLS	AA0D8
A0CE D645		LDAB	Y0045           ;#subr
A0D0 C507		BITB	#7
A0D2 2603		BNE	AA0D7
A0D4 4A 		DECA
A0D5 97D4		STAA	Y00D4
A0D7 39 	AA0D7	RTS
		* ------------------- *
A0D8 CE889D	AA0D8	LDX	#T889D
A0DB 13CD2003		BRCLR	$CD,#$20,AA0E2
A0DF CE887F		LDX	#T887F
A0E2 FF609D	AA0E2	STX	Y609D
A0E5 8D3C		BSR	AA123
A0E7 2430		BCC	AA119
A0E9 FE609D		LDX	Y609D
A0EC C60F		LDAB	#$0F
A0EE 3A 		ABX
A0EF 8D32		BSR	AA123
A0F1 2526		BCS	AA119
A0F3 96D4		LDAA	Y00D4
A0F5 2712		BEQ	AA109
A0F7 B68016		LDAA	D8016
A0FA 8580		BITA	#$80
A0FC 2707		BEQ	AA105
A0FE 96D3		LDAA	Y00D3
A100 B1887E		CMPA	D887E
A103 25D2		BCS	AA0D7
A105 15CD20	AA105	BCLR	$CD,#$20
A108 39 		RTS
		* ------------------- *
A109 965F	AA109	LDAA	Y005F
A10B F6887C		LDAB	D887C
A10E B18877		CMPA	D8877
A111 2403		BCC	AA116
A113 F6887D		LDAB	D887D
A116 D7D4	AA116	STAB	Y00D4
A118 39 		RTS
		* ------------------- *
A119 7F00D4	AA119	CLR	Y00D4
A11C 14CD20		BSET	$CD,#$20
A11F 152A30		BCLR	$2A,#$30
A122 39 		RTS
		* ------------------- *
A123 965F	AA123	LDAA	Y005F
A125 BDE3AC		JSR	AE3AC
A128 B6609C		LDAA	Y609C
A12B 11 		CBA
A12C 39 		RTS
		* ------------------- *
A12D B68016	AA12D	LDAA	D8016
A130 8520		BITA	#$20
A132 270B		BEQ	AA13F
A134 B68015		LDAA	D8015
A137 8501		BITA	#1
A139 2704		BEQ	AA13F
A13B 13450201		BRCLR	$45,#2,AA140
A13F 39 	AA13F	RTS
		* ------------------- *
A140 965F	AA140	LDAA	Y005F
A142 8182		CMPA	#$82
A144 242B		BCC	AA171
A146 B188BB		CMPA	D88BB
A149 2526		BCS	AA171
A14B 122A0422		BRSET	$2A,#4,AA171
A14F 9663		LDAA	Y0063
A151 B188BC		CMPA	D88BC
A154 241B		BCC	AA171
A156 B188BD		CMPA	D88BD
A159 2516		BCS	AA171
A15B D645		LDAB	Y0045           ;#subr
A15D 2615		BNE	AA174
A15F D6D0		LDAB	Y00D0
A161 5C 		INCB
A162 2707		BEQ	AA16B
A164 D7D0		STAB	Y00D0
A166 F188BE		CMPB	D88BE
A169 2509		BCS	AA174
A16B 910C	AA16B	CMPA	Y000C
A16D 2402		BCC	AA171
A16F 970C		STAA	Y000C
A171 7F00D0	AA171	CLR	Y00D0
A174 9646	AA174	LDAA	T_RPM
A176 810F		CMPA	#$0F
A178 2529		BCS	AA1A3
A17A D663		LDAB	Y0063
A17C D0D2		SUBB	Y00D2
A17E 2401		BCC	AA181
A180 50 		NEGB
A181 F188BF	AA181	CMPB	D88BF
A184 2508		BCS	AA18E
A186 142A04		BSET	$2A,#4
A189 7F00D1		CLR	Y00D1
A18C 2024		BRA	AA1B2
		* ------------------- *
A18E 132A0414	AA18E	BRCLR	$2A,#4,AA1A6
A192 F188C0		CMPB	D88C0
A195 240F		BCC	AA1A6
A197 96D1		LDAA	Y00D1
A199 4C 		INCA
A19A 2707		BEQ	AA1A3
A19C 97D1		STAA	Y00D1
A19E B188C1		CMPA	D88C1
A1A1 2506		BCS	AA1A9
A1A3 152A04	AA1A3	BCLR	$2A,#4
A1A6 7F00D1	AA1A6	CLR	Y00D1
A1A9 9645	AA1A9	LDAA	Y0045           ;#subr
A1AB 44 		LSRA
A1AC 44 		LSRA
A1AD B588C2		BITA	D88C2
A1B0 2604		BNE	AA1B6
A1B2 9663	AA1B2	LDAA	Y0063
A1B4 97D2		STAA	Y00D2
A1B6 12204006	AA1B6	BRSET	$20,#$40,AA1C0
A1BA 12260402		BRSET	$26,#4,AA1C0
A1BE 205D		BRA	AA21D
		* ------------------- *
A1C0 1322804D	AA1C0	BRCLR	$22,#$80,AA211
A1C4 13224007		BRCLR	$22,#$40,AA1CF
A1C8 9646		LDAA	T_RPM
A1CA B188C3		CMPA	D88C3
A1CD 2442		BCC	AA211
A1CF 9663	AA1CF	LDAA	Y0063
A1D1 900C		SUBA	Y000C
A1D3 253C		BCS	AA211
A1D5 B188C4		CMPA	D88C4
A1D8 2537		BCS	AA211
A1DA CE88C5		LDX	#T88C5
A1DD 9650		LDAA	Y0050           ;MAP_DATA
A1DF BDE3E4		JSR	AE3E4
A1E2 9646		LDAA	T_RPM
A1E4 11 		CBA
A1E5 2410		BCC	AA1F7
A1E7 12CD2026		BRSET	$CD,#$20,AA211
A1EB F088CE		SUBB	D88CE
A1EE 2402		BCC	AA1F2
A1F0 C600		LDAB	#0
A1F2 11 	AA1F2	CBA
A1F3 240E		BCC	AA203
A1F5 201A		BRA	AA211
		* ------------------- *
A1F7 96D3	AA1F7	LDAA	Y00D3
A1F9 4C 		INCA
A1FA 2707		BEQ	AA203
A1FC 97D3		STAA	Y00D3
A1FE B188CF		CMPA	D88CF
A201 2514		BCS	AA217
A203 96D4	AA203	LDAA	Y00D4
A205 4C 		INCA
A206 270F		BEQ	AA217
A208 97D4		STAA	Y00D4
A20A B188D0		CMPA	D88D0
A20D 2208		BHI	AA217
A20F 200C		BRA	AA21D
		* ------------------- *
A211 7F00D3	AA211	CLR	Y00D3
A214 7F00D4		CLR	Y00D4
A217 D6CD	AA217	LDAB	Y00CD
A219 CA20		ORAB	#$20
A21B 2004		BRA	AA221
		* ------------------- *
A21D D6CD	AA21D	LDAB	Y00CD
A21F C4DF		ANDB	#$DF
A221 D7CD	AA221	STAB	Y00CD
A223 39 		RTS
		* ------------------- *
A224 B68016	AA224	LDAA	D8016
A227 8508		BITA	#8
A229 271D		BEQ	AA248
A22B 9654		LDAA	Y0054
A22D B1881C		CMPA	D881C
A230 2410		BCC	AA242
A232 B1881B		CMPA	D881B
A235 2504		BCS	AA23B
A237 122A8007		BRSET	$2A,#$80,AA242
A23B 152A80	AA23B	BCLR	$2A,#$80
A23E 15CE20		BCLR	$CE,#$20
A241 39 		RTS
		* ------------------- *
A242 142A80	AA242	BSET	$2A,#$80
A245 14CE20		BSET	$CE,#$20
A248 39 	AA248	RTS
		* ------------------- *
A249 B68016	AA249	LDAA	D8016
A24C 8510		BITA	#$10
A24E 270B		BEQ	AA25B
A250 12294004		BRSET	$29,#$40,AA258
A254 15CE04		BCLR	$CE,#4
A257 39 		RTS
		* ------------------- *
A258 14CE04	AA258	BSET	$CE,#4
A25B 39 	AA25B	RTS
		* ------------------- *
A25C B68015	AA25C	LDAA	D8015
A25F 8508		BITA	#8
A261 264F		BNE	AA2B2
A263 B68016		LDAA	D8016
A266 8504		BITA	#4
A268 2748		BEQ	AA2B2
A26A 13204041		BRCLR	$20,#$40,AA2AF
A26E 9645		LDAA	Y0045           ;#subr
A270 847F		ANDA	#$7F
A272 263E		BNE	AA2B2
A274 12D50232		BRSET	$D5,#2,AA2AA
A278 9627		LDAA	Y0027
A27A 85C0		BITA	#$C0
A27C 2704		BEQ	AA282
A27E 13CE0128		BRCLR	$CE,#1,AA2AA
A282 CE881F	AA282	LDX	#T881F
A285 965F		LDAA	Y005F
A287 B1881D		CMPA	D881D
A28A 2410		BCC	AA29C
A28C B1881E		CMPA	D881E
A28F 2504		BCS	AA295
A291 122A0807		BRSET	$2A,#8,AA29C
A295 08 	AA295	INX
A296 08 		INX
A297 152A08		BCLR	$2A,#8
A29A 2003		BRA	AA29F
		* ------------------- *
A29C 142A08	AA29C	BSET	$2A,#8
A29F 12CD8001	AA29F	BRSET	$CD,#$80,AA2A4
A2A3 08 		INX
A2A4 E600	AA2A4	LDAB	,X
A2A6 D154		CMPB	Y0054
A2A8 2405		BCC	AA2AF
A2AA 15CD80	AA2AA	BCLR	$CD,#$80
A2AD 2003		BRA	AA2B2
		* ------------------- *
A2AF 14CD80	AA2AF	BSET	$CD,#$80
A2B2 39 	AA2B2	RTS
		* ------------------- *
A2B3 13204009	AA2B3	BRCLR	$20,#$40,AA2C0
A2B7 9668		LDAA	Y0068
A2B9 4C 		INCA
A2BA 2707		BEQ	AA2C3
A2BC 9768		STAA	Y0068
A2BE 2003		BRA	AA2C3
		* ------------------- *
A2C0 7F0068	AA2C0	CLR	Y0068
A2C3 12258008	AA2C3	BRSET	$25,#$80,AA2CF
A2C7 13280807		BRCLR	$28,#8,AA2D2
A2CB 8630		LDAA	#$30
A2CD 207B		BRA	AA34A
		* ------------------- *
A2CF 7EA34F	AA2CF	JMP	AA34F
		* ------------------- *
A2D2 CE8711	AA2D2	LDX	#T8711
A2D5 12251048		BRSET	$25,#$10,AA321
A2D9 96D8		LDAA	Y00D8		;cmd_serial
A2DB 8119		CMPA	#$19
A2DD 2712		BEQ	AA2F1
A2DF 1328011E		BRCLR	$28,#1,AA301
A2E3 DC6D		LDD	Y006D
A2E5 830001		SUBD	#$0001
A2E8 C53F		BITB	#$3F
A2EA 2661		BNE	AA34D
A2EC 152801		BCLR	$28,#1
A2EF 205C		BRA	AA34D
		* ------------------- *
A2F1 12DB205A	AA2F1	BRSET	Y00DB,#$20,AA34F	;mode_serial
A2F5 7F00D8		CLR	Y00D8           ;cmd_serial
A2F8 96D9		LDAA	Y00D9           ;first_data serial
A2FA C6FF		LDAB	#$FF
A2FC 142801		BSET	$28,#1
A2FF 204A		BRA	AA34B
		* ------------------- *
A301 132D040E	AA301	BRCLR	$2D,#4,AA313
A305 1320400A		BRCLR	$20,#$40,AA313
A309 9644		LDAA	Y0044
A30B 8108		CMPA	#8
A30D 2504		BCS	AA313
A30F 8670		LDAA	#$70
A311 2037		BRA	AA34A
		* ------------------- *
A313 B68730	AA313	LDAA	D8730
A316 122A0130		BRSET	$2A,#1,AA34A
A31A 12D5022C		BRSET	$D5,#2,AA34A
A31E CE86FE		LDX	#T86FE
A321 9654	AA321	LDAA	Y0054
A323 BDE3AC		JSR	AE3AC
A326 1244FF0F		BRSET	$44,#$FF,AA339
A32A 36 		PSHA
A32B 9644		LDAA	Y0044
A32D CE8724		LDX	#T8724
A330 BDE3AC		JSR	AE3AC
A333 33 		PULB
A334 1B 		ABA
A335 2402		BCC	AA339
A337 86FF		LDAA	#$FF
A339 D627	AA339	LDAB	Y0027
A33B C5C0		BITB	#$C0
A33D 270B		BEQ	AA34A
A33F 13614007		BRCLR	$61,#$40,AA34A
A343 F6872F		LDAB	D872F
A346 11 		CBA
A347 2401		BCC	AA34A
A349 17 		TBA
A34A 5F 	AA34A	CLRB
A34B 04 	AA34B	LSRD
A34C 04 		LSRD
A34D DD6D	AA34D	STD	Y006D
A34F 96E0	AA34F	LDAA	Y00E0
A351 8107		CMPA	#7
A353 2744		BEQ	AA399
A355 8114		CMPA	#$14
A357 2740		BEQ	AA399
A359 12072004		BRSET	7,#$20,AA361
A35D 12204028		BRSET	$20,#$40,AA389
A361 9669	AA361	LDAA	Y0069
A363 9108		CMPA	Y0008
A365 2607		BNE	AA36E
A367 12074003		BRSET	7,#$40,AA36E
A36B 150720		BCLR	7,#$20
A36E 9654	AA36E	LDAA	Y0054
A370 CE8688		LDX	#T8688
A373 BDE3AC		JSR	AE3AC
A376 36 		PSHA
A377 960D		LDAA	Y000D
A379 CE869B		LDX	#T869B
A37C BDE3AC		JSR	AE3AC
A37F 33 		PULB
A380 1B 		ABA
A381 2403		BCC	AA386
A383 7EA4FF		JMP	AA4FF
		* ------------------- *
A386 7EA4F1	AA386	JMP	AA4F1
		* ------------------- *
A389 13D58811	AA389	BRCLR	$D5,#$88,AA39E
A38D B68A3F		LDAA	D8A3F
A390 9769		STAA	Y0069
A392 13254004		BRCLR	$25,#$40,AA39A
A396 14250C		BSET	$25,#$0C
A399 39 	AA399	RTS
		* ------------------- *
A39A 15250C	AA39A	BCLR	$25,#$0C
A39D 39 		RTS
		* ------------------- *
A39E BDA537	AA39E	JSR	AA537
A3A1 09 		DEX
A3A2 2601		BNE	AA3A5
A3A4 39 		RTS
		* ------------------- *
A3A5 13250232	AA3A5	BRCLR	$25,#2,AA3DB
A3A9 CE875A		LDX	#T875A
A3AC 960D		LDAA	Y000D
A3AE 13610103		BRCLR	$61,#1,AA3B5
A3B2 CE8764		LDX	#T8764
A3B5 BDE3E4	AA3B5	JSR	AE3E4
A3B8 17 		TBA
A3B9 1361010A		BRCLR	$61,#1,AA3C7
A3BD 40 		NEGA
A3BE 132D2015		BRCLR	$2D,#$20,AA3D7
A3C2 152D20		BCLR	$2D,#$20
A3C5 200A		BRA	AA3D1
		* ------------------- *
A3C7 D646	AA3C7	LDAB	T_RPM
A3C9 F18763		CMPB	D8763
A3CC 2409		BCC	AA3D7
A3CE 142D20		BSET	$2D,#$20
A3D1 BDA51D	AA3D1	JSR	AA51D
A3D4 4F 		CLRA
A3D5 9768		STAA	Y0068
A3D7 152502	AA3D7	BCLR	$25,#2
A3DA 39 		RTS
		* ------------------- *
A3DB 13228017	AA3DB	BRCLR	$22,#$80,AA3F6
A3DF 12270103		BRSET	$27,#1,AA3E6
A3E3 152580		BCLR	$25,#$80
A3E6 13612010	AA3E6	BRCLR	$61,#$20,AA3FA
A3EA CE867D		LDX	#T867D
A3ED 965C		LDAA	Y005C
A3EF BDE3AC		JSR	AE3AC
A3F2 9146		CMPA	T_RPM
A3F4 2404		BCC	AA3FA
A3F6 13222003	AA3F6	BRCLR	$22,#$20,AA3FD
A3FA 7EA462	AA3FA	JMP	AA462
		* ------------------- *
A3FD 12220498	AA3FD	BRSET	$22,#4,AA399
A401 D66A		LDAB	Y006A
A403 2694		BNE	AA399
A405 9669		LDAA	Y0069
A407 8104		CMPA	#4
A409 2503		BCS	AA40E
A40B 150710		BCLR	7,#$10
A40E 13258018	AA40E	BRCLR	$25,#$80,AA42A
A412 CE8774		LDX	#T8774
A415 13611003		BRCLR	$61,#$10,AA41C
A419 CE877F		LDX	#T877F
A41C 9654	AA41C	LDAA	Y0054
A41E BDE3AC		JSR	AE3AC
A421 BDA51D		JSR	AA51D
A424 4F 		CLRA
A425 9768		STAA	Y0068
A427 152580		BCLR	$25,#$80
A42A F6876D	AA42A	LDAB	D876D
A42D D168		CMPB	Y0068
A42F 2430		BCC	AA461
A431 CE8731		LDX	#T8731
A434 DC6D		LDD	Y006D
A436 9346		SUBD	T_RPM
A438 2407		BCC	AA441
A43A CE8744		LDX	#T8744
A43D DC46		LDD	T_RPM
A43F 936D		SUBD	Y006D
A441 04 	AA441	LSRD
A442 04 		LSRD
A443 12270104		BRSET	$27,#1,AA44B
A447 12251001		BRSET	$25,#$10,AA44C
A44B 04 	AA44B	LSRD
A44C 4D 	AA44C	TSTA
A44D 2702		BEQ	AA451
A44F C6FF		LDAB	#$FF
A451 17 	AA451	TBA
A452 A101		CMPA	1,X
A454 250B		BCS	AA461
A456 BDE3AC		JSR	AE3AC
A459 2706		BEQ	AA461
A45B BDA51D		JSR	AA51D
A45E 4F 		CLRA
A45F 9768		STAA	Y0068
A461 39 	AA461	RTS
		* ------------------- *
A462 9654	AA462	LDAA	Y0054
A464 CE86BB		LDX	#T86BB
A467 BDE3AC		JSR	AE3AC
A46A B7609E		STAA	Y609E
A46D 9644		LDAA	Y0044
A46F CE86CA		LDX	#T86CA
A472 BDE3AC		JSR	AE3AC
A475 BB609E		ADDA	Y609E
A478 2403		BCC	AA47D
A47A 7EA4FF		JMP	AA4FF
		* ------------------- *
A47D B7609E	AA47D	STAA	Y609E
A480 960D		LDAA	Y000D
A482 CE86F3		LDX	#T86F3
A485 BDE3AC		JSR	AE3AC
A488 B6609E		LDAA	Y609E
A48B 3D 		MUL
A48C 05 		ASLD
A48D 2570		BCS	AA4FF
A48F 05 		ASLD
A490 256D		BCS	AA4FF
A492 B7609E		STAA	Y609E
A495 CE86E4		LDX	#T86E4
A498 9646		LDAA	T_RPM
A49A BDE3AC		JSR	AE3AC
A49D B1609E		CMPA	Y609E
A4A0 2503		BCS	AA4A5
A4A2 B7609E		STAA	Y609E
A4A5 965C	AA4A5	LDAA	Y005C
A4A7 CE86D5		LDX	#T86D5
A4AA BDE3AC		JSR	AE3AC
A4AD B1609E		CMPA	Y609E
A4B0 2403		BCC	AA4B5
A4B2 B6609E		LDAA	Y609E
A4B5 12250426	AA4B5	BRSET	$25,#4,AA4DF
A4B9 F686A6		LDAB	D86A6
A4BC 1222201C		BRSET	$22,#$20,AA4DC
A4C0 36 		PSHA
A4C1 9654		LDAA	Y0054
A4C3 B186A7		CMPA	D86A7
A4C6 2513		BCS	AA4DB
A4C8 CE86AB		LDX	#T86AB
A4CB 965F		LDAA	Y005F
A4CD BDE3AC		JSR	AE3AC
A4D0 13250807		BRCLR	$25,#8,AA4DB
A4D4 B686A9		LDAA	D86A9
A4D7 3D 		MUL
A4D8 8900		ADCA	#0
A4DA 16 		TAB
A4DB 32 	AA4DB	PULA
A4DC 1B 	AA4DC	ABA
A4DD 2520		BCS	AA4FF
A4DF 12251005	AA4DF	BRSET	$25,#$10,AA4E8
A4E3 BB86BA		ADDA	D86BA
A4E6 2517		BCS	AA4FF
A4E8 13614005	AA4E8	BRCLR	$61,#$40,AA4F1
A4EC BB8773		ADDA	D8773
A4EF 250E		BCS	AA4FF
A4F1 12071005	AA4F1	BRSET	7,#$10,AA4FA
A4F5 BB8772		ADDA	D8772
A4F8 2505		BCS	AA4FF
A4FA B1876E	AA4FA	CMPA	D876E
A4FD 2503		BCS	AA502
A4FF B6876E	AA4FF	LDAA	D876E
A502 12222011	AA502	BRSET	$22,#$20,AA517
A506 9169		CMPA	Y0069
A508 240A		BCC	AA514
A50A D645		LDAB	Y0045           ;#subr
A50C F58771		BITB	D8771
A50F 2605		BNE	AA516
A511 9669		LDAA	Y0069
A513 4A 		DECA
A514 9769	AA514	STAA	Y0069
A516 39 	AA516	RTS
		* ------------------- *
A517 152220	AA517	BCLR	$22,#$20
A51A 9769		STAA	Y0069
A51C 39 		RTS
		* ------------------- *
A51D 08 	AA51D	INX
A51E 4D 		TSTA
A51F 2B0E		BMI	AA52F
A521 9B69		ADDA	Y0069
A523 F6876E		LDAB	D876E
A526 2503		BCS	AA52B
A528 11 		CBA
A529 2501		BCS	AA52C
A52B 17 	AA52B	TBA
A52C 9769	AA52C	STAA	Y0069
A52E 39 		RTS
		* ------------------- *
A52F 9B69	AA52F	ADDA	Y0069
A531 2501		BCS	AA534
A533 4F 		CLRA
A534 9769	AA534	STAA	Y0069
A536 39 		RTS
		* ------------------- *
A537 CE0000	AA537	LDX	#$0000
A53A D625		LDAB	Y0025
A53C C404		ANDB	#4
A53E F7609D		STAB	Y609D
A541 D625		LDAB	Y0025
A543 C440		ANDB	#$40
A545 54 		LSRB
A546 54 		LSRB
A547 54 		LSRB
A548 54 		LSRB
A549 F8609D		EORB	Y609D
A54C 261D		BNE	AA56B
A54E 12250467		BRSET	$25,#4,AA5B9
A552 966C		LDAA	Y006C
A554 2711		BEQ	AA567
A556 5F 		CLRB
A557 D768		STAB	Y0068
A559 4A 		DECA
A55A 976C		STAA	Y006C
A55C 265B		BNE	AA5B9
A55E 12228005		BRSET	$22,#$80,AA567
A562 B68758		LDAA	D8758
A565 8DB6		BSR	AA51D
A567 152508	AA567	BCLR	$25,#8
A56A 39 		RTS
		* ------------------- *
A56B 9644	AA56B	LDAA	Y0044
A56D B18810		CMPA	D8810
A570 2547		BCS	AA5B9
A572 D825		EORB	Y0025
A574 D725		STAB	Y0025
A576 C504		BITB	#4
A578 2618		BNE	AA592
A57A B686A8		LDAA	D86A8
A57D 976C		STAA	Y006C
A57F 12228006		BRSET	$22,#$80,AA589
A583 B68757		LDAA	D8757
A586 BDA51D		JSR	AA51D
A589 966C	AA589	LDAA	Y006C
A58B 2729		BEQ	AA5B6
A58D 4A 		DECA
A58E 976C		STAA	Y006C
A590 2024		BRA	AA5B6
		* ------------------- *
A592 12228008	AA592	BRSET	$22,#$80,AA59E
A596 B68759		LDAA	D8759
A599 BDA51D		JSR	AA51D
A59C 2015		BRA	AA5B3
		* ------------------- *
A59E CE86AB	AA59E	LDX	#T86AB
A5A1 965F		LDAA	Y005F
A5A3 BDE3AC		JSR	AE3AC
A5A6 F686AA		LDAB	D86AA
A5A9 3D 		MUL
A5AA 16 		TAB
A5AB 9669		LDAA	Y0069
A5AD 10 		SBA
A5AE 2401		BCC	AA5B1
A5B0 4F 		CLRA
A5B1 9769	AA5B1	STAA	Y0069
A5B3 4F 	AA5B3	CLRA
A5B4 976C		STAA	Y006C
A5B6 4F 	AA5B6	CLRA
A5B7 9768		STAA	Y0068
A5B9 142508	AA5B9	BSET	$25,#8
A5BC 39 		RTS
		* ------------------- *
A5BD 13204012	AA5BD	BRCLR	$20,#$40,AA5D3
A5C1 1207200E		BRSET	7,#$20,AA5D3
A5C5 1222800A		BRSET	$22,#$80,AA5D3
A5C9 96D5		LDAA	Y00D5
A5CB 8588		BITA	#$88
A5CD 2604		BNE	AA5D3
A5CF 9635		LDAA	Y0035           ;Hig TimeTic
A5D1 2701		BEQ	AA5D4
A5D3 39 	AA5D3	RTS
		* ------------------- *
A5D4 9609	AA5D4	LDAA	Y0009
A5D6 44 		LSRA
A5D7 44 		LSRA
A5D8 13614012		BRCLR	$61,#$40,AA5EE
A5DC 7D8803		TST	D8803
A5DF 2B07		BMI	AA5E8
A5E1 BB8803		ADDA	D8803
A5E4 2543		BCS	AA629
A5E6 2006		BRA	AA5EE
		* ------------------- *
A5E8 BB8803	AA5E8	ADDA	D8803
A5EB 2501		BCS	AA5EE
A5ED 4F 		CLRA
A5EE BB8802	AA5EE	ADDA	D8802
A5F1 2536		BCS	AA629
A5F3 36 		PSHA
A5F4 CE878A		LDX	#T878A
A5F7 960D		LDAA	Y000D
A5F9 BDE3AC		JSR	AE3AC
A5FC 32 		PULA
A5FD 50 		NEGB
A5FE 10 		SBA
A5FF 2401		BCC	AA602
A601 4F 		CLRA
A602 13220425	AA602	BRCLR	$22,#4,AA62B
A606 36 		PSHA
A607 CE879D		LDX	#T879D
A60A 9644		LDAA	Y0044
A60C BDE3AC		JSR	AE3AC
A60F 32 		PULA
A610 1B 		ABA
A611 2516		BCS	AA629
A613 36 		PSHA
A614 CE87A8		LDX	#T87A8
A617 9654		LDAA	Y0054
A619 BDE3AC		JSR	AE3AC
A61C 33 		PULB
A61D 1B 		ABA
A61E 2509		BCS	AA629
A620 12CE0107		BRSET	$CE,#1,AA62B
A624 BB8801		ADDA	D8801
A627 2402		BCC	AA62B
A629 86FF	AA629	LDAA	#$FF
A62B D636	AA62B	LDAB	TimeTic
A62D 58 		ASLB
A62E 2503		BCS	AA633
A630 58 		ASLB
A631 2402		BCC	AA635
A633 C6FF	AA633	LDAB	#$FF
A635 3D 	AA635	MUL
A636 05 		ASLD
A637 252B		BCS	AA664
A639 B7609E		STAA	Y609E
A63C CE87BB		LDX	#T87BB
A63F 9646		LDAA	T_RPM
A641 BDE3AC		JSR	AE3AC
A644 36 		PSHA
A645 CE87D5		LDX	#T87D5
A648 9654		LDAA	Y0054
A64A BDE3AC		JSR	AE3AC
A64D 33 		PULB
A64E 3D 		MUL
A64F B9609E		ADCA	Y609E
A652 2510		BCS	AA664
A654 B7609E		STAA	Y609E
A657 CE87CA		LDX	#T87CA
A65A 960D		LDAA	Y000D
A65C BDE3AC		JSR	AE3AC
A65F BB609E		ADDA	Y609E
A662 2402		BCC	AA666
A664 86FF	AA664	LDAA	#$FF
A666 976B	AA666	STAA	Y006B
A668 12220466		BRSET	$22,#4,AA6D2
A66C 12270104		BRSET	$27,#1,AA674
A670 1361105D		BRCLR	$61,#$10,AA6D1
A674 D645	AA674	LDAB	Y0045           ;#subr
A676 F58805		BITB	D8805
A679 2656		BNE	AA6D1
A67B D644		LDAB	Y0044
A67D F18804		CMPB	D8804
A680 254F		BCS	AA6D1
A682 13CE014B		BRCLR	$CE,#1,AA6D1
A686 D66A		LDAB	Y006A
A688 2647		BNE	AA6D1
A68A D654		LDAB	Y0054
A68C F187FF		CMPB	D87FF
A68F 2540		BCS	AA6D1
A691 D66D		LDAB	Y006D
A693 D046		SUBB	T_RPM
A695 2401		BCC	AA698
A697 50 		NEGB
A698 F18800	AA698	CMPB	D8800
A69B 2234		BHI	AA6D1
A69D D609		LDAB	Y0009
A69F 9150		CMPA	Y0050           ;MAP_DATA
A6A1 2203		BHI	AA6A6
A6A3 5C 		INCB
A6A4 2604		BNE	AA6AA
A6A6 5D 	AA6A6	TSTB
A6A7 2703		BEQ	AA6AC
A6A9 5A 		DECB
A6AA D709	AA6AA	STAB	Y0009
A6AC 12270104	AA6AC	BRSET	$27,#1,AA6B4
A6B0 1325101D		BRCLR	$25,#$10,AA6D1
A6B4 9668	AA6B4	LDAA	Y0068
A6B6 B1876D		CMPA	D876D
A6B9 2516		BCS	AA6D1
A6BB 9608		LDAA	Y0008
A6BD 9169		CMPA	Y0069
A6BF 2610		BNE	AA6D1
A6C1 9669		LDAA	Y0069
A6C3 B18772		CMPA	D8772
A6C6 2709		BEQ	AA6D1
A6C8 2202		BHI	AA6CC
A6CA 4C 		INCA
A6CB 4C 		INCA
A6CC 4A 	AA6CC	DECA
A6CD 9769		STAA	Y0069
A6CF 9708		STAA	Y0008
A6D1 39 	AA6D1	RTS
		* ------------------- *
A6D2 D66A	AA6D2	LDAB	Y006A
A6D4 26FB		BNE	AA6D1
A6D6 D668		LDAB	Y0068
A6D8 F187FE		CMPB	D87FE
A6DB 25F4		BCS	AA6D1
A6DD CE87E0		LDX	#T87E0
A6E0 9050		SUBA	Y0050           ;MAP_DATA
A6E2 2404		BCC	AA6E8
A6E4 40 		NEGA
A6E5 CE87EF		LDX	#T87EF
A6E8 BDE3AC	AA6E8	JSR	AE3AC
A6EB BDA51D		JSR	AA51D
A6EE 9769		STAA	Y0069
A6F0 9108		CMPA	Y0008
A6F2 27DD		BEQ	AA6D1
A6F4 7F0068		CLR	Y0068
A6F7 39 		RTS
		* ------------------- *
A6F8 1222041B	AA6F8	BRSET	$22,#4,AA717
A6FC 96D5		LDAA	Y00D5
A6FE 8588		BITA	#$88
A700 2615		BNE	AA717
A702 9669		LDAA	Y0069
A704 9A08		ORAA	Y0008
A706 260F		BNE	AA717
A708 D645		LDAB	Y0045           ;#subr
A70A C57F		BITB	#$7F
A70C 2609		BNE	AA717
A70E 8B02		ADDA	#2
A710 9708		STAA	Y0008
A712 9769		STAA	Y0069
A714 140710		BSET	7,#$10
A717 39 	AA717	RTS
		* ------------------- *
A718 15330F	AA718	BCLR	$33,#$0F
A71B 12610405		BRSET	$61,#4,AA724
A71F 5F 		CLRB
A720 D7C4		STAB	Y00C4
A722 205E		BRA	AA782
		* ------------------- *
A724 7C0033	AA724	INC	Y0033
A727 DC5D		LDD	Y005D
A729 05 		ASLD
A72A 05 		ASLD
A72B 05 		ASLD
A72C 58 		ASLB
A72D 8900		ADCA	#0
A72F B76099		STAA	Y6099
A732 B188DC		CMPA	D88DC
A735 2542		BCS	AA779
A737 7C0033		INC	Y0033
A73A 9646		LDAA	T_RPM
A73C B188DD		CMPA	D88DD
A73F 2438		BCC	AA779
A741 7C0033		INC	Y0033
A744 12612031		BRSET	$61,#$20,AA779
A748 7C0033		INC	Y0033
A74B 1227010C		BRSET	$27,#1,AA75B
A74F 13611026		BRCLR	$61,#$10,AA779
A753 7C0033		INC	Y0033
A756 7C0033		INC	Y0033
A759 2050		BRA	AA7AB
		* ------------------- *
A75B 7C0033	AA75B	INC	Y0033
A75E 9635		LDAA	Y0035           ;Hig TimeTic
A760 260C		BNE	AA76E
A762 D663		LDAB	Y0063
A764 F188DA		CMPB	D88DA
A767 2410		BCC	AA779
A769 F188DB		CMPB	D88DB
A76C 250B		BCS	AA779
A76E 7C0033	AA76E	INC	Y0033
A771 12318036		BRSET	$31,#$80,AA7AB
A775 13240832		BRCLR	$24,#8,AA7AB
A779 13311805	AA779	BRCLR	$31,#$18,AA782
A77D B66099		LDAA	Y6099
A780 97C4		STAA	Y00C4
A782 12318009	AA782	BRSET	$31,#$80,AA78F
A786 D633		LDAB	Y0033
A788 C40F		ANDB	#$0F
A78A 8611		LDAA	#$11
A78C 3D 		MUL
A78D D733		STAB	Y0033
A78F 5F 	AA78F	CLRB
A790 D7C5		STAB	Y00C5
A792 D7CA		STAB	Y00CA
A794 D7CB		STAB	Y00CB
A796 D7C3		STAB	Y00C3
A798 D7C9		STAB	Y00C9
A79A D7C6		STAB	Y00C6
A79C 15311F		BCLR	$31,#$1F
A79F 1431A0		BSET	$31,#$A0
A7A2 15320F		BCLR	$32,#$0F
A7A5 14C580		BSET	$C5,#$80
A7A8 7EA963		JMP	AA963
		* ------------------- *
A7AB 7C0033	AA7AB	INC	Y0033
A7AE B660B6		LDAA	Y60B6
A7B1 16 		TAB
A7B2 B860B7		EORA	Y60B7
A7B5 84C0		ANDA	#$C0
A7B7 2757		BEQ	AA810
A7B9 12260153		BRSET	$26,#1,AA810
A7BD 8540		BITA	#$40
A7BF 2601		BNE	AA7C2
A7C1 54 		LSRB
A7C2 8600	AA7C2	LDAA	#0
A7C4 C540		BITB	#$40
A7C6 2636		BNE	AA7FE
A7C8 12318027		BRSET	$31,#$80,AA7F3
A7CC B66099		LDAA	Y6099
A7CF 36 		PSHA
A7D0 CC0F89		LDD	#$0F89
A7D3 BDD163		JSR	AD163        	;error  0F89
A7D6 32 		PULA
A7D7 B76099		STAA	Y6099
A7DA CC0F08		LDD	#$0F08
A7DD CE00DC		LDX	#$00DC
A7E0 A100		CMPA	,X
A7E2 2705		BEQ	AA7E9
A7E4 08 		INX
A7E5 A100		CMPA	,X
A7E7 2627		BNE	AA810
A7E9 E102	AA7E9	CMPB	2,X
A7EB 2623		BNE	AA810
A7ED 6F00		CLR	,X
A7EF 6F02		CLR	2,X
A7F1 2086		BRA	AA779
		* ------------------- *
A7F3 8607	AA7F3	LDAA	#7
A7F5 F660B6		LDAB	Y60B6
A7F8 C5C0		BITB	#$C0
A7FA 2602		BNE	AA7FE
A7FC 867F		LDAA	#$7F
A7FE 9545	AA7FE	BITA	Y0045           ;#subr
A800 260E		BNE	AA810
A802 B66099		LDAA	Y6099
A805 36 		PSHA
A806 CC0F10		LDD	#$0F10
A809 BDD163		JSR	AD163          	;error  0F10
A80C 32 		PULA
A80D B76099		STAA	Y6099
A810 7C0033	AA810	INC	Y0033
A813 12610256		BRSET	$61,#2,AA86D
A817 D6C5		LDAB	Y00C5
A819 5C 		INCB
A81A 2601		BNE	AA81D
A81C 5A 		DECB
A81D D7C5	AA81D	STAB	Y00C5
A81F 1231011B		BRSET	$31,#1,AA83E
A823 12C58021		BRSET	$C5,#$80,AA848
A827 C104		CMPB	#4
A829 231D		BLS	AA848
A82B 143121		BSET	$31,#$21
A82E 15310A		BCLR	$31,#$0A
A831 143204		BSET	$32,#4
A834 4F 		CLRA
A835 97CA		STAA	Y00CA
A837 97CB		STAA	Y00CB
A839 153104		BCLR	$31,#4
A83C 200A		BRA	AA848
		* ------------------- *
A83E 12318006	AA83E	BRSET	$31,#$80,AA848
A842 12311015		BRSET	$31,#$10,AA85B
A846 2003		BRA	AA84B
		* ------------------- *
A848 7EAA73	AA848	JMP	AAA73
		* ------------------- *
A84B F188D3	AA84B	CMPB	D88D3
A84E 23F8		BLS	AA848
A850 143110		BSET	$31,#$10
A853 153203		BCLR	$32,#3
A856 B66099		LDAA	Y6099
A859 97CB		STAA	Y00CB
A85B D632	AA85B	LDAB	Y0032
A85D C1A0		CMPB	#$A0
A85F 25E7		BCS	AA848
A861 D6CB		LDAB	Y00CB
A863 F088E9		SUBB	D88E9
A866 2401		BCC	AA869
A868 5F 		CLRB
A869 D7CB	AA869	STAB	Y00CB
A86B 20DB		BRA	AA848
		* ------------------- *
A86D 13310163	AA86D	BRCLR	$31,#1,AA8D4
A871 867F		LDAA	#$7F
A873 12318030		BRSET	$31,#$80,AA8A7
A877 1232080B		BRSET	$32,#8,AA886
A87B D6C4		LDAB	Y00C4
A87D F06099		SUBB	Y6099
A880 2404		BCC	AA886
A882 C1FC		CMPB	#$FC
A884 2521		BCS	AA8A7
A886 12311002	AA886	BRSET	$31,#$10,AA88C
A88A 2021		BRA	AA8AD
		* ------------------- *
A88C 96CA	AA88C	LDAA	Y00CA
A88E F688E8		LDAB	D88E8
A891 CB80		ADDB	#$80
A893 2B07		BMI	AA89C
A895 3D 		MUL
A896 99CA		ADCA	Y00CA
A898 2509		BCS	AA8A3
A89A 2003		BRA	AA89F
		* ------------------- *
A89C 3D 	AA89C	MUL
A89D 8900		ADCA	#0
A89F 817F	AA89F	CMPA	#$7F
A8A1 230A		BLS	AA8AD
A8A3 867F	AA8A3	LDAA	#$7F
A8A5 2006		BRA	AA8AD
		* ------------------- *
A8A7 143201	AA8A7	BSET	$32,#1
A8AA 5F 		CLRB
A8AB D7C9		STAB	Y00C9
A8AD F66099	AA8AD	LDAB	Y6099
A8B0 D7C4		STAB	Y00C4
A8B2 B7609B		STAA	Y609B
A8B5 BDAA3B		JSR	AAA3B
A8B8 F6609B		LDAB	Y609B
A8BB 11 		CBA
A8BC 2201		BHI	AA8BF
A8BE 16 		TAB
A8BF 153191	AA8BF	BCLR	$31,#$91
A8C2 153208		BCLR	$32,#8
A8C5 152408		BCLR	$24,#8
A8C8 4F 		CLRA
A8C9 97CA		STAA	Y00CA
A8CB 97C5		STAA	Y00C5
A8CD 97CB		STAA	Y00CB
A8CF 97C3		STAA	Y00C3
A8D1 7EA963		JMP	AA963
		* ------------------- *
A8D4 5F 	AA8D4	CLRB
A8D5 D7C5		STAB	Y00C5
A8D7 12610803		BRSET	$61,#8,AA8DE
A8DB 7EA9D5		JMP	AA9D5
		* ------------------- *
A8DE D6CA	AA8DE	LDAB	Y00CA
A8E0 5C 		INCB
A8E1 2601		BNE	AA8E4
A8E3 5A 		DECB
A8E4 D7CA	AA8E4	STAB	Y00CA
A8E6 13310203		BRCLR	$31,#2,AA8ED
A8EA 7EA97F		JMP	AA97F
		* ------------------- *
A8ED 13312003	AA8ED	BRCLR	$31,#$20,AA8F4
A8F1 7EAA1C		JMP	AAA1C
		* ------------------- *
A8F4 C104	AA8F4	CMPB	#4
A8F6 2203		BHI	AA8FB
A8F8 7EAA73		JMP	AAA73
		* ------------------- *
A8FB 143106	AA8FB	BSET	$31,#6
A8FE 143204		BSET	$32,#4
A901 4F 		CLRA
A902 97C3		STAA	Y00C3
A904 13318038		BRCLR	$31,#$80,AA940
A908 143120		BSET	$31,#$20
A90B 153180		BCLR	$31,#$80
A90E 152408		BCLR	$24,#8
A911 BDAA3B		JSR	AAA3B
A914 B7609B		STAA	Y609B
A917 96C4		LDAA	Y00C4
A919 B06099		SUBA	Y6099
A91C 2403		BCC	AA921
A91E 16 		TAB
A91F C880		EORB	#$80
A921 2A05	AA921	BPL	AA928
A923 48 		ASLA
A924 8680		LDAA	#$80
A926 8200		SBCA	#0
A928 8B80	AA928	ADDA	#$80
A92A CE8953		LDX	#T8953
A92D BDE3AC		JSR	AE3AC
A930 CB80		ADDB	#$80
A932 FB609B		ADDB	Y609B
A935 2A43		BPL	AA97A
A937 2804		BVC	AA93D
A939 C67F		LDAB	#$7F
A93B 203D		BRA	AA97A
		* ------------------- *
A93D 5F 	AA93D	CLRB
A93E 203A		BRA	AA97A
		* ------------------- *
A940 153203	AA940	BCLR	$32,#3
A943 96C4		LDAA	Y00C4
A945 8B04		ADDA	#4
A947 97C4		STAA	Y00C4
A949 D6C7		LDAB	Y00C7
A94B 8003		SUBA	#3
A94D B188D8		CMPA	D88D8
A950 2211		BHI	AA963
A952 F688DE		LDAB	D88DE
A955 96C7		LDAA	Y00C7
A957 2B0A		BMI	AA963
A959 1B 		ABA
A95A 2504		BCS	AA960
A95C 817F		CMPA	#$7F
A95E 2302		BLS	AA962
A960 867F	AA960	LDAA	#$7F
A962 16 	AA962	TAB
A963 96C4	AA963	LDAA	Y00C4
A965 B188D8		CMPA	D88D8
A968 2308		BLS	AA972
A96A 153203		BCLR	$32,#3
A96D B688D8		LDAA	D88D8
A970 2006		BRA	AA978
		* ------------------- *
A972 B188D9	AA972	CMPA	D88D9
A975 2403		BCC	AA97A
A977 4F 		CLRA
A978 97C4	AA978	STAA	Y00C4
A97A D7C7	AA97A	STAB	Y00C7
A97C 7EAA73	AA97C	JMP	AAA73
		* ------------------- *
A97F 123120F9	AA97F	BRSET	$31,#$20,AA97C
A983 12310817		BRSET	$31,#8,AA99E
A987 F188D4		CMPB	D88D4
A98A 23F0		BLS	AA97C
A98C 143108		BSET	$31,#8
A98F 143208		BSET	$32,#8
A992 B66099		LDAA	Y6099
A995 BB88EB		ADDA	D88EB
A998 2402		BCC	AA99C
A99A 86FF		LDAA	#$FF
A99C 97CB	AA99C	STAA	Y00CB
A99E B66099	AA99E	LDAA	Y6099
A9A1 B188D8		CMPA	D88D8
A9A4 2507		BCS	AA9AD
A9A6 143120		BSET	$31,#$20
A9A9 D6C7		LDAB	Y00C7
A9AB 2058		BRA	AAA05
		* ------------------- *
A9AD D632	AA9AD	LDAB	Y0032
A9AF C1A0		CMPB	#$A0
A9B1 25C9		BCS	AA97C
A9B3 D6CB		LDAB	Y00CB
A9B5 F088EA		SUBB	D88EA
A9B8 2401		BCC	AA9BB
A9BA 5F 		CLRB
A9BB F188D8	AA9BB	CMPB	D88D8
A9BE 2411		BCC	AA9D1
A9C0 BB88EC		ADDA	D88EC
A9C3 2509		BCS	AA9CE
A9C5 11 		CBA
A9C6 2309		BLS	AA9D1
A9C8 16 		TAB
A9C9 F188D8		CMPB	D88D8
A9CC 2303		BLS	AA9D1
A9CE F688D8	AA9CE	LDAB	D88D8
A9D1 D7CB	AA9D1	STAB	Y00CB
A9D3 20A7		BRA	AA97C
		* ------------------- *
A9D5 153102	AA9D5	BCLR	$31,#2
A9D8 96C4		LDAA	Y00C4
A9DA 2703		BEQ	AA9DF
A9DC 153120		BCLR	$31,#$20
A9DF 13310839	AA9DF	BRCLR	$31,#8,AAA1C
A9E3 96CA		LDAA	Y00CA
A9E5 815D		CMPA	#$5D
A9E7 220A		BHI	AA9F3
A9E9 153108		BCLR	$31,#8
A9EC 153208		BCLR	$32,#8
A9EF D7CB		STAB	Y00CB
A9F1 2029		BRA	AAA1C
		* ------------------- *
A9F3 B66099	AA9F3	LDAA	Y6099
A9F6 8B04		ADDA	#4
A9F8 90C4		SUBA	Y00C4
A9FA 2401		BCC	AA9FD
A9FC 4F 		CLRA
A9FD CE8990	AA9FD	LDX	#T8990
AA00 BDE3AC		JSR	AE3AC
AA03 CA80		ORAB	#$80
AA05 B66099	AAA05	LDAA	Y6099
AA08 97C4		STAA	Y00C4
AA0A 15310C		BCLR	$31,#$0C
AA0D 153208		BCLR	$32,#8
AA10 4F 		CLRA
AA11 97CB		STAA	Y00CB
AA13 97CA		STAA	Y00CA
AA15 5D 		TSTB
AA16 2B01		BMI	AAA19
AA18 5F 		CLRB
AA19 7EA963	AAA19	JMP	AA963
		* ------------------- *
AA1C 5F 	AAA1C	CLRB
AA1D D7CA		STAB	Y00CA
AA1F 9632		LDAA	Y0032
AA21 8804		EORA	#4
AA23 8507		BITA	#7
AA25 264C		BNE	AAA73
AA27 9645		LDAA	Y0045           ;#subr
AA29 2648		BNE	AAA73
AA2B D6C3		LDAB	Y00C3
AA2D 5C 		INCB
AA2E F188E3		CMPB	D88E3
AA31 2504		BCS	AAA37
AA33 153204		BCLR	$32,#4
AA36 5F 		CLRB
AA37 D7C3	AAA37	STAB	Y00C3
AA39 2038		BRA	AAA73
		* ------------------- *
AA3B 96C4	AAA3B	LDAA	Y00C4
AA3D CE892D		LDX	#T892D
AA40 BDE3AC		JSR	AE3AC
AA43 2A02		BPL	AAA47
AA45 C67F		LDAB	#$7F
AA47 F7609A	AAA47	STAB	Y609A
AA4A 964F		LDAA	Y004F
AA4C CE893C		LDX	#T893C
AA4F BDE3AC		JSR	AE3AC
AA52 F6609A		LDAB	Y609A
AA55 58 		ASLB
AA56 3D 		MUL
AA57 8900		ADCA	#0
AA59 2A02		BPL	AAA5D
AA5B 867F		LDAA	#$7F
AA5D CE0012	AAA5D	LDX	#$0012
AA60 D6C4		LDAB	Y00C4
AA62 F188ED		CMPB	D88ED
AA65 2301		BLS	AAA68
AA67 09 		DEX
AA68 AB00	AAA68	ADDA	,X
AA6A 2A03		BPL	AAA6F
AA6C 2902		BVS	AAA70
AA6E 4F 		CLRA
AA6F 39 	AAA6F	RTS
		* ------------------- *
AA70 867F	AAA70	LDAA	#$7F
AA72 39 		RTS
		* ------------------- *
AA73 12318011	AAA73	BRSET	$31,#$80,AAA88
AA77 7C0033		INC	Y0033
AA7A 1331180A		BRCLR	$31,#$18,AAA88
AA7E 7C0033		INC	Y0033
AA81 12310803		BRSET	$31,#8,AAA88
AA85 7C0033		INC	Y0033
AA88 9632	AAA88	LDAA	Y0032
AA8A 8B10		ADDA	#$10
AA8C 81B0		CMPA	#$B0
AA8E 2502		BCS	AAA92
AA90 840F		ANDA	#$0F
AA92 9732	AAA92	STAA	Y0032
AA94 84F0		ANDA	#$F0
AA96 2703		BEQ	AAA9B
AA98 7EAD34		JMP	AAD34
		* ------------------- *
AA9B 5F 	AAA9B	CLRB
AA9C 13241003		BRCLR	$24,#$10,AAAA3
AAA0 7EAB7F		JMP	AAB7F
		* ------------------- *
AAA3 18CE003E	AAAA3	LDY	#$003E
AAA7 CED000		LDX	#$D000
AAAA CC06DD	DAAAA	LDD	#$06DD
AAAD 133DFF0D		BRCLR	$3D,#$FF,AAABE
AAB1 5F 		CLRB
AAB2 4F 		CLRA
AAB3 123D400C		BRSET	$3D,#$40,AAAC3
AAB7 C606		LDAB	#6
AAB9 1809		DEY
AABB CEDDD0		LDX	#$DDD0
AABE 0F 	AAABE	SEI
AABF BDE417		JSR	AE417		;MATH RPM
AAC2 0E 		CLI
AAC3 DE5D	AAAC3	LDX	Y005D
AAC5 FF6099		STX	Y6099
AAC8 DD5D		STD	Y005D
AACA 1332026B		BRCLR	$32,#2,AAB39
AACE 96C3		LDAA	Y00C3
AAD0 13320110		BRCLR	$32,#1,AAAE4
AAD4 B188F7		CMPA	D88F7
AAD7 2405		BCC	AAADE
AAD9 4C 		INCA
AADA 97C3		STAA	Y00C3
AADC 205B		BRA	AAB39
		* ------------------- *
AADE 153201	AAADE	BCLR	$32,#1
AAE1 4F 		CLRA
AAE2 97C3		STAA	Y00C3
AAE4 B188F6	AAAE4	CMPA	D88F6
AAE7 2552		BCS	AAB3B
AAE9 D6C9		LDAB	Y00C9
AAEB 17 		TBA
AAEC 2A01		BPL	AAAEF
AAEE 50 		NEGB
AAEF F188EF	AAAEF	CMPB	D88EF
AAF2 253F		BCS	AAB33
AAF4 CE0012		LDX	#$0012
AAF7 D6C4		LDAB	Y00C4
AAF9 F188ED		CMPB	D88ED
AAFC 2301		BLS	AAAFF
AAFE 09 		DEX
AAFF E600	AAAFF	LDAB	,X
AB01 AB02		ADDA	2,X
AB03 2805		BVC	AAB0A
AB05 48 		ASLA
AB06 8680		LDAA	#$80
AB08 8200		SBCA	#0
AB0A A702	AAB0A	STAA	2,X
AB0C B188F0		CMPA	D88F0
AB0F 2E12		BGT	AAB23
AB11 B188F1		CMPA	D88F1
AB14 2C1D		BGE	AAB33
AB16 F088F3		SUBB	D88F3
AB19 F188F5		CMPB	D88F5
AB1C 2C10		BGE	AAB2E
AB1E F688F5		LDAB	D88F5
AB21 200B		BRA	AAB2E
		* ------------------- *
AB23 FB88F2	AAB23	ADDB	D88F2
AB26 F188F4		CMPB	D88F4
AB29 2F03		BLE	AAB2E
AB2B F688F4		LDAB	D88F4
AB2E E700	AAB2E	STAB	,X
AB30 4F 		CLRA
AB31 A702		STAA	2,X
AB33 153202	AAB33	BCLR	$32,#2
AB36 4F 		CLRA
AB37 97C3		STAA	Y00C3
AB39 202A	AAB39	BRA	AAB65
		* ------------------- *
AB3B 4C 	AAB3B	INCA
AB3C 97C3		STAA	Y00C3
AB3E DC5D		LDD	Y005D
AB40 04 		LSRD
AB41 04 		LSRD
AB42 04 		LSRD
AB43 96C4		LDAA	Y00C4
AB45 48 		ASLA
AB46 48 		ASLA
AB47 10 		SBA
AB48 BB88EE		ADDA	D88EE
AB4B 2B0D		BMI	AAB5A
AB4D D6C9		LDAB	Y00C9
AB4F 2A02		BPL	AAB53
AB51 53 		COMB
AB52 5C 		INCB
AB53 11 	AAB53	CBA
AB54 2F0F		BLE	AAB65
AB56 97C9		STAA	Y00C9
AB58 200B		BRA	AAB65
		* ------------------- *
AB5A D6C9	AAB5A	LDAB	Y00C9
AB5C 2B02		BMI	AAB60
AB5E 53 		COMB
AB5F 5C 		INCB
AB60 11 	AAB60	CBA
AB61 2C02		BGE	AAB65
AB63 97C9		STAA	Y00C9
AB65 FC6099	AAB65	LDD	Y6099
AB68 935D		SUBD	Y005D
AB6A 2603		BNE	AAB6F
AB6C 7F00C8		CLR	Y00C8
AB6F FD6099	AAB6F	STD	Y6099
AB72 4F 		CLRA
AB73 D6C8		LDAB	Y00C8
AB75 2A01		BPL	AAB78
AB77 4A 		DECA
AB78 F36099	AAB78	ADDD	Y6099
AB7B 47 		ASRA
AB7C 56 		RORB
AB7D 8D04		BSR	AAB83
AB7F D7C8	AAB7F	STAB	Y00C8
AB81 2011		BRA	AAB94
		* ------------------- *
AB83 05 	AAB83	ASLD
AB84 2506		BCS	AAB8C
AB86 4D 		TSTA
AB87 2709		BEQ	AAB92
AB89 C67F		LDAB	#$7F
AB8B 39 		RTS
		* ------------------- *
AB8C 81FF	AAB8C	CMPA	#$FF
AB8E 2701		BEQ	AAB91
AB90 5F 		CLRB
AB91 0D 	AAB91	SEC
AB92 56 	AAB92	RORB
AB93 39 		RTS
		* ------------------- *
AB94 12318056	AAB94	BRSET	$31,#$80,AABEE
AB98 CE8907		LDX	#T8907
AB9B 5F 		CLRB
AB9C 96C4		LDAA	Y00C4
AB9E 13311802		BRCLR	$31,#$18,AABA4
ABA2 96CB		LDAA	Y00CB
ABA4 04 	AABA4	LSRD
ABA5 04 		LSRD
ABA6 04 		LSRD
ABA7 935D		SUBD	Y005D
ABA9 2446		BCC	AABF1
ABAB 153104		BCLR	$31,#4
ABAE CE88F8		LDX	#T88F8
ABB1 43 		COMA
ABB2 53 		COMB
ABB3 C30001		ADDD	#$0001
ABB6 F76099		STAB	Y6099
ABB9 4D 		TSTA
ABBA 2707		BEQ	AABC3
ABBC 36 		PSHA
ABBD 86FF		LDAA	#$FF
ABBF B76099		STAA	Y6099
ABC2 32 		PULA
ABC3 04 	AABC3	LSRD
ABC4 04 		LSRD
ABC5 1331100A		BRCLR	$31,#$10,AABD3
ABC9 CE899B		LDX	#T899B
ABCC 4D 		TSTA
ABCD 2738		BEQ	AAC07
ABCF 86FF		LDAA	#$FF
ABD1 2035		BRA	AAC08
		* ------------------- *
ABD3 4D 	AABD3	TSTA
ABD4 2612		BNE	AABE8
ABD6 F188D1		CMPB	D88D1
ABD9 240D		BCC	AABE8
ABDB 17 		TBA
ABDC F66099		LDAB	Y6099
ABDF B188D2		CMPA	D88D2
ABE2 2523		BCS	AAC07
ABE4 8605		LDAA	#5
ABE6 2002		BRA	AABEA
		* ------------------- *
ABE8 860F	AABE8	LDAA	#$0F
ABEA 8A80	AABEA	ORAA	#$80
ABEC 97C7		STAA	Y00C7
ABEE 7EAD34	AABEE	JMP	AAD34
		* ------------------- *
ABF1 13310C05	AABF1	BRCLR	$31,#$0C,AABFA
ABF5 CE891E		LDX	#T891E
ABF8 04 		LSRD
ABF9 04 		LSRD
ABFA 4D 	AABFA	TSTA
ABFB 2702		BEQ	AABFF
ABFD C6FF		LDAB	#$FF
ABFF F188D5	AABFF	CMPB	D88D5
AC02 2403		BCC	AAC07
AC04 153104		BCLR	$31,#4
AC07 17 	AAC07	TBA
AC08 BDE3AC	AAC08	JSR	AE3AC
AC0B 4F 		CLRA
AC0C 5D 		TSTB
AC0D 2A01		BPL	AAC10
AC0F 4A 		DECA
AC10 FD6099	AAC10	STD	Y6099
AC13 CE8981		LDX	#T8981
AC16 965C		LDAA	Y005C
AC18 BDE3AC		JSR	AE3AC
AC1B B7609C		STAA	Y609C
AC1E CE8972		LDX	#T8972
AC21 DC5D		LDD	Y005D
AC23 05 		ASLD
AC24 05 		ASLD
AC25 05 		ASLD
AC26 BDE3AC		JSR	AE3AC
AC29 BB609C		ADDA	Y609C
AC2C 2402		BCC	AAC30
AC2E 86FF		LDAA	#$FF
AC30 B7609C	AAC30	STAA	Y609C
AC33 4F 		CLRA
AC34 B7609B		STAA	Y609B
AC37 D6C8		LDAB	Y00C8
AC39 2A01		BPL	AAC3C
AC3B 4A 		DECA
AC3C 05 	AAC3C	ASLD
AC3D 05 		ASLD
AC3E F36099		ADDD	Y6099
AC41 FD6099		STD	Y6099
AC44 12320428		BRSET	$32,#4,AAC70
AC48 2A05		BPL	AAC4F
AC4A 43 		COMA
AC4B 53 		COMB
AC4C C30001		ADDD	#$0001
AC4F 4D 	AAC4F	TSTA
AC50 2702		BEQ	AAC54
AC52 C6FF		LDAB	#$FF
AC54 F188E1	AAC54	CMPB	D88E1
AC57 2217		BHI	AAC70
AC59 5F 		CLRB
AC5A 96C4		LDAA	Y00C4
AC5C 04 		LSRD
AC5D 04 		LSRD
AC5E 04 		LSRD
AC5F 935D		SUBD	Y005D
AC61 2A05		BPL	AAC68
AC63 43 		COMA
AC64 53 		COMB
AC65 C30001		ADDD	#$0001
AC68 4D 	AAC68	TSTA
AC69 2605		BNE	AAC70
AC6B F188E2		CMPB	D88E2
AC6E 2321		BLS	AAC91
AC70 4F 	AAC70	CLRA
AC71 D6C6		LDAB	Y00C6
AC73 2A01		BPL	AAC76
AC75 4A 		DECA
AC76 F36099	AAC76	ADDD	Y6099
AC79 B7609D		STAA	Y609D
AC7C 2A05		BPL	AAC83
AC7E 43 		COMA
AC7F 53 		COMB
AC80 C30001		ADDD	#$0001
AC83 1AB3609B	AAC83	CPD	Y609B
AC87 240B		BCC	AAC94
AC89 B6609D		LDAA	Y609D
AC8C 2A01		BPL	AAC8F
AC8E 50 		NEGB
AC8F D7C6	AAC8F	STAB	Y00C6
AC91 7EAD34	AAC91	JMP	AAD34
		* ------------------- *
AC94 4F 	AAC94	CLRA
AC95 97C6		STAA	Y00C6
AC97 B6609D		LDAA	Y609D
AC9A 8480		ANDA	#$80
AC9C D6C7		LDAB	Y00C7
AC9E 2707		BEQ	AACA7
ACA0 2AEF		BPL	AAC91
ACA2 16 		TAB
ACA3 D8C7		EORB	Y00C7
ACA5 2AEA		BPL	AAC91
ACA7 D65C	AACA7	LDAB	Y005C
ACA9 4D 		TSTA
ACAA 2A2A		BPL	AACD6
ACAC BA88E5		ORAA	D88E5
ACAF 13311005		BRCLR	$31,#$10,AACB8
ACB3 BB88E7		ADDA	D88E7
ACB6 2048		BRA	AAD00
		* ------------------- *
ACB8 B7609D	AACB8	STAA	Y609D
ACBB 4F 		CLRA
ACBC F188D6		CMPB	D88D6
ACBF 253F		BCS	AAD00
ACC1 CE89C0		LDX	#T89C0
ACC4 FF609B		STX	Y609B
ACC7 CE89CB		LDX	#T89CB
ACCA 8D38		BSR	AAD04
ACCC 8A80		ORAA	#$80
ACCE F6609D		LDAB	Y609D
ACD1 11 		CBA
ACD2 242C		BCC	AAD00
ACD4 2029		BRA	AACFF
		* ------------------- *
ACD6 F188D7	AACD6	CMPB	D88D7
ACD9 2425		BCC	AAD00
ACDB BA88E4		ORAA	D88E4
ACDE 13310805		BRCLR	$31,#8,AACE7
ACE2 BB88E6		ADDA	D88E6
ACE5 2019		BRA	AAD00
		* ------------------- *
ACE7 12310415	AACE7	BRSET	$31,#4,AAD00
ACEB B7609D		STAA	Y609D
ACEE CE89AA		LDX	#T89AA
ACF1 FF609B		STX	Y609B
ACF4 CE89B5		LDX	#T89B5
ACF7 8D0B		BSR	AAD04
ACF9 F6609D		LDAB	Y609D
ACFC 11 		CBA
ACFD 2401		BCC	AAD00
ACFF 17 	AACFF	TBA
AD00 97C7	AAD00	STAA	Y00C7
AD02 2030		BRA	AAD34
		* ------------------- *
AD04 5F 	AAD04	CLRB
AD05 96C4		LDAA	Y00C4
AD07 04 		LSRD
AD08 04 		LSRD
AD09 04 		LSRD
AD0A 935D		SUBD	Y005D
AD0C 47 		ASRA
AD0D 56 		RORB
AD0E 47 		ASRA
AD0F 56 		RORB
AD10 47 		ASRA
AD11 56 		RORB
AD12 BDAB83		JSR	AAB83
AD15 17 		TBA
AD16 8B80		ADDA	#$80
AD18 BDE3AC		JSR	AE3AC
AD1B FE609B		LDX	Y609B
AD1E B7609B		STAA	Y609B
AD21 FC6099		LDD	Y6099
AD24 BDAB83		JSR	AAB83
AD27 17 		TBA
AD28 8B80		ADDA	#$80
AD2A BDE3AC		JSR	AE3AC
AD2D F6609B		LDAB	Y609B
AD30 3D 		MUL
AD31 8900		ADCA	#0
AD33 39 		RTS
		* ------------------- *
AD34 96CE	AAD34	LDAA	Y00CE
AD36 843F		ANDA	#$3F
AD38 12318011		BRSET	$31,#$80,AAD4D
AD3C D6C7		LDAB	Y00C7
AD3E 270F		BEQ	AAD4F
AD40 2A0F		BPL	AAD51
AD42 13311007		BRCLR	$31,#$10,AAD4D
AD46 D6CA		LDAB	Y00CA
AD48 5C 		INCB
AD49 2702		BEQ	AAD4D
AD4B D7CA		STAB	Y00CA
AD4D 8AC0	AAD4D	ORAA	#$C0
AD4F 8A80	AAD4F	ORAA	#$80
AD51 152601	AAD51	BCLR	$26,#1
AD54 16 		TAB
AD55 D8CE		EORB	Y00CE
AD57 C4C0		ANDB	#$C0
AD59 2703		BEQ	AAD5E
AD5B 142601		BSET	$26,#1
AD5E 97CE	AAD5E	STAA	Y00CE
AD60 D6C7		LDAB	Y00C7
AD62 270C		BEQ	AAD70
AD64 05 		ASLD
AD65 5D 		TSTB
AD66 2705		BEQ	AAD6D
AD68 C002		SUBB	#2
AD6A 2701		BEQ	AAD6D
AD6C 04 		LSRD
AD6D D7C7	AAD6D	STAB	Y00C7
AD6F 39 		RTS
		* ------------------- *
AD70 13320103	AAD70	BRCLR	$32,#1,AAD77
AD74 143202		BSET	$32,#2
AD77 39 	AAD77	RTS
		* ------------------- *
			ORG     $B800
B800 D645	AB800	LDAB	Y0045           ;#subr
B802 C507		BITB	#7
B804 2703		BEQ	AB809
B806 7EB87F		JMP	AB87F
		* ------------------- *
B809 9659	AB809	LDAA	Y0059           ;CLT_DATA
B80B CEE28E		LDX	#TE28E
B80E 13CF1021		BRCLR	$CF,#$10,AB833
B812 CEE273		LDX	#TE273
B815 8140		CMPA	#$40
B817 241E		BCC	AB837
B819 12220307	AB819	BRSET	$22,#3,AB824
B81D D622		LDAB	Y0022
B81F CB01		ADDB	#1
B821 D722		STAB	Y0022
B823 39 		RTS
		* ------------------- *
B824 0F 	AB824	SEI
B825 152203		BCLR	$22,#3
B828 D6CF		LDAB	Y00CF
B82A C810		EORB	#$10
B82C D7CF		STAB	Y00CF
B82E F76040		STAB	Y6040
B831 0E 		CLI
B832 39 		RTS
		* ------------------- *
B833 81DC	AB833	CMPA	#$DC
B835 24E2		BCC	AB819
B837 152203	AB837	BCLR	$22,#3
B83A B189EA		CMPA	D89EA
B83D 2224		BHI	AB863
B83F B189E9		CMPA	D89E9
B842 2524		BCS	AB868
B844 13D50207		BRCLR	$D5,#2,AB84F
B848 8602		LDAA	#2
B84A BDD614		JSR	AD614
B84D 2030		BRA	AB87F
		* ------------------- *
B84F BDE3AC	AB84F	JSR	AE3AC
B852 D654		LDAB	Y0054
B854 10 		SBA
B855 2403		BCC	AB85A
B857 5A 		DECB
B858 2005		BRA	AB85F
		* ------------------- *
B85A 8103	AB85A	CMPA	#3
B85C 2521		BCS	AB87F
B85E 5C 		INCB
B85F D754	AB85F	STAB	Y0054
B861 201C		BRA	AB87F
		* ------------------- *
B863 CC1F9E	AB863	LDD	#$1F9E
B866 2003		BRA	AB86B
		* ------------------- *
B868 CC1E9E	AB868	LDD	#$1E9E
B86B 12D50210	AB86B	BRSET	$D5,#2,AB87F
B86F BDD163		JSR	AD163           ;error  1F9E or  1E9E
B872 240B		BCC	AB87F
B874 14D502		BSET	$D5,#2
B877 B689EB		LDAA	D89EB
B87A 9754		STAA	Y0054
B87C 7F60B4		CLR	Y60B4
B87F 9654	AB87F	LDAA	Y0054
B881 CEE29D		LDX	#TE29D
B884 BDE3AC		JSR	AE3AC
B887 9755		STAA	Y0055
B889 39 		RTS
		* ------------------- *
B88A D645	AB88A	LDAB	Y0045           ;#subr
B88C C507		BITB	#7
B88E 2703		BEQ	AB893
B890 7EB909		JMP	AB909
		* ------------------- *
B893 9658	AB893	LDAA	Y0058		;MAT_DATA
B895 CEE28E		LDX	#TE28E
B898 13CF2024		BRCLR	$CF,#$20,AB8C0
B89C CEE273		LDX	#TE273
B89F 8140		CMPA	#$40
B8A1 2421		BCC	AB8C4
B8A3 1223030A	AB8A3	BRSET	$23,#3,AB8B1
B8A7 D623		LDAB	Y0023
B8A9 CB01		ADDB	#1
B8AB D723		STAB	Y0023
B8AD 9658		LDAA	Y0058           ;MAT_DATA
B8AF 2016		BRA	AB8C7
		* ------------------- *
B8B1 0F 	AB8B1	SEI
B8B2 152303		BCLR	$23,#3
B8B5 D6CF		LDAB	Y00CF
B8B7 C820		EORB	#$20
B8B9 D7CF		STAB	Y00CF
B8BB F76040		STAB	Y6040
B8BE 0E 		CLI
B8BF 39 		RTS
		* ------------------- *
B8C0 81DC	AB8C0	CMPA	#$DC
B8C2 24DF		BCC	AB8A3
B8C4 152303	AB8C4	BCLR	$23,#3
B8C7 B189ED	AB8C7	CMPA	D89ED
B8CA 2224		BHI	AB8F0
B8CC B189EC		CMPA	D89EC
B8CF 2524		BCS	AB8F5
B8D1 13D50107		BRCLR	$D5,#1,AB8DC
B8D5 8601		LDAA	#1
B8D7 BDD614		JSR	AD614
B8DA 202D		BRA	AB909
		* ------------------- *
B8DC BDE3AC	AB8DC	JSR	AE3AC
B8DF D652		LDAB	Y0052
B8E1 10 		SBA
B8E2 2403		BCC	AB8E7
B8E4 5A 		DECB
B8E5 2005		BRA	AB8EC
		* ------------------- *
B8E7 8103	AB8E7	CMPA	#3
B8E9 251E		BCS	AB909
B8EB 5C 		INCB
B8EC D752	AB8EC	STAB	Y0052
B8EE 2019		BRA	AB909
		* ------------------- *
B8F0 CC3A9E	AB8F0	LDD	#$3A9E
B8F3 2003		BRA	AB8F8
		* ------------------- *
B8F5 CC399E	AB8F5	LDD	#$399E
B8F8 12D5010D	AB8F8	BRSET	$D5,#1,AB909
B8FC BDD163		JSR	AD163           ;error 3A9E or 399E
B8FF 2408		BCC	AB909
B901 14D501		BSET	$D5,#1
B904 B689EE		LDAA	D89EE
B907 9752		STAA	Y0052
B909 9652	AB909	LDAA	Y0052
B90B CEE2DE		LDX	#TE2DE
B90E BDE3AC		JSR	AE3AC
B911 9757		STAA	Y0057
B913 39 		RTS
		* ------------------- *
B914 13241015	AB914	BRCLR	$24,#$10,AB92D
B918 0F 		SEI
B919 DC5D		LDD	Y005D
B91B 04 		LSRD
B91C 04 		LSRD
B91D 04 		LSRD
B91E 04 		LSRD
B91F 04 		LSRD
B920 FD609D		STD	Y609D
B923 DC5D		LDD	Y005D
B925 B3609D		SUBD	Y609D
B928 DD5D		STD	Y005D
B92A 0E 		CLI
B92B 2000		BRA	AB92D
		* ------------------- *
B92D 4F 	AB92D	CLRA
B92E D65F		LDAB	Y005F
B930 F1801E		CMPB	D801E
B933 2408		BCC	AB93D
B935 DE46		LDX	T_RPM
B937 9C6D		CPX	Y006D
B939 230D		BLS	AB948
B93B 2006		BRA	AB943
		* ------------------- *
B93D D650	AB93D	LDAB	Y0050           ;MAP_DATA
B93F D16B		CMPB	Y006B
B941 2305		BLS	AB948
B943 966A	AB943	LDAA	Y006A
B945 2703		BEQ	AB94A
B947 4A 		DECA
B948 976A	AB948	STAA	Y006A
B94A 12228019	AB94A	BRSET	$22,#$80,AB967
B94E DC5D		LDD	Y005D
B950 05 		ASLD
B951 05 		ASLD
B952 05 		ASLD
B953 58 		ASLB
B954 8900		ADCA	#0
B956 F6801E		LDAB	D801E
B959 12220402		BRSET	$22,#4,AB95F
B95D CB03		ADDB	#3
B95F 11 	AB95F	CBA
B960 2505		BCS	AB967
B962 142204		BSET	$22,#4
B965 2003		BRA	AB96A
		* ------------------- *
B967 152204	AB967	BCLR	$22,#4
B96A DC5D	AB96A	LDD	Y005D
B96C 05 		ASLD
B96D 05 		ASLD
B96E 05 		ASLD
B96F 2402		BCC	AB973
B971 86FF		LDAA	#$FF
B973 975F	AB973	STAA	Y005F
B975 39 		RTS
		* ------------------- *
B976 1320403F	AB976	BRCLR	$20,#$40,AB9B9
B97A 9690		LDAA	Y0090           ;MAP_DATA2
B97C 8180		CMPA	#$80
B97E 2539		BCS	AB9B9
B980 9646		LDAA	T_RPM
B982 CE8024		LDX	#T8024
B985 BDE3AC		JSR	AE3AC
B988 9B90		ADDA	Y0090           ;MAP_DATA2
B98A 2402		BCC	AB98E
B98C 86FF		LDAA	#$FF
B98E 910D	AB98E	CMPA	Y000D
B990 2306		BLS	AB998
B992 D60D		LDAB	Y000D
B994 5C 		INCB
B995 261A		BNE	AB9B1
B997 39 		RTS
		* ------------------- *
B998 D65C	AB998	LDAB	Y005C
B99A F18037		CMPB	D8037
B99D 2514		BCS	AB9B3
B99F D666		LDAB	Y0066
B9A1 F18038		CMPB	D8038
B9A4 250E		BCS	AB9B4
B9A6 910D		CMPA	Y000D
B9A8 240A		BCC	AB9B4
B9AA D60D		LDAB	Y000D
B9AC 5A 		DECB
B9AD C180		CMPB	#$80
B9AF 2502		BCS	AB9B3
B9B1 D70D	AB9B1	STAB	Y000D
B9B3 5F 	AB9B3	CLRB
B9B4 5C 	AB9B4	INCB
B9B5 2B02		BMI	AB9B9
B9B7 D766		STAB	Y0066
B9B9 39 	AB9B9	RTS
		* ------------------- *
B9BA 13611003	AB9BA	BRCLR	$61,#$10,AB9C1
B9BE 152A01		BCLR	$2A,#1
B9C1 1227011A	AB9C1	BRSET	$27,#1,AB9DF
B9C5 D625		LDAB	Y0025
B9C7 C410		ANDB	#$10
B9C9 F7609E		STAB	Y609E
B9CC D661		LDAB	Y0061
B9CE C410		ANDB	#$10
B9D0 F8609E		EORB	Y609E
B9D3 270D		BEQ	AB9E2
B9D5 D825		EORB	Y0025
B9D7 CA80		ORAB	#$80
B9D9 D725		STAB	Y0025
B9DB 152204		BCLR	$22,#4
B9DE 39 		RTS
		* ------------------- *
B9DF 152590	AB9DF	BCLR	$25,#$90
B9E2 39 	AB9E2	RTS
		* ------------------- *
B9E3 13278020	AB9E3	BRCLR	$27,#$80,ABA07
B9E7 D625		LDAB	Y0025
B9E9 C401		ANDB	#1
B9EB F7609E		STAB	Y609E
B9EE D661		LDAB	Y0061
B9F0 C401		ANDB	#1
B9F2 F8609E		EORB	Y609E
B9F5 2716		BEQ	ABA0D
B9F7 D825		EORB	Y0025
B9F9 12072006		BRSET	7,#$20,ABA03
B9FD 13204002		BRCLR	$20,#$40,ABA03
BA01 CA02		ORAB	#2
BA03 D725	ABA03	STAB	Y0025
BA05 2006		BRA	ABA0D
		* ------------------- *
BA07 152502	ABA07	BCLR	$25,#2
BA0A 142501		BSET	$25,#1
BA0D 39 	ABA0D	RTS
		* ------------------- *
BA0E 7F609D	ABA0E	CLR	Y609D
BA11 7F609C		CLR	Y609C
BA14 1230040D		BRSET	$30,#4,ABA25
BA18 965A		LDAA	Y005A           ;TPS_DATA
BA1A B18A04		CMPA	D8A04
BA1D 2406		BCC	ABA25
BA1F 9630		LDAA	Y0030
BA21 8B01		ADDA	#1
BA23 9730		STAA	Y0030
BA25 96D5	ABA25	LDAA	Y00D5
BA27 8588		BITA	#$88
BA29 264F		BNE	ABA7A
BA2B 1230081A		BRSET	$30,#8,ABA49
BA2F 9646		LDAA	T_RPM
BA31 B18A02		CMPA	D8A02
BA34 251F		BCS	ABA55
BA36 960D		LDAA	Y000D
BA38 B18A07		CMPA	D8A07
BA3B 2405		BCC	ABA42
BA3D B68A06		LDAA	D8A06
BA40 2003		BRA	ABA45
		* ------------------- *
BA42 B68A05	ABA42	LDAA	D8A05
BA45 914F	ABA45	CMPA	Y004F
BA47 240C		BCC	ABA55
BA49 965A	ABA49	LDAA	Y005A           ;TPS_DATA
BA4B B18A04		CMPA	D8A04
BA4E 2505		BCS	ABA55
BA50 73609D		COM	Y609D
BA53 2032		BRA	ABA87
		* ------------------- *
BA55 122E0815	ABA55	BRSET	$2E,#8,ABA6E
BA59 965F		LDAA	Y005F
BA5B B18A01		CMPA	D8A01
BA5E 251A		BCS	ABA7A
BA60 9646		LDAA	T_RPM
BA62 B18A02		CMPA	D8A02
BA65 2513		BCS	ABA7A
BA67 964F		LDAA	Y004F
BA69 B18A03		CMPA	D8A03
BA6C 240C		BCC	ABA7A
BA6E 965A	ABA6E	LDAA	Y005A           ;TPS_DATA
BA70 B18A00		CMPA	D8A00
BA73 2405		BCC	ABA7A
BA75 73609C		COM	Y609C
BA78 2017		BRA	ABA91
		* ------------------- *
BA7A 0F 	ABA7A	SEI
BA7B 965A		LDAA	Y005A           ;TPS_DATA
BA7D B189FD		CMPA	D89FD
BA80 250F		BCS	ABA91
BA82 B189FE		CMPA	D89FE
BA85 2548		BCS	ABACF
BA87 0E 	ABA87	CLI
BA88 13450161		BRCLR	$45,#1,ABAED
BA8C CC1BA0		LDD	#$1BA0
BA8F 2008		BRA	ABA99
		* ------------------- *
BA91 0E 	ABA91	CLI
BA92 13450157		BRCLR	$45,#1,ABAED
BA96 CC1AA0		LDD	#$1AA0
BA99 12D5401C	ABA99	BRSET	$D5,#$40,ABAB9
BA9D BDD163		JSR	AD163           ;error 1BA0 or  1AA0
BAA0 9651		LDAA	Y0051
BAA2 2449		BCC	ABAED
BAA4 14D540		BSET	$D5,#$40
BAA7 7D609D		TST	Y609D
BAAA 2705		BEQ	ABAB1
BAAC 143008		BSET	$30,#8
BAAF 2008		BRA	ABAB9
		* ------------------- *
BAB1 7D609C	ABAB1	TST	Y609C
BAB4 2703		BEQ	ABAB9
BAB6 142E08		BSET	$2E,#8
BAB9 8640	ABAB9	LDAA	#$40
BABB 9706		STAA	Y0006
BABD 1320400A		BRCLR	$20,#$40,ABACB
BAC1 D650		LDAB	Y0050           ;MAP_DATA
BAC3 F189FF		CMPB	D89FF
BAC6 2503		BCS	ABACB
BAC8 BB801F		ADDA	D801F
BACB 9751	ABACB	STAA	Y0051
BACD 201E		BRA	ABAED
		* ------------------- *
BACF 13D54018	ABACF	BRCLR	$D5,#$40,ABAEB
BAD3 0E 		CLI
BAD4 9645		LDAA	Y0045           ;#subr
BAD6 8507		BITA	#7
BAD8 26DF		BNE	ABAB9
BADA 8607		LDAA	#7
BADC BDD614		JSR	AD614
BADF 12D540D6		BRSET	$D5,#$40,ABAB9
BAE3 152E08		BCLR	$2E,#8
BAE6 153008		BCLR	$30,#8
BAE9 20CE		BRA	ABAB9
		* ------------------- *
BAEB 9751	ABAEB	STAA	Y0051
BAED 0E 	ABAED	CLI
BAEE 12228025		BRSET	$22,#$80,ABB17
BAF2 D66A		LDAB	Y006A
BAF4 2621		BNE	ABB17
BAF6 1320401D		BRCLR	$20,#$40,ABB17
BAFA D644		LDAB	Y0044
BAFC 2719		BEQ	ABB17
BAFE 9106		CMPA	Y0006
BB00 2415		BCC	ABB17
BB02 B660A7		LDAA	Y60A7
BB05 4A 		DECA
BB06 2612		BNE	ABB1A
BB08 D606		LDAB	Y0006
BB0A C101		CMPB	#1
BB0C 2403		BCC	ABB11
BB0E F6801B		LDAB	D801B
BB11 5A 	ABB11	DECB
BB12 D706		STAB	Y0006
BB14 152210		BCLR	$22,#$10
BB17 B68018	ABB17	LDAA	D8018
BB1A B760A7	ABB1A	STAA	Y60A7
BB1D B68019		LDAA	D8019
BB20 D622		LDAB	Y0022
BB22 2A03		BPL	ABB27
BB24 B6801A		LDAA	D801A
BB27 9B06	ABB27	ADDA	Y0006
BB29 9151		CMPA	Y0051
BB2B 2419		BCC	ABB46
BB2D 5D 		TSTB
BB2E 2B0F		BMI	ABB3F
BB30 C510		BITB	#$10
BB32 260B		BNE	ABB3F
BB34 9606		LDAA	Y0006
BB36 4C 		INCA
BB37 9151		CMPA	Y0051
BB39 2404		BCC	ABB3F
BB3B 9706		STAA	Y0006
BB3D CA10		ORAB	#$10
BB3F CA80	ABB3F	ORAB	#$80
BB41 152A01		BCLR	$2A,#1
BB44 201A		BRA	ABB60
		* ------------------- *
BB46 5D 	ABB46	TSTB
BB47 2A15		BPL	ABB5E
BB49 12250402		BRSET	$25,#4,ABB4F
BB4D CA20		ORAB	#$20
BB4F CE876F	ABB4F	LDX	#T876F
BB52 965F		LDAA	Y005F
BB54 B1801E		CMPA	D801E
BB57 2401		BCC	ABB5A
BB59 08 		INX
BB5A A600	ABB5A	LDAA	,X
BB5C 976A		STAA	Y006A
BB5E C47F	ABB5E	ANDB	#$7F
BB60 C508	ABB60	BITB	#8
BB62 2621		BNE	ABB85
BB64 1361201D		BRCLR	$61,#$20,ABB85
BB68 9646		LDAA	T_RPM
BB6A B1801C		CMPA	D801C
BB6D 2516		BCS	ABB85
BB6F 9650		LDAA	Y0050           ;MAP_DATA
BB71 B1801D		CMPA	D801D
BB74 240F		BCC	ABB85
BB76 9606		LDAA	Y0006
BB78 4C 		INCA
BB79 B1801B		CMPA	D801B
BB7C 2503		BCS	ABB81
BB7E B6801B		LDAA	D801B
BB81 9706	ABB81	STAA	Y0006
BB83 CA08		ORAB	#8
BB85 9606	ABB85	LDAA	Y0006
BB87 8B30		ADDA	#$30
BB89 9151		CMPA	Y0051
BB8B 2402		BCC	ABB8F
BB8D C4F7		ANDB	#$F7
BB8F D722	ABB8F	STAB	Y0022
BB91 9651		LDAA	Y0051
BB93 9006		SUBA	Y0006
BB95 2401		BCC	ABB98
BB97 4F 		CLRA
BB98 975C	ABB98	STAA	Y005C
BB9A 39 		RTS
		* ------------------- *
BB9B 0F 	ABB9B	SEI
BB9C BDE401		JSR	AE401	    ;math_rpm
BB9F 0E 		CLI
BBA0 FD6099		STD	Y6099       ;tmp
BBA3 F360A3		ADDD	Y60A3
BBA6 46 		RORA
BBA7 56 		RORB
BBA8 FD609B		STD	Y609B
BBAB FC6099		LDD	Y6099       ;
BBAE FD60A3		STD	Y60A3
BBB1 DD46		STD	T_RPM
BBB3 4F 		CLRA
BBB4 D65F		LDAB	Y005F
BBB6 FD609D		STD	Y609D
BBB9 F6609B		LDAB	Y609B
BBBC 54 		LSRB
BBBD 1B 		ABA
BBBE 54 		LSRB
BBBF 4F 		CLRA
BBC0 FE609D		LDX	Y609D
BBC3 03 		FDIV
BBC4 8F 		XGDX
BBC5 2402		BCC	ABBC9
BBC7 86FF		LDAA	#$FF
BBC9 44 	ABBC9	LSRA
BBCA 44 		LSRA
BBCB B7609D		STAA	Y609D
BBCE 9663		LDAA	Y0063
BBD0 16 		TAB
BBD1 54 		LSRB
BBD2 54 		LSRB
BBD3 10 		SBA
BBD4 BB609D		ADDA	Y609D
BBD7 2402		BCC	ABBDB
BBD9 86FF		LDAA	#$FF
BBDB 9763	ABBDB	STAA	Y0063
BBDD 39 		RTS
		* ------------------- *
BBDE C61C	ABBDE	LDAB	#$1C
BBE0 C002	ABBE0	SUBB	#2
BBE2 230B		BLS	ABBEF
BBE4 CE8037		LDX	#D8037
BBE7 3A 		ABX
BBE8 EE00		LDX	,X
BBEA 9C46		CPX	T_RPM
BBEC 24F2		BCC	ABBE0
BBEE 54 		LSRB
BBEF D749	ABBEF	STAB	Y0049
BBF1 39 		RTS
		* ------------------- *
BBF2 7F6099	ABBF2	CLR	Y6099
BBF5 F68499		LDAB	D8499
BBF8 968E		LDAA	Y008E
BBFA 3D 		MUL
BBFB 05 		ASLD
BBFC 796099		ROL	Y6099
BBFF 05 		ASLD
BC00 796099		ROL	Y6099
BC03 B7609A		STAA	Y609A
BC06 4F 		CLRA
BC07 F68498		LDAB	D8498
BC0A 05 		ASLD
BC0B F36099		ADDD	Y6099
BC0E FD6099		STD	Y6099
BC11 9649		LDAA	Y0049
BC13 F6849A		LDAB	D849A
BC16 3D 		MUL
BC17 04 		LSRD
BC18 04 		LSRD
BC19 F36099		ADDD	Y6099
BC1C 04 		LSRD
BC1D 04 		LSRD
BC1E 8A00		ORAA	#0
BC20 2702		BEQ	ABC24
BC22 C6FF		LDAB	#$FF
BC24 D760	ABC24	STAB	Y0060
BC26 39 		RTS
		* ------------------- *
BC27 F6801F	ABC27	LDAB	D801F
BC2A DB06		ADDB	Y0006
BC2C 2505		BCS	ABC33
BC2E F18020		CMPB	D8020
BC31 2503		BCS	ABC36
BC33 F68020	ABC33	LDAB	D8020
BC36 13224002	ABC36	BRCLR	$22,#$40,ABC3C
BC3A C003		SUBB	#3
BC3C D151	ABC3C	CMPB	Y0051
BC3E 2404		BCC	ABC44
BC40 142240		BSET	$22,#$40
BC43 39 		RTS
		* ------------------- *
BC44 152240	ABC44	BCLR	$22,#$40
BC47 39 		RTS
		* ------------------- *
BC48 B660A8	ABC48	LDAA	Y60A8
BC4B F660AA		LDAB	Y60AA
BC4E 3D 		MUL
BC4F FD609A		STD	Y609A
BC52 F660A8		LDAB	Y60A8
BC55 F060AA		SUBB	Y60AA
BC58 2341		BLS	ABC9B
BC5A 4F 		CLRA
BC5B 8F 		XGDX
BC5C FC609A		LDD	Y609A
BC5F 58 		ASLB
BC60 8900		ADCA	#0
BC62 16 		TAB
BC63 3A 		ABX
BC64 FC609A		LDD	Y609A
BC67 02 		IDIV
BC68 8F 		XGDX
BC69 4D 		TSTA
BC6A 262F		BNE	ABC9B
BC6C F76099		STAB	Y6099
BC6F B66099		LDAA	Y6099
BC72 CEE301		LDX	#TE301
BC75 BDE3AC		JSR	AE3AC
BC78 16 		TAB
BC79 9067		SUBA	Y0067
BC7B 240E		BCC	ABC8B
BC7D 81F0		CMPA	#$F0
BC7F 2216		BHI	ABC97
BC81 D667		LDAB	Y0067
BC83 C010		SUBB	#$10
BC85 2410		BCC	ABC97
BC87 C600		LDAB	#0
BC89 200C		BRA	ABC97
		* ------------------- *
BC8B 8110	ABC8B	CMPA	#$10
BC8D 2308		BLS	ABC97
BC8F D667		LDAB	Y0067
BC91 CB10		ADDB	#$10
BC93 2402		BCC	ABC97
BC95 C6FF		LDAB	#$FF
BC97 D767	ABC97	STAB	Y0067
BC99 2014		BRA	ABCAF
		* ------------------- *
BC9B 12D50210	ABC9B	BRSET	$D5,#2,ABCAF
BC9F 9654		LDAA	Y0054
BCA1 81C1		CMPA	#$C1
BCA3 240A		BCC	ABCAF
BCA5 CC4708		LDD	#$4708
BCA8 BDD163		JSR	AD163           ;error  4708
BCAB 86C1		LDAA	#$C1
BCAD 9767		STAA	Y0067
BCAF 39 	ABCAF	RTS
		* ------------------- *
BCB0 9667	ABCB0	LDAA	Y0067
BCB2 F68011		LDAB	D8011
BCB5 C102		CMPB	#2
BCB7 2709		BEQ	ABCC2
BCB9 C101		CMPB	#1
BCBB 270A		BEQ	ABCC7
BCBD CEE318		LDX	#TE318
BCC0 2008		BRA	ABCCA
		* ------------------- *
BCC2 CEE32B	ABCC2	LDX	#TE32B
BCC5 2003		BRA	ABCCA
		* ------------------- *
BCC7 CEE33E	ABCC7	LDX	#TE33E
BCCA BDE3AC	ABCCA	JSR	AE3AC
BCCD 9764		STAA	Y0064
BCCF 39 		RTS
		* ------------------- *
BCD0 B61032	ABCD0	LDAA	Y1032           ;ADC1 BATT_DATA
BCD3 D665		LDAB	Y0065
BCD5 CBF8		ADDB	#$F8
BCD7 2508		BCS	ABCE1
BCD9 53 		COMB
BCDA 1B 		ABA
BCDB 2405		BCC	ABCE2
BCDD 86FF		LDAA	#$FF           ;Max
BCDF 2001		BRA	ABCE2
		* ------------------- *
BCE1 10 	ABCE1	SBA
BCE2 39 	ABCE2	RTS
		* ------------------- *
BCE3 1226403D	ABCE3	BRSET	$26,#$40,ABD24
BCE7 B6103B		LDAA	PPROG
BCEA 8502		BITA	#2            ;mode prg
BCEC 2636		BNE	ABD24         ;yes
BCEE B6B7E1		LDAA	EEPROM+$1E1
BCF1 43 		COMA
BCF2 B1B7E0		CMPA	EEPROM+$1E0
BCF5 2702		BEQ	ABCF9
BCF7 8608		LDAA	#8
BCF9 9765	ABCF9	STAA	Y0065
BCFB B6B615		LDAA	EEPROM+$15
BCFE 43 		COMA
BCFF B1B614		CMPA	EEPROM+$14
BD02 2703		BEQ	ABD07
BD04 4F 		CLRA
BD05 200C		BRA	ABD13
		* ------------------- *
BD07 810C	ABD07	CMPA	#$0C
BD09 2F02		BLE	ABD0D
BD0B 860C		LDAA	#$0C
BD0D 81F4	ABD0D	CMPA	#$F4
BD0F 2C02		BGE	ABD13
BD11 86F4		LDAA	#$F4
BD13 974B	ABD13	STAA	Y004B
BD15 B6B7EF		LDAA	EEPROM+$1EF
BD18 8155		CMPA	#$55
BD1A 2605		BNE	ABD21
BD1C 142602		BSET	$26,#2
BD1F 2003		BRA	ABD24
		* ------------------- *
BD21 152602	ABD21	BCLR	$26,#2
BD24 39 	ABD24	RTS
		* ------------------- *
BD25 7F609D	ABD25	CLR	Y609D
BD28 CE8083		LDX	#T8083		;Tbl_Fuel2
BD2B 9628		LDAA	Y0028
BD2D 8550		BITA	#$50
BD2F 2611		BNE	ABD42
		;--------------------
BD31 96CC		LDAA	Y00CC
BD33 2706		BEQ	ABD3B
BD35 12CE0209		BRSET	$CE,#2,ABD42
BD39 2004		BRA	ABD3F
		* ------------------- *
BD3B 13CE0203	ABD3B	BRCLR	$CE,#2,ABD42
BD3F CE811F	ABD3F	LDX	#T811F          ;Tbl_Fuel2
BD42 9648	ABD42	LDAA	Y0048		;rpm_???
BD44 D690		LDAB	Y0090           ;MAP_DATA2
BD46 BDE486		JSR	AE486
BD49 2A02		BPL	ABD4D
BD4B 867F		LDAA	#$7F
BD4D B7609E	ABD4D	STAA	Y609E           ;set DataXY1

BD50 13201018		BRCLR	$20,#$10,ABD6C
		;Add
BD54 CE81BC		LDX	#T81BC          ;null
BD57 9648		LDAA	Y0048           ;rpm_???
BD59 D690		LDAB	Y0090           ;MAP_DATA2
BD5B BDE486		JSR	AE486
BD5E 2A02		BPL	ABD62
BD60 867F		LDAA	#$7F
BD62 BB609E	ABD62	ADDA	Y609E
BD65 2A02		BPL	ABD69
BD67 867F		LDAA	#$7F
BD69 B7609E	ABD69	STAA	Y609E
		;------------------------------
BD6C CE8258	ABD6C	LDX	#T8258
BD6F D649		LDAB	Y0049
BD71 3A 		ABX
BD72 A600		LDAA	,X
BD74 9190		CMPA	Y0090           ;MAP_DATA2
BD76 2445		BCC	ABDBD
BD78 142340		BSET	$23,#$40
BD7B CE8266		LDX	#T8266
BD7E 9655		LDAA	Y0055
BD80 BDE3E4		JSR	AE3E4
BD83 C020		SUBB	#$20
BD85 F7609D		STAB	Y609D
BD88 9657		LDAA	Y0057
BD8A CE826F		LDX	#T826F
BD8D BDE3E4		JSR	AE3E4
BD90 C020		SUBB	#$20
BD92 FB609D		ADDB	Y609D
BD95 2809		BVC	ABDA0
BD97 C680		LDAB	#$80
BD99 7D609D		TST	Y609D
BD9C 2B02		BMI	ABDA0
BD9E C67F		LDAB	#$7F
BDA0 F7609D	ABDA0	STAB	Y609D
BDA3 960D		LDAA	Y000D
BDA5 B18278		CMPA	D8278
BDA8 2416		BCC	ABDC0
BDAA F08279		SUBB	D8279
BDAD 2809		BVC	ABDB8
BDAF C680		LDAB	#$80
BDB1 7D609D		TST	Y609D
BDB4 2B02		BMI	ABDB8
BDB6 C67F		LDAB	#$7F
BDB8 F7609D	ABDB8	STAB	Y609D
BDBB 2003		BRA	ABDC0
		* ------------------- *
BDBD 152340	ABDBD	BCLR	$23,#$40
BDC0 BDBF11	ABDC0	JSR	ABF11         ;609e=609d+609e
BDC3 B6827A		LDAA	D827A
BDC6 2713		BEQ	ABDDB
BDC8 1222800F		BRSET	$22,#$80,ABDDB
BDCC D65F		LDAB	Y005F
BDCE 13231006		BRCLR	$23,#$10,ABDD8
BDD2 8B03		ADDA	#3
BDD4 2402		BCC	ABDD8
BDD6 86FF		LDAA	#$FF
BDD8 11 	ABDD8	CBA
BDD9 2405		BCC	ABDE0
BDDB 152310	ABDDB	BCLR	$23,#$10
BDDE 2003		BRA	ABDE3
		* ------------------- *
BDE0 142310	ABDE0	BSET	$23,#$10
BDE3 B6827A	ABDE3	LDAA	D827A
BDE6 2734		BEQ	ABE1C
BDE8 CE827C		LDX	#T827C
BDEB 9655		LDAA	Y0055
BDED BDE3E4		JSR	AE3E4
BDF0 1323100C		BRCLR	$23,#$10,ABE00
BDF4 FB827B		ADDB	D827B
BDF7 2A02		BPL	ABDFB
BDF9 C67F		LDAB	#$7F
BDFB F7609E	ABDFB	STAB	Y609E
BDFE 201C		BRA	ABE1C
		* ------------------- *
BE00 F7609D	ABE00	STAB	Y609D
BE03 9650		LDAA	Y0050           ;MAP_DATA
BE05 CE8285		LDX	#T8285
BE08 BDE3E4		JSR	AE3E4
BE0B B6609D		LDAA	Y609D
BE0E 3D 		MUL
BE0F 8900		ADCA	#0
BE11 B7609D		STAA	Y609D
BE14 BDBF11		JSR	ABF11		;609e=609d+609e
BE17 B76099		STAA	Y6099
BE1A 2063		BRA	ABE7F
		* ------------------- *
BE1C B6609E	ABE1C	LDAA	Y609E
BE1F B76099		STAA	Y6099
BE22 13204059		BRCLR	$20,#$40,ABE7F
BE26 12228055		BRSET	$22,#$80,ABE7F
BE2A 12220451		BRSET	$22,#4,ABE7F
BE2E D66A		LDAB	Y006A
BE30 2655		BNE	ABE87
BE32 D635		LDAB	Y0035           ;Hig TimeTic
BE34 2651		BNE	ABE87
BE36 D646		LDAB	T_RPM
BE38 F18663		CMPB	D8663
BE3B 254A		BCS	ABE87
BE3D D6D5		LDAB	Y00D5
BE3F C588		BITB	#$88
BE41 2644		BNE	ABE87
BE43 D654		LDAB	Y0054
BE45 F1865F		CMPB	D865F
BE48 253D		BCS	ABE87
BE4A DE44		LDX	Y0044
BE4C BC8661		CPX	D8661
BE4F 2536		BCS	ABE87
BE51 CE8671		LDX	#T8671
BE54 DC46		LDD	T_RPM
BE56 936D		SUBD	Y006D
BE58 2405		BCC	ABE5F
BE5A CE8666		LDX	#T8666
BE5D 43 		COMA
BE5E 53 		COMB
BE5F 04 	ABE5F	LSRD
BE60 04 		LSRD
BE61 04 		LSRD
BE62 04 		LSRD
BE63 2403		BCC	ABE68
BE65 C30001		ADDD	#$0001
BE68 4D 	ABE68	TSTA
BE69 2702		BEQ	ABE6D
BE6B C6FF		LDAB	#$FF
BE6D 17 	ABE6D	TBA
BE6E BDE3AC		JSR	AE3AC
BE71 B760AC		STAA	Y60AC
BE74 B7609D		STAA	Y609D
BE77 BDBF11		JSR	ABF11           ;609e=609d+609e
BE7A B76099		STAA	Y6099
BE7D 200E		BRA	ABE8D
		* ------------------- *
BE7F 7F60AC	ABE7F	CLR	Y60AC
BE82 7F60AB		CLR	Y60AB
BE85 201D		BRA	ABEA4
		* ------------------- *
BE87 7F60AC	ABE87	CLR	Y60AC
BE8A 7F60AB		CLR	Y60AB
BE8D B68665	ABE8D	LDAA	D8665
BE90 1228080B		BRSET	$28,#8,ABE9F
BE94 122A0104		BRSET	$2A,#1,ABE9C
BE98 13D50208		BRCLR	$D5,#2,ABEA4
BE9C B68664	ABE9C	LDAA	D8664
BE9F B76099	ABE9F	STAA	Y6099
BEA2 2046		BRA	ABEEA
		* ------------------- *
BEA4 CC0000	ABEA4	LDD	#$0000
BEA7 132C0807		BRCLR	$2C,#8,ABEB2
BEAB 0F 		SEI
BEAC 152C08		BCLR	$2C,#8
BEAF 0E 		CLI
BEB0 2040		BRA	ABEF2
		* ------------------- *
BEB2 B66099	ABEB2	LDAA	Y6099
BEB5 5A 		DECB
BEB6 D14C		CMPB	Y004C
BEB8 2735		BEQ	ABEEF
BEBA 13200131		BRCLR	$20,#1,ABEEF
BEBE 1222802D		BRSET	$22,#$80,ABEEF
BEC2 914C		CMPA	Y004C
BEC4 2329		BLS	ABEEF
BEC6 9688		LDAA	Y0088
BEC8 9046		SUBA	T_RPM
BECA 2505		BCS	ABED1
BECC B18082		CMPA	D8082
BECF 2419		BCC	ABEEA
BED1 964C	ABED1	LDAA	Y004C
BED3 D643		LDAB	Y0043
BED5 F18081		CMPB	D8081
BED8 16 		TAB
BED9 2517		BCS	ABEF2
BEDB 964C		LDAA	Y004C
BEDD BB8080		ADDA	D8080
BEE0 2A02		BPL	ABEE4
BEE2 867F		LDAA	#$7F
BEE4 16 	ABEE4	TAB
BEE5 B16099		CMPA	Y6099     ;new fuel
BEE8 2505		BCS	ABEEF
BEEA B66099	ABEEA	LDAA	Y6099
BEED C6FF		LDAB	#$FF
BEEF 7F0043	ABEEF	CLR	Y0043
BEF2 B76099	ABEF2	STAA	Y6099
BEF5 D74C		STAB	Y004C
BEF7 9B4B		ADDA	Y004B
BEF9 2806		BVC	ABF01
BEFB 2A06		BPL	ABF03
BEFD 867F		LDAA	#$7F
BEFF 2003		BRA	ABF04
		* ------------------- *
BF01 2A01	ABF01	BPL	ABF04
BF03 4F 	ABF03	CLRA
BF04 F66081	ABF04	LDAB	Y6081
BF07 C502		BITB	#2
BF09 2703		BEQ	ABF0E
BF0B B66082		LDAA	Y6082
BF0E 974A	ABF0E	STAA	Y004A        ;Fuel_Data
BF10 39 		RTS
		* ------------------- *
BF11 7D609D	ABF11	TST	Y609D
BF14 2A0B		BPL	ABF21
BF16 B6609D		LDAA	Y609D
BF19 BB609E		ADDA	Y609E
BF1C 2A0D		BPL	ABF2B
BF1E 4F 		CLRA
BF1F 200A		BRA	ABF2B
		* ------------------- *
BF21 B6609D	ABF21	LDAA	Y609D
BF24 BB609E		ADDA	Y609E
BF27 2A02		BPL	ABF2B
BF29 867F		LDAA	#$7F
BF2B B7609E	ABF2B	STAA	Y609E
BF2E 39 		RTS
		* ------------------- *
BF2F 9635	ABF2F	LDAA	Y0035
BF31 2637		BNE	ABF6A
BF33 FC807C		LDD	D807C        ;80 ms
BF36 1AB382B1		CPD	D82B1	     ;80 ms
BF3A 2403		BCC	ABF3F
BF3C FC82B1		LDD	D82B1        ;80 ms
BF3F 1A9336	ABF3F	CPD	TimeTic
BF42 2526		BCS	ABF6A
BF44 CE6000		LDX	#$6000
BF47 12204125		BRSET	$20,#$41,ABF70
BF4B 1223800E		BRSET	$23,#$80,ABF5D
BF4F 1F00201D		BRCLR	,X,#$20,ABF70
BF53 142380		BSET	$23,#$80
BF56 B6807E		LDAA	D807E
BF59 977F		STAA	Y007F
BF5B 2016		BRA	ABF73
		* ------------------- *
BF5D 1E002012	ABF5D	BRSET	,X,#$20,ABF73
BF61 967F		LDAA	Y007F
BF63 270E		BEQ	ABF73
BF65 4A 		DECA
BF66 977F		STAA	Y007F
BF68 2009		BRA	ABF73
		* ------------------- *
BF6A 152041	ABF6A	BCLR	$20,#$41
BF6D 152380		BCLR	$23,#$80
BF70 7F007F	ABF70	CLR	Y007F
BF73 39 	ABF73	RTS
		* ------------------- *
BF74 12204015	ABF74	BRSET	$20,#$40,ABF8D
BF78 9655		LDAA	Y0055
BF7A CE8449		LDX	#T8449
BF7D BDE3E4		JSR	AE3E4
BF80 37 		PSHB
BF81 960D		LDAA	Y000D
BF83 CE8452		LDX	#T8452
BF86 BDE3E4		JSR	AE3E4
BF89 32 		PULA
BF8A 3D 		MUL
BF8B DD71		STD	Y0071
BF8D 39 	ABF8D	RTS
		* ------------------- *
BF8E 9644	ABF8E	LDAA	Y0044
BF90 B1864A		CMPA	D864A
BF93 255B		BCS	ABFF0
BF95 965F		LDAA	Y005F
BF97 B1864B		CMPA	D864B
BF9A 2554		BCS	ABFF0
BF9C 9654		LDAA	Y0054
BF9E B1864C		CMPA	D864C
BFA1 254D		BCS	ABFF0
BFA3 960D		LDAA	Y000D
BFA5 B18651		CMPA	D8651
BFA8 2546		BCS	ABFF0
BFAA B68647		LDAA	D8647
BFAD D66D		LDAB	Y006D
BFAF 3D 		MUL
BFB0 D36D		ADDD	Y006D
BFB2 2403		BCC	ABFB7
BFB4 CCFFFF		LDD	#$FFFF
BFB7 1A9346	ABFB7	CPD	T_RPM
BFBA 2434		BCC	ABFF0
BFBC 132C4007		BRCLR	$2C,#$40,ABFC7
BFC0 BDC049		JSR	AC049
BFC3 122C4029		BRSET	$2C,#$40,ABFF0
BFC7 B68652	ABFC7	LDAA	D8652
BFCA 2606		BNE	ABFD2
BFCC 13228027		BRCLR	$22,#$80,ABFF7
BFD0 201E		BRA	ABFF0
		* ------------------- *
BFD2 8101	ABFD2	CMPA	#1
BFD4 260A		BNE	ABFE0
BFD6 DC73		LDD	Y0073
BFD8 1AB38653		CPD	D8653
BFDC 2519		BCS	ABFF7
BFDE 2010		BRA	ABFF0
		* ------------------- *
BFE0 8102	ABFE0	CMPA	#2
BFE2 260C		BNE	ABFF0
BFE4 DC73		LDD	Y0073
BFE6 1AB38653		CPD	D8653
BFEA 2404		BCC	ABFF0
BFEC 13228007		BRCLR	$22,#$80,ABFF7
BFF0 B68648	ABFF0	LDAA	D8648
BFF3 977C		STAA	Y007C
BFF5 2007		BRA	ABFFE
		* ------------------- *
BFF7 967C	ABFF7	LDAA	Y007C
BFF9 2603		BNE	ABFFE
BFFB 142CC0		BSET	$2C,#$C0
BFFE FC8655	ABFFE	LDD	D8655
C001 132C0208		BRCLR	$2C,#2,AC00D
C005 B38657		SUBD	D8657
C008 2403		BCC	AC00D
C00A CC0000		LDD	#$0000
C00D 1A9346	AC00D	CPD	T_RPM
C010 2417		BCC	AC029
C012 B68659		LDAA	D8659
C015 132C0207		BRCLR	$2C,#2,AC020
C019 B0865A		SUBA	D865A
C01C 2402		BCC	AC020
C01E 8600		LDAA	#0
C020 915F	AC020	CMPA	Y005F
C022 2405		BCC	AC029
C024 142C02		BSET	$2C,#2
C027 2003		BRA	AC02C
		* ------------------- *
C029 152C02	AC029	BCLR	$2C,#2
C02C FC865B	AC02C	LDD	D865B
C02F 132C0108		BRCLR	$2C,#1,AC03B
C033 B3865D		SUBD	D865D
C036 2403		BCC	AC03B
C038 CC0000		LDD	#$0000
C03B 1A9346	AC03B	CPD	T_RPM
C03E 2405		BCC	AC045
C040 142C01		BSET	$2C,#1
C043 2003		BRA	AC048
		* ------------------- *
C045 152C01	AC045	BCLR	$2C,#1
C048 39 	AC048	RTS
		* ------------------- *
C049 7D00B7	AC049	TST	Y00B7
C04C 2638		BNE	AC086
C04E 9646		LDAA	T_RPM
C050 9187		CMPA	Y0087
C052 2532		BCS	AC086
C054 DC73		LDD	Y0073
C056 1AB3864D		CPD	D864D
C05A 2402		BCC	AC05E
C05C 2025		BRA	AC083
		* ------------------- *
C05E DE73	AC05E	LDX	Y0073
C060 B68649		LDAA	D8649
C063 2606		BNE	AC06B
C065 1222801A		BRSET	$22,#$80,AC083
C069 201B		BRA	AC086
		* ------------------- *
C06B 8101	AC06B	CMPA	#1
C06D 2607		BNE	AC076
C06F BC864F		CPX	D864F
C072 240F		BCC	AC083
C074 2010		BRA	AC086
		* ------------------- *
C076 8102	AC076	CMPA	#2
C078 2609		BNE	AC083
C07A 13228008		BRCLR	$22,#$80,AC086
C07E BC864F		CPX	D864F
C081 2503		BCS	AC086
C083 152C40	AC083	BCLR	$2C,#$40
C086 39 	AC086	RTS
		* ------------------- *
C087 CE84B4	AC087	LDX	#T84B4
C08A DC46		LDD	T_RPM
C08C 58 		ASLB
C08D 8900		ADCA	#0
C08F BDE3AC		JSR	AE3AC
C092 B76099		STAA	Y6099
C095 D650		LDAB	Y0050		;MAP_DATA
C097 CE84D3		LDX	#T84D3
C09A BDE486		JSR	AE486
C09D 97B2		STAA	Y00B2
C09F B66099		LDAA	Y6099           ;RPM_DATA
C0A2 D650		LDAB	Y0050           ;MAP_DATA
C0A4 CE856F		LDX	#T856F
C0A7 BDE486		JSR	AE486
C0AA 97B3		STAA	Y00B3
C0AC 39 		RTS
		* ------------------- *
C0AD 9654	AC0AD	LDAA	Y0054
C0AF B18637		CMPA	D8637
C0B2 2409		BCC	AC0BD
C0B4 CC0000		LDD	#$0000
C0B7 9782		STAA	Y0082
C0B9 DD7D		STD	Y007D
C0BB 205C		BRA	AC119
		* ------------------- *
C0BD D688	AC0BD	LDAB	Y0088
C0BF F18638		CMPB	D8638
C0C2 2504		BCS	AC0C8
C0C4 1222401F		BRSET	$22,#$40,AC0E7
C0C8 9688	AC0C8	LDAA	Y0088
C0CA D660		LDAB	Y0060
C0CC B1863C		CMPA	D863C
C0CF 2305		BLS	AC0D6
C0D1 F1863D		CMPB	D863D
C0D4 2205		BHI	AC0DB
C0D6 7F0082	AC0D6	CLR	Y0082
C0D9 2005		BRA	AC0E0
		* ------------------- *
C0DB B6863E	AC0DB	LDAA	D863E
C0DE 9782		STAA	Y0082
C0E0 CC0000	AC0E0	LDD	#$0000
C0E3 DD7D		STD	Y007D
C0E5 2032		BRA	AC119
		* ------------------- *
C0E7 9688	AC0E7	LDAA	Y0088
C0E9 B18639		CMPA	D8639
C0EC 2218		BHI	AC106
C0EE D682		LDAB	Y0082
C0F0 B18641		CMPA	D8641
C0F3 2505		BCS	AC0FA
C0F5 F1863A		CMPB	D863A
C0F8 270A		BEQ	AC104
C0FA B6863B	AC0FA	LDAA	D863B
C0FD 9782		STAA	Y0082
C0FF CC0000		LDD	#$0000
C102 DD7D		STD	Y007D
C104 2013	AC104	BRA	AC119
		* ------------------- *
C106 DE7D	AC106	LDX	Y007D
C108 BC863F		CPX	D863F
C10B 2407		BCC	AC114
C10D B6863B		LDAA	D863B
C110 9782		STAA	Y0082
C112 2005		BRA	AC119
		* ------------------- *
C114 B6863A	AC114	LDAA	D863A
C117 9782		STAA	Y0082
C119 39 	AC119	RTS
		* ------------------- *
C11A 0F 	AC11A	SEI
C11B 968C		LDAA	Y008C
C11D 979D		STAA	Y009D
C11F 9650		LDAA	Y0050           ;MAP_DATA
C121 979E		STAA	Y009E
C123 DC36		LDD	TimeTic
C125 05 		ASLD
C126 05 		ASLD
C127 DD9F		STD	Y009F
C129 9683		LDAA	Y0083
C12B 97A2		STAA	Y00A2
C12D 9629		LDAA	Y0029
C12F 98A1		EORA	Y00A1
C131 8480		ANDA	#$80
C133 2705		BEQ	AC13A
C135 142901		BSET	$29,#1
C138 2003		BRA	AC13D
		* ------------------- *
C13A 152901	AC13A	BCLR	$29,#1
C13D 9629	AC13D	LDAA	Y0029
C13F 97A1		STAA	Y00A1
C141 0E 		CLI
C142 D60B		LDAB	Y000B
C144 F18634		CMPB	D8634
C147 2505		BCS	AC14E
C149 F18633		CMPB	D8633
C14C 2306		BLS	AC154
C14E 8680	AC14E	LDAA	#$80
C150 970B		STAA	Y000B
C152 970A		STAA	Y000A
C154 13A14055	AC154	BRCLR	$A1,#$40,AC1AD
C158 969D		LDAA	Y009D
C15A 909E		SUBA	Y009E
C15C 2401		BCC	AC15F
C15E 40 		NEGA
C15F B18623	AC15F	CMPA	D8623
C162 2449		BCC	AC1AD
C164 9654		LDAA	Y0054
C166 B18622		CMPA	D8622
C169 2542		BCS	AC1AD
C16B 969F		LDAA	Y009F
C16D B18626		CMPA	D8626
C170 2425		BCC	AC197
C172 B18625		CMPA	D8625
C175 2436		BCC	AC1AD
C177 B18624		CMPA	D8624
C17A 2531		BCS	AC1AD
C17C 969E		LDAA	Y009E
C17E B18628		CMPA	D8628
C181 250F		BCS	AC192
C183 CE8629		LDX	#T8629
C186 122C2025		BRSET	$2C,#$20,AC1AF
C18A 142C20		BSET	$2C,#$20
C18D 152C10		BCLR	$2C,#$10
C190 2012		BRA	AC1A4
		* ------------------- *
C192 B18627	AC192	CMPA	D8627
C195 2416		BCC	AC1AD
C197 CE862E	AC197	LDX	#T862E
C19A 122C1011		BRSET	$2C,#$10,AC1AF
C19E 142C10		BSET	$2C,#$10
C1A1 152C20		BCLR	$2C,#$20
C1A4 4F 	AC1A4	CLRA
C1A5 5F 		CLRB
C1A6 DD9B		STD	Y009B
C1A8 A600		LDAA	,X
C1AA 9799		STAA	Y0099
C1AC 39 	AC1AC	RTS
		* ------------------- *
C1AD 205C	AC1AD	BRA	AC20B
		* ------------------- *
C1AF 13A101F9	AC1AF	BRCLR	$A1,#1,AC1AC
C1B3 4F 		CLRA
C1B4 B76099		STAA	Y6099
C1B7 D6A2		LDAB	Y00A2
C1B9 D39B		ADDD	Y009B
C1BB DD9B		STD	Y009B
C1BD 7A0099		DEC	Y0099
C1C0 26EA		BNE	AC1AC
C1C2 A301		SUBD	1,X
C1C4 2507		BCS	AC1CD
C1C6 A303		SUBD	3,X
C1C8 2541		BCS	AC20B
C1CA 7C6099		INC	Y6099
C1CD 122C201C	AC1CD	BRSET	$2C,#$20,AC1ED
C1D1 969A		LDAA	Y009A
C1D3 2736		BEQ	AC20B
C1D5 4A 		DECA
C1D6 979A		STAA	Y009A
C1D8 960A		LDAA	Y000A
C1DA F66099		LDAB	Y6099
C1DD 2705		BEQ	AC1E4
C1DF BB8635		ADDA	D8635
C1E2 2003		BRA	AC1E7
		* ------------------- *
C1E4 B08635	AC1E4	SUBA	D8635
C1E7 2522	AC1E7	BCS	AC20B
C1E9 970A		STAA	Y000A
C1EB 201E		BRA	AC20B
		* ------------------- *
C1ED 960B	AC1ED	LDAA	Y000B
C1EF F66099		LDAB	Y6099
C1F2 2702		BEQ	AC1F6
C1F4 4C 		INCA
C1F5 4C 		INCA
C1F6 4A 	AC1F6	DECA
C1F7 F68633		LDAB	D8633
C1FA 11 		CBA
C1FB 2407		BCC	AC204
C1FD F68634		LDAB	D8634
C200 11 		CBA
C201 2501		BCS	AC204
C203 16 		TAB
C204 D70B	AC204	STAB	Y000B
C206 B68636		LDAA	D8636
C209 979A		STAA	Y009A
C20B 152C30	AC20B	BCLR	$2C,#$30
C20E 39 		RTS
		* ------------------- *
C20F 9650	AC20F	LDAA	Y0050           ;MAP_DATA
C211 F68614		LDAB	D8614
C214 3D 		MUL
C215 C6FF		LDAB	#$FF
C217 D00D		SUBB	Y000D
C219 3D 		MUL
C21A 04 		LSRD
C21B 04 		LSRD
C21C 04 		LSRD
C21D 04 		LSRD
C21E DDAF		STD	Y00AF
C220 39 		RTS
		* ------------------- *
C221 DE77	AC221	LDX	Y0077
C223 2703		BEQ	AC228
C225 09 		DEX
C226 DF77		STX	Y0077
C228 9679	AC228	LDAA	Y0079
C22A 2703		BEQ	AC22F
C22C 4A 		DECA
C22D 9779		STAA	Y0079
C22F 967A	AC22F	LDAA	Y007A
C231 2703		BEQ	AC236
C233 4A 		DECA
C234 977A		STAA	Y007A
C236 1320401C	AC236	BRCLR	$20,#$40,AC256
C23A 122C040E		BRSET	$2C,#4,AC24C
C23E 96BF		LDAA	Y00BF
C240 2705		BEQ	AC247
C242 4A 		DECA
C243 97BF		STAA	Y00BF
C245 260F		BNE	AC256
C247 0F 	AC247	SEI
C248 142C04		BSET	$2C,#4
C24B 0E 		CLI
C24C 9656	AC24C	LDAA	Y0056
C24E CE84A8		LDX	#T84A8
C251 BDE3E4		JSR	AE3E4
C254 D7BF		STAB	Y00BF
C256 967B	AC256	LDAA	Y007B
C258 4C 		INCA
C259 2702		BEQ	AC25D
C25B 977B		STAA	Y007B
C25D 967C	AC25D	LDAA	Y007C
C25F 2703		BEQ	AC264
C261 4A 		DECA
C262 977C		STAA	Y007C
C264 DE7D	AC264	LDX	Y007D
C266 08 		INX
C267 2702		BEQ	AC26B
C269 DF7D		STX	Y007D
C26B 39 	AC26B	RTS
		* ------------------- *
C26C 9657	AC26C	LDAA	Y0057
C26E CE8421		LDX	#T8421
C271 BDE3E4		JSR	AE3E4
C274 D781		STAB	Y0081
C276 9655		LDAA	Y0055
C278 12204024		BRSET	$20,#$40,AC2A0
C27C 9656		LDAA	Y0056
C27E CE84A8		LDX	#T84A8
C281 BDE3E4		JSR	AE3E4
C284 D7BF		STAB	Y00BF
C286 9655		LDAA	Y0055
C288 CE83FD		LDX	#T83FD
C28B BDE3E4		JSR	AE3E4
C28E D7BD		STAB	Y00BD
C290 CE847B		LDX	#T847B
C293 BDE3E4		JSR	AE3E4
C296 17 		TBA
C297 5F 		CLRB
C298 04 		LSRD
C299 04 		LSRD
C29A 04 		LSRD
C29B 04 		LSRD
C29C DD77		STD	Y0077
C29E 9655		LDAA	Y0055
C2A0 CE8406	AC2A0	LDX	#T8406
C2A3 BDE3E4		JSR	AE3E4
C2A6 D7BE		STAB	Y00BE
C2A8 CE83EB		LDX	#T83EB
C2AB BDE3E4		JSR	AE3E4
C2AE D7A3		STAB	Y00A3
C2B0 CE8484		LDX	#T8484
C2B3 BDE3E4		JSR	AE3E4
C2B6 D7A6		STAB	Y00A6
C2B8 CE83F4		LDX	#T83F4
C2BB BDE3E4		JSR	AE3E4
C2BE D7A9		STAB	Y00A9
C2C0 CE8469		LDX	#T8469
C2C3 BDE3E4		JSR	AE3E4
C2C6 D792		STAB	Y0092
C2C8 CE8460		LDX	#T8460
C2CB BDE3E4		JSR	AE3E4
C2CE D793		STAB	Y0093
C2D0 CE8472		LDX	#T8472
C2D3 BDE3E4		JSR	AE3E4
C2D6 D794		STAB	Y0094
C2D8 CE848D		LDX	#T848D
C2DB BDE3E4		JSR	AE3E4
C2DE D7AC		STAB	Y00AC

C2E0 965B		LDAA	Y005B           ;BATT_V
C2E2 CE842A		LDX	#T842A
C2E5 BDE3AC		JSR	AE3AC
C2E8 D7B1		STAB	Y00B1           ;new_BATT_V1

C2EA 965B		LDAA	Y005B           ;BATT_V
C2EC CEE351		LDX	#TE351
C2EF BDE3AC		JSR	AE3AC
C2F2 F760A5		STAB	Y60A5		;new_BATT_V2
C2F5 39 		RTS
		* ------------------- *
C2F6 9635	AC2F6	LDAA	Y0035
C2F8 2608		BNE	AC302
C2FA FC82AF		LDD	D82AF
C2FD 1A9336		CPD	TimeTic
C300 2405		BCC	AC307
C302 142902	AC302	BSET	$29,#2
C305 200A		BRA	AC311
		* ------------------- *
C307 DC46	AC307	LDD	T_RPM
C309 1A936D		CPD	Y006D
C30C 2503		BCS	AC311
C30E 152902		BCLR	$29,#2
C311 1329020F	AC311	BRCLR	$29,#2,AC324
C315 5F 		CLRB
C316 9650		LDAA	Y0050           ;MAP_DATA
C318 DD8C		STD	Y008C
C31A 9646		LDAA	T_RPM
C31C DD88		STD	Y0088
C31E 9651		LDAA	Y0051
C320 DD97		STD	Y0097
C322 202D		BRA	AC351
		* ------------------- *
C324 CE0093	AC324	LDX	#$0093
C327 968C		LDAA	Y008C
C329 9050		SUBA	Y0050           ;MAP_DATA
C32B 2403		BCC	AC330
C32D CE861B		LDX	#D861B
C330 18CE008C	AC330	LDY	#$008C
C334 9650		LDAA	Y0050           ;MAP_DATA
C336 BDE50A		JSR	AE50A
C339 CE849B		LDX	#T849B
C33C 18CE0088		LDY	#$0088
C340 9646		LDAA	T_RPM
C342 BDE50A		JSR	AE50A
C345 CE8620		LDX	#T8620
C348 18CE0097		LDY	#$0097
C34C 9651		LDAA	Y0051
C34E BDE50A		JSR	AE50A
C351 CE8496	AC351	LDX	#T8496
C354 18CE008E		LDY	#$008E
C358 9650		LDAA	Y0050           ;MAP_DATA
C35A BDE50A		JSR	AE50A
C35D 39 		RTS
		* ------------------- *
C35E CE8615	AC35E	LDX	#T8615
C361 968A		LDAA	Y008A
C363 9150		CMPA	Y0050           ;MAP_DATA
C365 2403		BCC	AC36A
C367 CE0091		LDX	#$0091
C36A 18CE008A	AC36A	LDY	#$008A
C36E 9650		LDAA	Y0050           ;MAP_DATA
C370 BDE50A		JSR	AE50A
C373 CE8619		LDX	#T8619
C376 9695		LDAA	Y0095
C378 9151		CMPA	Y0051
C37A 2403		BCC	AC37F
C37C CE0093		LDX	#$0093
C37F 18CE0095	AC37F	LDY	#$0095
C383 9651		LDAA	Y0051
C385 BDE50A		JSR	AE50A
C388 39 		RTS
		* ------------------- *
C389 12284008	AC389	BRSET	$28,#$40,AC395
C38D 13CE020C		BRCLR	$CE,#2,AC39D
C391 96CC		LDAA	Y00CC
C393 2608		BNE	AC39D
C395 B684A3	AC395	LDAA	D84A3
C398 CE834F		LDX	#T834F
C39B 2006		BRA	AC3A3
		* ------------------- *
C39D B684A4	AC39D	LDAA	D84A4
C3A0 CE82B3		LDX	#T82B3
C3A3 9785	AC3A3	STAA	Y0085
C3A5 9648		LDAA	Y0048          ;rpm_???
C3A7 D690		LDAB	Y0090          ;MAP_DATA2
C3A9 BDE486		JSR	AE486
C3AC 9786		STAA	Y0086          ;Set DataXY2
C3AE 39 		RTS
		* ------------------- *
C3AF 9650	AC3AF	LDAA	Y0050           ;MAP_DATA
C3B1 CE840F		LDX	#T840F
C3B4 BDE3E4		JSR	AE3E4
C3B7 96BE		LDAA	Y00BE
C3B9 44 		LSRA
C3BA 3D 		MUL
C3BB D6BE		LDAB	Y00BE
C3BD 54 		LSRB
C3BE 54 		LSRB
C3BF 1B 		ABA
C3C0 251C		BCS	AC3DE
C3C2 B76090		STAA	Y6090
C3C5 132C040D		BRCLR	$2C,#4,AC3D6
C3C9 96BD		LDAA	Y00BD
C3CB 2706		BEQ	AC3D3
C3CD F684A7		LDAB	D84A7
C3D0 3D 		MUL
C3D1 97BD		STAA	Y00BD
C3D3 152C04	AC3D3	BCLR	$2C,#4
C3D6 B66090	AC3D6	LDAA	Y6090
C3D9 D6BD		LDAB	Y00BD
C3DB 1B 		ABA
C3DC 2402		BCC	AC3E0
C3DE 86FF	AC3DE	LDAA	#$FF
C3E0 9784	AC3E0	STAA	Y0084
C3E2 39 		RTS
		* ------------------- *
C3E3 DC73	AC3E3	LDD	Y0073
C3E5 1AB384B2		CPD	D84B2
C3E9 2405		BCC	AC3F0
C3EB 142920		BSET	$29,#$20
C3EE 200C		BRA	AC3FC
		* ------------------- *
C3F0 152920	AC3F0	BCLR	$29,#$20
C3F3 122C8005		BRSET	$2C,#$80,AC3FC
C3F7 7D0082		TST	Y0082
C3FA 2705		BEQ	AC401
C3FC B684B1	AC3FC	LDAA	D84B1
C3FF 97B9		STAA	Y00B9
C401 96B4	AC401	LDAA	Y00B4
C403 B189F9		CMPA	D89F9
C406 2526		BCS	AC42E
C408 13298011		BRCLR	$29,#$80,AC41D
C40C 12D6013D		BRSET	Y00D6,#1,AC44D
C410 CC0381		LDD	#$0381
C413 BDD163		JSR	AD163		;error  0381
C416 2416		BCC	AC42E
C418 14D601		BSET	Y00D6,#1
C41B 2030		BRA	AC44D
		* ------------------- *
C41D 12D6022C	AC41D	BRSET	Y00D6,#2,AC44D
C421 CC0481		LDD	#$0481
C424 BDD163		JSR	AD163           ;error  0481
C427 2405		BCC	AC42E
C429 14D602		BSET	Y00D6,#2
C42C 201F		BRA	AC44D
		* ------------------- *
C42E 7D00B9	AC42E	TST	Y00B9
C431 261A		BNE	AC44D
C433 DC77		LDD	Y0077
C435 2616		BNE	AC44D
C437 1229400C		BRSET	$29,#$40,AC447
C43B 9653		LDAA	Y0053           ;O2_DATA
C43D B189F7		CMPA	D89F7
C440 2405		BCC	AC447
C442 B189F8		CMPA	D89F8
C445 2406		BCC	AC44D
C447 9653	AC447	LDAA	Y0053           ;O2_DATA
C449 813E		CMPA	#$3E
C44B 2513		BCS	AC460
C44D 152954	AC44D	BCLR	$29,#$54
C450 B6860F		LDAA	D860F
C453 97BA		STAA	Y00BA
C455 B68611		LDAA	D8611
C458 97BC		STAA	Y00BC
C45A 8680		LDAA	#$80
C45C 9783		STAA	Y0083
C45E 202C		BRA	AC48C
		* ------------------- *
C460 BDC48D	AC460	JSR	AC48D
C463 9629		LDAA	Y0029
C465 8504		BITA	#4
C467 2708		BEQ	AC471
C469 7F00B4		CLR	Y00B4
C46C BDC4B8		JSR	AC4B8
C46F 2003		BRA	AC474
		* ------------------- *
C471 BDC4F4	AC471	JSR	AC4F4
C474 12298008	AC474	BRSET	$29,#$80,AC480
C478 9B83		ADDA	Y0083
C47A 240B		BCC	AC487
C47C 86FF		LDAA	#$FF
C47E 2007		BRA	AC487
		* ------------------- *
C480 16 	AC480	TAB
C481 9683		LDAA	Y0083
C483 10 		SBA
C484 2401		BCC	AC487
C486 4F 		CLRA
C487 9783	AC487	STAA	Y0083
C489 142940		BSET	$29,#$40
C48C 39 	AC48C	RTS
		* ------------------- *
C48D D653	AC48D	LDAB	Y0053           ;O2_DATA
C48F 9629		LDAA	Y0029
C491 D1B3		CMPB	Y00B3
C493 250C		BCS	AC4A1
C495 D1B2		CMPB	Y00B2
C497 2404		BCC	AC49D
C499 13298004		BRCLR	$29,#$80,AC4A1
C49D C680	AC49D	LDAB	#$80
C49F 2001		BRA	AC4A2
		* ------------------- *
C4A1 5F 	AC4A1	CLRB
C4A2 37 	AC4A2	PSHB
C4A3 D829		EORB	Y0029
C4A5 58 		ASLB
C4A6 2407		BCC	AC4AF
C4A8 8A04		ORAA	#4
C4AA 7F00B4		CLR	Y00B4
C4AD 2002		BRA	AC4B1
		* ------------------- *
C4AF 84FB	AC4AF	ANDA	#$FB
C4B1 847F	AC4B1	ANDA	#$7F
C4B3 33 		PULB
C4B4 1B 		ABA
C4B5 9729		STAA	Y0029
C4B7 39 		RTS
		* ------------------- *
C4B8 1329100E	AC4B8	BRCLR	$29,#$10,AC4CA
C4BC 96B6		LDAA	Y00B6
C4BE F6860E		LDAB	D860E
C4C1 11 		CBA
C4C2 2504		BCS	AC4C8
C4C4 D7B5		STAB	Y00B5
C4C6 2002		BRA	AC4CA
		* ------------------- *
C4C8 97B5	AC4C8	STAA	Y00B5
C4CA 152910	AC4CA	BCLR	$29,#$10
C4CD 7F00B6		CLR	Y00B6
C4D0 B6860F		LDAA	D860F
C4D3 97BA		STAA	Y00BA
C4D5 B68611		LDAA	D8611
C4D8 97BC		STAA	Y00BC
C4DA D6B5		LDAB	Y00B5
C4DC 9646		LDAA	T_RPM
C4DE B1860D		CMPA	D860D
C4E1 2405		BCC	AC4E8
C4E3 FB860B		ADDB	D860B
C4E6 2003		BRA	AC4EB
		* ------------------- *
C4E8 FB860C	AC4E8	ADDB	D860C
C4EB 2402	AC4EB	BCC	AC4EF
C4ED C6FF		LDAB	#$FF
C4EF 17 	AC4EF	TBA
C4F0 7400B5		LSR	Y00B5
C4F3 39 		RTS
		* ------------------- *
C4F4 4F 	AC4F4	CLRA
C4F5 D6BC		LDAB	Y00BC
C4F7 2648		BNE	AC541
C4F9 D629		LDAB	Y0029
C4FB C510		BITB	#$10
C4FD 260F		BNE	AC50E
C4FF 7F00B6		CLR	Y00B6
C502 142910		BSET	$29,#$10
C505 F68610		LDAB	D8610
C508 D7BB		STAB	Y00BB
C50A 8601		LDAA	#1
C50C 203E		BRA	AC54C
		* ------------------- *
C50E D6B6	AC50E	LDAB	Y00B6
C510 F18613		CMPB	D8613
C513 251F		BCS	AC534
C515 122C800E		BRSET	$2C,#$80,AC527
C519 D65F		LDAB	Y005F
C51B 270A		BEQ	AC527
C51D D646		LDAB	T_RPM
C51F F189F6		CMPB	D89F6
C522 2503		BCS	AC527
C524 7C00B4		INC	Y00B4
C527 B68612	AC527	LDAA	D8612
C52A 5F 		CLRB
C52B 04 		LSRD
C52C 04 		LSRD
C52D 04 		LSRD
C52E 04 		LSRD
C52F DD77		STD	Y0077
C531 4F 		CLRA
C532 2018		BRA	AC54C
		* ------------------- *
C534 D6BB	AC534	LDAB	Y00BB
C536 2607		BNE	AC53F
C538 8601		LDAA	#1
C53A F68610		LDAB	D8610
C53D D7BB		STAB	Y00BB
C53F 200B	AC53F	BRA	AC54C
		* ------------------- *
C541 D6BA	AC541	LDAB	Y00BA
C543 2607		BNE	AC54C
C545 F6860F		LDAB	D860F
C548 D7BA		STAB	Y00BA
C54A 8601		LDAA	#1
C54C 39 	AC54C	RTS
		* ------------------- *
C54D 13228010	AC54D	BRCLR	$22,#$80,AC561
C551 D650		LDAB	Y0050           ;MAP_DATA
C553 D08A		SUBB	Y008A
C555 250A		BCS	AC561
C557 96A4		LDAA	Y00A4
C559 2609		BNE	AC564
C55B B68616		LDAA	D8616
C55E 11 		CBA
C55F 2503		BCS	AC564
C561 5F 	AC561	CLRB
C562 2002		BRA	AC566
		* ------------------- *
C564 96A3	AC564	LDAA	Y00A3
C566 3D 	AC566	MUL
C567 DDA4		STD	Y00A4
C569 9695		LDAA	Y0095
C56B F68618		LDAB	D8618
C56E DB06		ADDB	Y0006
C570 2402		BCC	AC574
C572 C6FF		LDAB	#$FF
C574 11 	AC574	CBA
C575 240B		BCC	AC582
C577 9651		LDAA	Y0051
C579 9095		SUBA	Y0095
C57B 2505		BCS	AC582
C57D B18617		CMPA	D8617
C580 2401		BCC	AC583
C582 4F 	AC582	CLRA
C583 D6A6	AC583	LDAB	Y00A6
C585 3D 		MUL
C586 DDA7		STD	Y00A7
C588 39 		RTS
		* ------------------- *
C589 4F 	AC589	CLRA
C58A D67A		LDAB	Y007A
C58C 2703		BEQ	AC591
C58E 7EC5C9		JMP	AC5C9
		* ------------------- *
C591 D646	AC591	LDAB	T_RPM
C593 F1861D		CMPB	D861D
C596 250D		BCS	AC5A5
C598 D68C		LDAB	Y008C
C59A D050		SUBB	Y0050           ;MAP_DATA
C59C 2507		BCS	AC5A5
C59E F1861B		CMPB	D861B
C5A1 2502		BCS	AC5A5
C5A3 96A9		LDAA	Y00A9
C5A5 3D 	AC5A5	MUL
C5A6 DDAA		STD	Y00AA
C5A8 D651		LDAB	Y0051
C5AA 9606		LDAA	Y0006
C5AC BB861F		ADDA	D861F
C5AF 2402		BCC	AC5B3
C5B1 86FF		LDAA	#$FF
C5B3 11 	AC5B3	CBA
C5B4 250A		BCS	AC5C0
C5B6 9697		LDAA	Y0097
C5B8 10 		SBA
C5B9 2505		BCS	AC5C0
C5BB B1861E		CMPA	D861E
C5BE 2404		BCC	AC5C4
C5C0 4F 	AC5C0	CLRA
C5C1 5F 		CLRB
C5C2 2003		BRA	AC5C7
		* ------------------- *
C5C4 D6AC	AC5C4	LDAB	Y00AC
C5C6 3D 		MUL
C5C7 DDAD	AC5C7	STD	Y00AD
C5C9 39 	AC5C9	RTS
		* ------------------- *
C5CA CE608F	AC5CA	LDX	#$608F
C5CD 8601		LDAA	#1
C5CF D681		LDAB	Y0081
C5D1 FD608F		STD	Y608F
C5D4 D682		LDAB	Y0082
C5D6 BDE440		JSR	AE440
C5D9 FD608F		STD	Y608F
C5DC 8601		LDAA	#1
C5DE D60B		LDAB	Y000B
C5E0 BDE440		JSR	AE440
C5E3 FD608F		STD	Y608F
C5E6 8601		LDAA	#1
C5E8 D683		LDAB	Y0083
C5EA BDE440		JSR	AE440
C5ED FD608F		STD	Y608F
C5F0 188F		XGDY
C5F2 9684		LDAA	Y0084
C5F4 BDE364		JSR	AE364
C5F7 188F		XGDY
C5F9 05 		ASLD
C5FA 05 		ASLD
C5FB F3608F		ADDD	Y608F
C5FE DD75		STD	Y0075
C600 39 		RTS
		* ------------------- *
C601 B61030	AC601	LDAA	Y1030           ;ADCTL
C604 2AFB		BPL	AC601		;wait convert

C606 F61034		LDAB	Y1034
C609 D75A		STAB	Y005A           ;TPS_DATA
C60B F189FD		CMPB	D89FD
C60E 250B		BCS	AC61B
C610 F189FE		CMPB	D89FE
C613 2406		BCC	AC61B
C615 12D54002		BRSET	$D5,#$40,AC61B
C619 D751		STAB	Y0051
C61B B61031	AC61B	LDAA	Y1031           ;map
C61E D646		LDAB	T_RPM
C620 C12F		CMPB	#$2F
C622 240E		BCC	AC632
C624 C10D		CMPB	#$0D
C626 250A		BCS	AC632
C628 B18A0A		CMPA	D8A0A           ;max_map 253
C62B 2409		BCC	AC636
C62D B18A09		CMPA	D8A09           ;min_map  2
C630 2504		BCS	AC636
C632 13D58803	AC632	BRCLR	$D5,#$88,AC639
C636 BDD63E	AC636	JSR	AD63E
C639 BDE432	AC639	JSR	AE432           ;Convert Map
C63C 16 		TAB
C63D FB60A9		ADDB	Y60A9
C640 56 		RORB
C641 D750		STAB	Y0050           ;MAP_DATA1
C643 12204003	AC643	BRSET	$20,#$40,AC64A
C647 7EC76C		JMP	AC76C
		* ------------------- *
C64A 1227080A	AC64A	BRSET	$27,#8,AC658
C64E B61023		LDAA	TFLG1           ;Test
C651 8508		BITA	#8              ;    OC5F
C653 2703		BEQ	AC658
C655 BDF37A		JSR	AF37A		;Soft Force TC5 Interrupt
C658 BDC54D	AC658	JSR	AC54D

C65B CE84A5		LDX	#T84A5		;Map Coef

C65E 9690		LDAA	Y0090           ;MAP_DATA2
C660 9150		CMPA	Y0050           ;MAP_DATA
C662 2403		BCC	AC667

C664 CE84A4		LDX	#D84A4          ;Map Coef

C667 18CE0090	AC667	LDY	#$0090          ;MAP_DATA2
C66B 9650		LDAA	Y0050           ;MAP_DATA
C66D BDE50A		JSR	AE50A
C670 BDC389		JSR	AC389
C673 1327400A		BRCLR	$27,#$40,AC681
C677 B61023		LDAA	TFLG1		;Test
C67A 8510		BITA	#$10            ;     OC4F
C67C 2703		BEQ	AC681
C67E BDF370		JSR	AF370           ;Clear  OC4F
C681 1327080A	AC681	BRCLR	$27,#8,AC68F
C685 B61023		LDAA	TFLG1		;Test
C688 8540		BITA	#$40            ;    OC2F
C68A 2703		BEQ	AC68F
C68C BDF36C		JSR	AF36C		;rts
C68F 4F 	AC68F	CLRA
C690 D650		LDAB	Y0050           ;MAP_DATA
C692 05 		ASLD
C693 05 		ASLD
C694 7D849D		TST	D849D
C697 2B05		BMI	AC69E
C699 F3849D		ADDD	D849D
C69C 2008		BRA	AC6A6
		* ------------------- *
C69E F3849D	AC69E	ADDD	D849D
C6A1 2E03		BGT	AC6A6
C6A3 CC0000		LDD	#$0000
C6A6 188F	AC6A6	XGDY
C6A8 9685		LDAA	Y0085
C6AA BDE364		JSR	AE364
C6AD 188F		XGDY
C6AF 05 		ASLD
C6B0 2403		BCC	AC6B5
C6B2 CCFFFF		LDD	#$FFFF
C6B5 FD608F	AC6B5	STD	Y608F
C6B8 1227080A		BRSET	$27,#8,AC6C6
C6BC B61023		LDAA	TFLG1           ;Test
C6BF 8508		BITA	#8              ;    OC5F
C6C1 2703		BEQ	AC6C6
C6C3 BDF37A		JSR	AF37A           ;Soft Force TC5 Interrupt
C6C6 8601	AC6C6	LDAA	#1
C6C8 D686		LDAB	Y0086           ;Get DataXY2
C6CA CE608F		LDX	#$608F
C6CD BDE440		JSR	AE440
C6D0 CE0075		LDX	#$0075
C6D3 BDE378		JSR	AE378
C6D6 FD608D		STD	Y608D           ;Time Delay
C6D9 1327080A		BRCLR	$27,#8,AC6E7
C6DD B61023		LDAA	TFLG1		;Test
C6E0 8540		BITA	#$40            ;    OC2F
C6E2 2703		BEQ	AC6E7
C6E4 BDF36C		JSR	AF36C           ;rts
C6E7 4F 	AC6E7	CLRA
C6E8 D6B1		LDAB	Y00B1		;new_BATT_V1
C6EA 05 		ASLD
C6EB 05 		ASLD                    ; * 4
C6EC DB0A		ADDB	Y000A
C6EE 8900		ADCA	#0
C6F0 7D849F		TST	D849F
C6F3 2B0A		BMI	AC6FF
C6F5 F3849F		ADDD	D849F
C6F8 2808		BVC	AC702
C6FA CC7FFF		LDD	#$7FFF
C6FD 2003		BRA	AC702
		* ------------------- *
C6FF F3849F	AC6FF	ADDD	D849F
C702 DDC0	AC702	STD	Y00C0
C704 CE8418		LDX	#T8418
C707 964F		LDAA	Y004F
C709 BDE3E4		JSR	AE3E4
C70C D7C2		STAB	Y00C2
C70E FC608D		LDD	Y608D
C711 D3AF		ADDD	Y00AF
C713 2508		BCS	AC71D
C715 D3A7		ADDD	Y00A7
C717 2504		BCS	AC71D
C719 D3A4		ADDD	Y00A4
C71B 2403		BCC	AC720
C71D CCFFFF	AC71D	LDD	#$FFFF
C720 93AD	AC720	SUBD	Y00AD
C722 2504		BCS	AC728
C724 93AA		SUBD	Y00AA
C726 2403		BCC	AC72B
C728 CC0000	AC728	LDD	#$0000
C72B FD608D	AC72B	STD	Y608D
C72E 18FE608D		LDY	Y608D
C732 96C2		LDAA	Y00C2
C734 BDE364		JSR	AE364
C737 188F		XGDY
C739 04 		LSRD
C73A 04 		LSRD
C73B FD608F		STD	Y608F
C73E FC608D		LDD	Y608D
C741 B3608F		SUBD	Y608F
C744 FD608D		STD	Y608D
C747 7D00C0		TST	Y00C0
C74A 2A17		BPL	AC763
C74C CC0000		LDD	#$0000
C74F 93C0		SUBD	Y00C0
C751 1AB3608D		CPD	Y608D
C755 2A07		BPL	AC75E
C757 FC608D		LDD	Y608D
C75A D3C0		ADDD	Y00C0
C75C 200C		BRA	AC76A
		* ------------------- *
C75E CC0000	AC75E	LDD	#$0000
C761 2007		BRA	AC76A
		* ------------------- *
C763 D3C0	AC763	ADDD	Y00C0
C765 2403		BCC	AC76A
C767 CCFFFF		LDD	#$FFFF
C76A DD73	AC76A	STD	Y0073
C76C 1227080A	AC76C	BRSET	$27,#8,AC77A
C770 B61023		LDAA	TFLG1           ;Test
C773 8508		BITA	#8              ;    OC5F
C775 2703		BEQ	AC77A
C777 BDF37A		JSR	AF37A           ;Soft Force TC5 Interrupt
C77A 1327400A	AC77A	BRCLR	$27,#$40,AC788
C77E B61023		LDAA	TFLG1		;Test
C781 8510		BITA	#$10            ;	OC4F
C783 2703		BEQ	AC788
C785 BDF370		JSR	AF370           ;Clear  OC4F
C788 1220404C	AC788	BRSET	$20,#$40,AC7D8
C78C CE84A5		LDX	#T84A5		;Map Coef

C78F 9690		LDAA	Y0090           ;MAP_DATA2
C791 9150		CMPA	Y0050           ;MAP_DATA
C793 2403		BCC	AC798
C795 CE84A4		LDX	#D84A4		;Map Coef

C798 18CE0090	AC798	LDY	#$0090          ;MAP_DATA2
C79C 9650		LDAA	Y0050		;MAP_DATA
C79E BDE50A		JSR	AE50A

C7A1 1322400A		BRCLR	$22,#$40,AC7AF
C7A5 13300406		BRCLR	$30,#4,AC7AF
C7A9 4F 		CLRA
C7AA 5F 		CLRB
C7AB DD6F		STD	Y006F
C7AD 203D		BRA	AC7EC
		* ------------------- *
C7AF 9654	AC7AF	LDAA	Y0054
C7B1 B1845D		CMPA	D845D
C7B4 251C		BCS	AC7D2
C7B6 9652		LDAA	Y0052
C7B8 B1845E		CMPA	D845E
C7BB 2515		BCS	AC7D2
C7BD 9680		LDAA	Y0080
C7BF 81FF		CMPA	#$FF
C7C1 270F		BEQ	AC7D2
C7C3 4C 		INCA
C7C4 9780		STAA	Y0080
C7C6 B1845F		CMPA	D845F
C7C9 2207		BHI	AC7D2
C7CB CC0000		LDD	#$0000
C7CE DD6F		STD	Y006F
C7D0 201A		BRA	AC7EC
		* ------------------- *
C7D2 DC71	AC7D2	LDD	Y0071
C7D4 DD6F		STD	Y006F
C7D6 2014		BRA	AC7EC
		* ------------------- *
C7D8 DC71	AC7D8	LDD	Y0071
C7DA 270D		BEQ	AC7E9
C7DC B3845B		SUBD	D845B
C7DF 2504		BCS	AC7E5
C7E1 DD71		STD	Y0071
C7E3 2004		BRA	AC7E9
		* ------------------- *
C7E5 4F 	AC7E5	CLRA
C7E6 5F 		CLRB
C7E7 DD71		STD	Y0071
C7E9 BDC80F	AC7E9	JSR	AC80F
C7EC BDC2F6	AC7EC	JSR	AC2F6
C7EF 1327400A		BRCLR	$27,#$40,AC7FD
C7F3 B61023		LDAA	TFLG1		;Test
C7F6 8510		BITA	#$10            ;	OC4F
C7F8 2703		BEQ	AC7FD
C7FA BDF370		JSR	AF370           ;Clear  OC4F
C7FD 1327080A	AC7FD	BRCLR	$27,#8,AC80B
C801 B61023		LDAA	TFLG1		;Test
C804 8540		BITA	#$40            ;	OC2F
C806 2703		BEQ	AC80B
C808 BDF36C		JSR	AF36C           ;rts
C80B BDC35E	AC80B	JSR	AC35E
C80E 39 		RTS
		* ------------------- *
C80F CE00E1	AC80F	LDX	#$00E1
C812 1F002006		BRCLR	,X,#$20,AC81C
C816 CC0000		LDD	#$0000
C819 7EC8AC		JMP	AC8AC
		* ------------------- *
C81C 122C8003	AC81C	BRSET	$2C,#$80,AC823
C820 7EC87A		JMP	AC87A
		* ------------------- *
C823 B68646	AC823	LDAA	D8646
C826 D66D		LDAB	Y006D
C828 3D 		MUL
C829 D36D		ADDD	Y006D
C82B 2403		BCC	AC830
C82D CCFFFF		LDD	#$FFFF
C830 9787	AC830	STAA	Y0087
C832 1A9346		CPD	T_RPM
C835 2502		BCS	AC839
C837 2036		BRA	AC86F
		* ------------------- *
C839 DE73	AC839	LDX	Y0073
C83B B68645		LDAA	D8645
C83E 2607		BNE	AC847
C840 BC8643		CPX	D8643
C843 222A		BHI	AC86F
C845 2033		BRA	AC87A
		* ------------------- *
C847 8101	AC847	CMPA	#1
C849 260B		BNE	AC856
C84B 1322802B		BRCLR	$22,#$80,AC87A
C84F BC8643		CPX	D8643
C852 221B		BHI	AC86F
C854 2024		BRA	AC87A
		* ------------------- *
C856 8102	AC856	CMPA	#2
C858 260B		BNE	AC865
C85A 12228011		BRSET	$22,#$80,AC86F
C85E BC8643		CPX	D8643
C861 220C		BHI	AC86F
C863 2015		BRA	AC87A
		* ------------------- *
C865 8103	AC865	CMPA	#3
C867 2606		BNE	AC86F
C869 12228002		BRSET	$22,#$80,AC86F
C86D 200B		BRA	AC87A
		* ------------------- *
C86F 152C80	AC86F	BCLR	$2C,#$80
C872 142C08		BSET	$2C,#8
C875 B68642		LDAA	D8642
C878 97B7		STAA	Y00B7
C87A 18FE84A1	AC87A	LDY	D84A1
C87E 132C8004		BRCLR	$2C,#$80,AC886
C882 4F 		CLRA
C883 5F 		CLRB
C884 2011		BRA	AC897
		* ------------------- *
C886 DC73	AC886	LDD	Y0073
C888 1A9371		CPD	Y0071
C88B 2402		BCC	AC88F
C88D DC71		LDD	Y0071
C88F 1AB384A1	AC88F	CPD	D84A1
C893 2402		BCC	AC897
C895 188F		XGDY
C897 CE6081	AC897	LDX	#$6081
C89A 1F00040E		BRCLR	,X,#4,AC8AC
C89E B66083		LDAA	Y6083
C8A1 5F 		CLRB
C8A2 1E000803		BRSET	,X,#8,AC8A9
C8A6 F66084		LDAB	Y6084
C8A9 04 	AC8A9	LSRD
C8AA 04 		LSRD
C8AB 04 		LSRD
C8AC DD6F	AC8AC	STD	Y006F
C8AE 39 		RTS
		* ------------------- *
		;Sie Cmd Serial
C8AF 00 	TC8AF	FCB	$00
C8B0 00 		FCB	$00
C8B1 00 		FCB	$00
C8B2 20 		FCB	$20
C8B3 20 		FCB	$20
C8B4 30 		FCB	$30
C8B5 20 		FCB	$20
C8B6 00 		FCB	$00
C8B7 20 		FCB	$20
C8B8 20 		FCB	$20
C8B9 20 		FCB	$20
C8BA 00 		FCB	$00
C8BB 30 		FCB	$30
C8BC 30 		FCB	$30
C8BD 30 		FCB	$30
C8BE 30 		FCB	$30
C8BF 30 		FCB	$30
C8C0 20 		FCB	$20
C8C1 20 		FCB	$20
C8C2 20 		FCB	$20
		;test Serial
C8C3 BDDB0F	AC8C3	JSR	ADB0F
C8C6 BDDC04		JSR	ADC04
C8C9 D6DB		LDAB	Y00DB	       ;mode_serial
C8CB C5C0		BITB	#$C0           ; == 0
C8CD 265F		BNE	AC92E          ;   no,skip
C8CF B6102B		LDAA	BAUD           ; Test
C8D2 8437		ANDA	#$37           ;   RX_TX
C8D4 8122		CMPA	#$22           ;       Baud
C8D6 2706		BEQ	AC8DE          ;Baud Okey
C8D8 8622		LDAA	#$22           ;Set Baud
C8DA B7102B		STAA	BAUD           ;        = 0x22
C8DD 39 		RTS
		* ------------------- *
C8DE B6102E	AC8DE	LDAA	SCSR
C8E1 850E		BITA	#$0E                  ;Error ?
C8E3 2704		BEQ	AC8E9                 ;no
C8E5 B6102F		LDAA	SCDR                  ;clear
C8E8 39 		RTS
		* ------------------- *
C8E9 8520	AC8E9	BITA	#$20           	      ;RDRF ?
C8EB 2613		BNE	AC900                 ;test RX_DATA
C8ED 12DB0F04		BRSET	Y00DB,#$0F,AC8F5     ;mode_serial
C8F1 5C 		INCB
C8F2 D7DB		STAB	Y00DB                 ;mode_serial
C8F4 39 		RTS
		* ------------------- *
C8F5 13DB3006	AC8F5	BRCLR	Y00DB,#$30,AC8FF     ;mode_serial
C8F9 15DB30		BCLR	Y00DB,#$30           ;mode_serial
C8FC 7F00D8		CLR	Y00D8                 ;clear cmd_serial
C8FF 39 	AC8FF	RTS
		* ------------------- *
C900 B6102F	AC900	LDAA	SCDR
C903 B7102F		STAA	SCDR            ;echo
C906 C4F0		ANDB	#$F0            ;clear time_out
C908 D7DB		STAB	Y00DB           ;mode_serial
C90A C530		BITB	#$30            ;Cmd ?
C90C 2621		BNE	AC92F           ;  no get data
C90E 97D8		STAA	Y00D8           ;set cmd_serial=SCDR ?
C910 8114		CMPA	#$14
C912 2703		BEQ	AC917
C914 152808		BCLR	$28,#8
C917 7F00D9	AC917	CLR	Y00D9        	;first_data serial
C91A 7F00DA		CLR	Y00DA        	;clear next_data serial
C91D 16 		TAB
C91E C010		SUBB	#$10
C920 C114		CMPB	#$14
C922 240A		BCC	AC92E         	;exit
C924 CEC8AF		LDX	#TC8AF
C927 3A 		ABX
C928 E600		LDAB	,X              ;get
C92A DADB		ORAB	Y00DB         	;  set
C92C D7DB		STAB	Y00DB         	;    size_serial
C92E 39 	AC92E	RTS
		* ------------------- *
		;get data
C92F C520	AC92F	BITB	#$20            ;first byte
C931 2703		BEQ	AC936           ;no
C933 7EC951		JMP	AC951           ;set   first byte
		* ------------------- *
C936 C510	AC936	BITB	#$10            ;next bit
C938 2603		BNE	AC93D
C93A 7EC96E		JMP	AC96E
		* ------------------- *
C93D 97DA	AC93D	STAA	Y00DA           ;set next_data serial
C93F C4CF		ANDB	#$CF            ;11001111
C941 D7DB		STAB	Y00DB		;mode_serial
C943 39 		RTS
		* ------------------- *
		;cmd_0x15
C944 7F00D8	AC944	CLR	Y00D8	       ;cmd_serial
C947 D6DA		LDAB	Y00DA          ;next_data serial
C949 96D9		LDAA	Y00D9          ;first_data serial
C94B 8F 		XGDX                   ;        to  IX
C94C A600		LDAA	,X
C94E 7ECBBC	AC94E	JMP	ACBBC          ;Out_RS
		* ------------------- *
C951 97D9	AC951	STAA	Y00D9          ;first_data serial
C953 C4DF		ANDB	#$DF           ;1101 1111
C955 D7DB		STAB	Y00DB          ;mode_serial
C957 D6D8		LDAB	Y00D8          ;cmd_serial
C959 1A831014		CPD	#$1014         ;cmd_0x14
C95D 2618		BNE	AC977
C95F 1222800B		BRSET	$22,#$80,AC96E
C963 12270115		BRSET	$27,#1,AC97C
C967 13251011		BRCLR	$25,#$10,AC97C
C96B 152580		BCLR	$25,#$80
C96E 7F00D8	AC96E	CLR	Y00D8		;cmd_serial
C971 7F00D9		CLR	Y00D9          	;first_data serial
C974 7F00DA		CLR	Y00DA           ;next_data serial
C977 152808	AC977	BCLR	$28,#8
C97A 2003		BRA	AC97F
		* ------------------- *
C97C 142808	AC97C	BSET	$28,#8
C97F 39 	AC97F	RTS
		* ------------------- *
C980 7F00D8	AC980	CLR	Y00D8		;cmd_serial
C983 12264015		BRSET	$26,#$40,AC99C
C987 12262011		BRSET	$26,#$20,AC99C
C98B 142640		BSET	$26,#$40        ;requst prg
C98E 96DA		LDAA	Y00DA           ;next_data serial
C990 B760B1		STAA	Y60B1           ;data_eepr
C993 D6D9		LDAB	Y00D9           ;first_data serial
C995 F760B0		STAB	Y60B0           ;offset_prg_eepr
C998 86E2		LDAA	#$E2
C99A 20B2		BRA	AC94E		;Out_RS
		* ------------------- *
C99C 4F 	AC99C	CLRA
C99D 20AF		BRA	AC94E           ;Out_RS
		* ------------------- *
		;Cmd_0x1D
C99F CE0000	AC99F	LDX	#$0000
C9A2 2023		BRA	AC9C7          ;save
		* ------------------- *
		;Cmd_0x1E
C9A4 CE6080	AC9A4	LDX	#$6080
C9A7 201E		BRA	AC9C7
		* ------------------- *
C9A9 CE60BA	AC9A9	LDX	#$60BA
C9AC 96D9		LDAA	Y00D9       	;first_data serial
C9AE 2614		BNE	AC9C4
C9B0 D6DA		LDAB	Y00DA       	;next_data serial
C9B2 3A 		ABX
C9B3 8C60D0		CPX	#$60D0
C9B6 250C		BCS	AC9C4
C9B8 86FF		LDAA	#$FF
C9BA B760BA		STAA	Y60BA
C9BD 7F00D8	AC9BD	CLR	Y00D8	       ;cmd_serial
C9C0 4F 		CLRA
C9C1 7ECBBC		JMP	ACBBC          ;Out_RS
		* ------------------- *
C9C4 CE60BA	AC9C4	LDX	#$60BA
C9C7 7F00D8	AC9C7	CLR	Y00D8	        ;cmd_serial
C9CA D6D9		LDAB	Y00D9          	;first_data serial
C9CC 96DA		LDAA	Y00DA          	;next_data serial
C9CE 3A 		ABX
C9CF A700		STAA	,X
C9D1 86E5		LDAA	#$E5
C9D3 7ECBBC		JMP	ACBBC          ;Out_RS 0xE5
		* ------------------- *
C9D6 CE60BA	AC9D6	LDX	#$60BA
C9D9 D6DA		LDAB	Y00DA           ;next_data serial
C9DB E101		CMPB	1,X
C9DD 2705		BEQ	AC9E4
C9DF 53 		COMB
C9E0 E101		CMPB	1,X
C9E2 262B		BNE	ACA0F
C9E4 D6D9	AC9E4	LDAB	Y00D9           ;first_data serial
C9E6 E100		CMPB	,X
C9E8 2629		BNE	ACA13
C9EA 3A 		ABX
C9EB A601		LDAA	1,X
C9ED 8139		CMPA	#$39
C9EF 26CC		BNE	AC9BD
C9F1 CE60BA		LDX	#$60BA
C9F4 4F 		CLRA
C9F5 08 	AC9F5	INX
C9F6 AB01		ADDA	1,X
C9F8 5A 		DECB
C9F9 26FA		BNE	AC9F5
C9FB 91DA		CMPA	Y00DA           ;next_data serial
C9FD 2709		BEQ	ACA08
C9FF D6DA		LDAB	Y00DA           ;next_data serial
CA01 53 		COMB
CA02 11 		CBA
CA03 260A		BNE	ACA0F
CA05 7E60BC		JMP	X60BC
		* ------------------- *
CA08 7300DA	ACA08	COM	Y00DA           ;next_data serial
CA0B 86E4		LDAA	#$E4
CA0D 2030		BRA	ACA3F
		* ------------------- *
CA0F 8601	ACA0F	LDAA	#1
CA11 2006		BRA	ACA19
		* ------------------- *
CA13 8602	ACA13	LDAA	#2
CA15 2002		BRA	ACA19
		* ------------------- *
CA17 8603	ACA17	LDAA	#3
CA19 7F00D8	ACA19	CLR	Y00D8		;cmd_serial
CA1C 2021		BRA	ACA3F
		* ------------------- *
CA1E 96D9	ACA1E	LDAA	Y00D9           ;first_data serial
CA20 2605		BNE	ACA27
CA22 152A01		BCLR	$2A,#1
CA25 2096		BRA	AC9BD
		* ------------------- *
CA27 96DA	ACA27	LDAA	Y00DA           ;next_data serial
CA29 2617		BNE	ACA42
CA2B 122280E4		BRSET	$22,#$80,ACA13
CA2F 12270104		BRSET	$27,#1,ACA37
CA33 122510E0		BRSET	$25,#$10,ACA17
CA37 43 	ACA37	COMA
CA38 97DA		STAA	Y00DA           ;next_data serial
CA3A 8601		LDAA	#1
CA3C 142A01		BSET	$2A,#1
CA3F 7ECBBC	ACA3F	JMP	ACBBC          	;Out_RS
		* ------------------- *
CA42 12228008	ACA42	BRSET	$22,#$80,ACA4E
CA46 12270107		BRSET	$27,#1,ACA51
CA4A 13251003		BRCLR	$25,#$10,ACA51
CA4E 7F00D8	ACA4E	CLR	Y00D8		;cmd_serial
CA51 39 	ACA51	RTS
		* ------------------- *
CA52 96DA	ACA52	LDAA	Y00DA           ;next_data serial
CA54 2725		BEQ	ACA7B
CA56 96D9		LDAA	Y00D9           ;first_data serial
CA58 8101		CMPA	#1
CA5A 270A		BEQ	ACA66
CA5C 8102		CMPA	#2
CA5E 270A		BEQ	ACA6A
CA60 8103		CMPA	#3
CA62 270A		BEQ	ACA6E
CA64 20E8		BRA	ACA4E
		* ------------------- *
CA66 DC46	ACA66	LDD	T_RPM
CA68 2006		BRA	ACA70
		* ------------------- *
CA6A DC6F	ACA6A	LDD	Y006F
CA6C 2002		BRA	ACA70
		* ------------------- *
CA6E DC6D	ACA6E	LDD	Y006D
CA70 F76099	ACA70	STAB	Y6099
CA73 BDCBBC		JSR	ACBBC          ;Out_RS
CA76 B66099		LDAA	Y6099
CA79 20C4		BRA	ACA3F
		* ------------------- *
CA7B 43 	ACA7B	COMA
CA7C 97DA		STAA	Y00DA           ;next_data serial
CA7E 39 		RTS
		* ------------------- *
CA7F 7F00D8	ACA7F	CLR	Y00D8           ;cmd_serial
CA82 D635		LDAB	Y0035
CA84 C150		CMPB	#$50
CA86 2302		BLS	ACA8A
CA88 2004		BRA	ACA8E
		* ------------------- *
CA8A 4F 	ACA8A	CLRA
CA8B 7ECBBC		JMP	ACBBC          ;Out_RS
		* ------------------- *
CA8E 96D9	ACA8E	LDAA	Y00D9           ;first_data serial
CA90 8101		CMPA	#1
CA92 2711		BEQ	ACAA5
CA94 8102		CMPA	#2
CA96 271E		BEQ	ACAB6
CA98 8103		CMPA	#3
CA9A 2722		BEQ	ACABE
CA9C 8104		CMPA	#4
CA9E 272A		BEQ	ACACA
CAA0 8601		LDAA	#1
CAA2 7ECBBC		JMP	ACBBC          ;Out_RS
		* ------------------- *
CAA5 13264005	ACAA5	BRCLR	$26,#$40,ACAAE
CAA9 8602		LDAA	#2
CAAB 7ECBBC		JMP	ACBBC          ;Out_RS
		* ------------------- *
CAAE BDCAD1	ACAAE	JSR	ACAD1          ;clear all errors
CAB1 86F0	ACAB1	LDAA	#$F0
CAB3 7ECBBC		JMP	ACBBC          ;Out_RS
		* ------------------- *
CAB6 8680	ACAB6	LDAA	#$80
CAB8 970A		STAA	Y000A
CABA 970B		STAA	Y000B
CABC 20F3		BRA	ACAB1
		* ------------------- *
CABE 0F 	ACABE	SEI
CABF 140740		BSET	7,#$40
CAC2 86DF		LDAA	#$DF
CAC4 9708		STAA	Y0008
CAC6 0E 		CLI
CAC7 7ECAB1		JMP	ACAB1
		* ------------------- *
CACA B6801B	ACACA	LDAA	D801B
CACD 9706	ACACD	STAA	Y0006
CACF 20E0		BRA	ACAB1
		* ------------------- *
CAD1 4F 	ACAD1	CLRA
CAD2 5F 		CLRB
CAD3 DD15		STD	Y0015
CAD5 DD17		STD	Y0017
CAD7 DD19		STD	Y0019
CAD9 DD1B		STD	Y001B
CADB DD1D		STD	Y001D
CADD 971F		STAA	Y001F
CADF DDD5		STD	Y00D5          ;clear error
CAE1 97D7		STAA	Y00D7          ;      bits
CAE3 B760B9		STAA	Y60B9
CAE6 BDE748		JSR	AE748          	;clear EEPROM
CAE9 39 		RTS
		* ------------------- *
CAEA CBC5	TCAEA	FDB	ACBC5          ;0x10
					       ;out 0xFE+ [0x14:0x1C] + CS
CAEC CBF1		FDB	ACBF1          ;0x11
					       ;out Y00DC &  Y00DD
CAEE CC01               FDB	ACC01          ;0x12
					       ;set mode_serial  = 3
CAF0 CB7B               FDB	ACB7B          ;0x13

CAF2 CC13               FDB	ACC13          ;cmd_0x14 Empty
					       ;rts
CAF4 C944               FDB	AC944	       ;0x15
					       ; read byte
CAF6 CC1B               FDB	ACC1B          ;0x16
CAF8 CB3D               FDB	ACB3D          ;0x17
CAFA CC13               FDB	ACC13          ;0x18
					       ;rts
CAFC CC13               FDB	ACC13          ;0x19
					       ;rts
CAFE CC13               FDB	ACC13          ;0x1A
					       ;rts
CB00 CC14               FDB	ACC14	       ;0x1B    set mode serial 2
CB02 C980               FDB	AC980          ;0x1C
					       	;prg eeprom
CB04 C99F               FDB	AC99F          ;0x1D
					        ; save base 0x0000
CB06 C9A4               FDB	AC9A4          ;0x1E
						; save base 0x6080
CB08 C9A9               FDB	AC9A9          ;0x1F
CB0A C9D6               FDB	AC9D6          ;0x20
CB0C CA1E               FDB	ACA1E          ;0x21
CB0E CA52               FDB	ACA52          ;0x22
CB10 CA7F               FDB	ACA7F          ;0x23
		;   EXE_cmd_Serial
CB12 96DB	ACB12	LDAA	Y00DB		;mode_serial
CB14 8530		BITA	#$30
CB16 2701		BEQ	ACB19
CB18 39 		RTS
		* ------------------- *
CB19 96D8	ACB19	LDAA	Y00D8		;cmd_serial
CB1B 271F		BEQ	ACB3C     	;skip
CB1D 810A		CMPA	#$0A
CB1F 271B		BEQ	ACB3C     	;skip
CB21 16 		TAB
CB22 CECAEA		LDX	#TCAEA
CB25 C010		SUBB	#$10       	;0x10,0x11,0x12,0x13
CB27 250A		BCS	ACB33           ;if cmd < 0x10
CB29 58 		ASLB
CB2A C128		CMPB	#$28            ;if num_cmd >= 20
CB2C 2405		BCC	ACB33
CB2E 3A 		ABX
CB2F EE00		LDX	,X
CB31 6E00		JMP	,X
		* ------------------- *
CB33 15DB30	ACB33	BCLR	Y00DB,#$30	;mode_serial
CB36 4F 		CLRA
CB37 97D8		STAA	Y00D8          	;clear cmd_serial
CB39 7ECBBC		JMP	ACBBC          	;Out_RS
		* ------------------- *
CB3C 39 	ACB3C	RTS
		* ------------------- *
CB3D 4F 	ACB3D	CLRA
CB3E D635		LDAB	Y0035
CB40 C150		CMPB	#$50
CB42 2208		BHI	ACB4C
CB44 97D8		STAA	Y00D8           ;clear cmd_serial
CB46 15DB30		BCLR	Y00DB,#$30      ;mode_serial
CB49 7ECBBC		JMP	ACBBC           ;Out_RS
		* ------------------- *
CB4C D6DB	ACB4C	LDAB	Y00DB           ;mode_serial
CB4E C40F		ANDB	#$0F
CB50 C103		CMPB	#3
CB52 2303		BLS	ACB57
CB54 7F60B3		CLR	Y60B3
CB57 B660B3	ACB57	LDAA	Y60B3
CB5A 4C 		INCA
CB5B 8118		CMPA	#$18
CB5D 2312		BLS	ACB71
CB5F 12264011		BRSET	$26,#$40,ACB74
CB63 4F 		CLRA
CB64 97D8		STAA	Y00D8          ;clear cmd_serial
CB66 B760B3		STAA	Y60B3
CB69 BDCAD1		JSR	ACAD1          ;clear all errors
CB6C 86E0		LDAA	#$E0
CB6E 7ECBBC		JMP	ACBBC          ;Out_RS
		* ------------------- *
CB71 B760B3	ACB71	STAA	Y60B3
CB74 CCFF00	ACB74	LDD	#TFF00
CB77 D7D8		STAB	Y00D8          ;clear cmd_serial
CB79 2041		BRA	ACBBC          ;Out_RS
		* ------------------- *
		;cmd 0x13
CB7B D635	ACB7B	LDAB	Y0035
CB7D C150		CMPB	#$50
CB7F 232C		BLS	ACBAD	    ;stop
CB81 96D9		LDAA	Y00D9           ;first_data serial
CB83 48 		ASLA
CB84 2527		BCS	ACBAD       ;stop
CB86 814E		CMPA	#$4E
CB88 2223		BHI	ACBAD       ;stop

CB8A CECC75		LDX	#TCC75
CB8D D6D9		LDAB	Y00D9          	;first_data serial
CB8F 58 		ASLB
CB90 3A 		ABX
CB91 EC00		LDD	,X
CB93 1A83CF36		CPD	#ACF36
CB97 2714		BEQ	ACBAD        ;stop
CB99 96D9		LDAA	Y00D9           ;first_data serial
CB9B 12270106		BRSET	$27,#1,ACBA5
CB9F 8117		CMPA	#$17
CBA1 270A		BEQ	ACBAD	    ;stop
CBA3 200D		BRA	ACBB2
		* ------------------- *
CBA5 810F	ACBA5	CMPA	#$0F
CBA7 2704		BEQ	ACBAD       ;stop
CBA9 8116		CMPA	#$16
CBAB 2605		BNE	ACBB2
CBAD 4F 	ACBAD	CLRA
CBAE 97D8		STAA	Y00D8          ;clear cmd_serial
CBB0 97D9		STAA	Y00D9          ;clear first_data serial
CBB2 91E0	ACBB2	CMPA	Y00E0
CBB4 2706		BEQ	ACBBC          ;Out_RS
		;
CBB6 97E0		STAA	Y00E0
CBB8 C602		LDAB	#2
CBBA D744		STAB	Y0044

CBBC F6102E	ACBBC	LDAB	SCSR     	;Test
CBBF 2AFB		BPL	ACBBC    	;    TDRE
CBC1 B7102F		STAA	SCDR
CBC4 39 		RTS
		* ------------------- *
		;cmd 0x10
		;out 0xFE+ [0x14:0x1C] + CS
CBC5 CE0015	ACBC5	LDX	#$0015
CBC8 D6D9		LDAB	Y00D9                 ;first_data serial
CBCA C107		CMPB	#7
CBCC 220D		BHI	ACBDB
CBCE 50 		NEGB
CBCF CB07		ADDB	#7
CBD1 3A 		ABX
CBD2 7C00D9		INC	Y00D9                 ;first_data serial
CBD5 A600		LDAA	,X
CBD7 2702		BEQ	ACBDB
CBD9 20E1		BRA	ACBBC          ;Out_RS
		* ------------------- *
CBDB 7F00D8	ACBDB	CLR	Y00D8          ;cmd_serial
CBDE 86FE		LDAA	#$FE           ;start Byte
CBE0 8DDA		BSR	ACBBC          ;Out_RS
		;   ---  math CS ----
CBE2 8B10		ADDA	#$10
CBE4 CE0014		LDX	#$0014
CBE7 08 	ACBE7	INX
CBE8 8C001D		CPX	#$001D
CBEB 24CF		BCC	ACBBC          ;Out_RS
CBED AB00		ADDA	,X
CBEF 20F6		BRA	ACBE7
		;------------------------

		* ------------------- *
		;cmd 0x11
		;out Y00DC &  Y00DD
CBF1 96DC	ACBF1	LDAA	Y00DC
CBF3 13D9FF05		BRCLR	Y00D9,#$FF,ACBFC      ;first_data serial
CBF7 96DD		LDAA	Y00DD
CBF9 7F00D8		CLR	Y00D8           ;cmd_serial
CBFC 7C00D9	ACBFC	INC	Y00D9                 ;first_data serial
CBFF 20BB		BRA	ACBBC          	;Out_RS

		* ------------------- *
		;cmd  0x12
		;set mode_serial  = 3
CC01 14DB80	ACC01	BSET	Y00DB,#$80      ;mode_serial  = 3
CC04 7F00D8		CLR	Y00D8           ;cmd_serial
CC07 B6102E	ACC07	LDAA	SCSR
CC0A 8540		BITA	#$40            ;Wait
CC0C 27F9		BEQ	ACC07           ;transmit complecte
		;-------------------
CC0E 8601		LDAA	#1
CC10 B7102B		STAA	BAUD             ; = 1
CC13 39 	ACC13	RTS
		* ------------------- *
CC14 14DB40	ACC14	BSET	Y00DB,#$40	 ;mode_serial = 2
CC17 7F00D8		CLR	Y00D8            ;cmd_serial
CC1A 39 		RTS
		* ------------------- *
CC1B 96D9	ACC1B	LDAA	Y00D9                 ;first_data serial
CC1D 8180		CMPA	#$80
CC1F 270C		BEQ	ACC2D
CC21 8181		CMPA	#$81
CC23 2733		BEQ	ACC58
CC25 8182		CMPA	#$82
CC27 2734		BEQ	ACC5D
CC29 7F00D8		CLR	Y00D8            ;cmd_serial
CC2C 39 		RTS
		* ------------------- *
CC2D CE8002	ACC2D	LDX	#T8002
CC30 13260203		BRCLR	$26,#2,ACC37
CC34 CE8007		LDX	#T8007
CC37 D6DA	ACC37	LDAB	Y00DA           ;next_data serial
CC39 C104		CMPB	#4
CC3B 2709		BEQ	ACC46
CC3D 7C00DA		INC	Y00DA           ;next_data serial
CC40 3A 		ABX
CC41 A600		LDAA	,X
CC43 7ECBBC		JMP	ACBBC          ;Out_RS
		* ------------------- *
CC46 A600	ACC46	LDAA	,X
CC48 AB01		ADDA	1,X
CC4A AB02		ADDA	2,X
CC4C AB03		ADDA	3,X
CC4E 8B16	ACC4E	ADDA	#$16
CC50 9BD9		ADDA	Y00D9                 ;first_data serial
CC52 7F00D8		CLR	Y00D8           ;cmd_serial
CC55 7ECBBC	ACC55	JMP	ACBBC		;Out_RS
		* ------------------- *
CC58 CE800D	ACC58	LDX	#T800D
CC5B 20DA		BRA	ACC37
		* ------------------- *
CC5D 7C00DA	ACC5D	INC	Y00DA          ;next_data serial
CC60 B68006		LDAA	D8006
CC63 13260203		BRCLR	$26,#2,ACC6A
CC67 B6800B		LDAA	D800B
CC6A D6DA	ACC6A	LDAB	Y00DA          ;next_data serial
CC6C C101		CMPB	#1
CC6E 27E5		BEQ	ACC55          ;Out_RS
CC70 C105		CMPB	#5
CC72 24DA		BCC	ACC4E
CC74 4F 		CLRA
CC75 20DE	TCC75	BRA	ACC55	       ;Out_RS
		* ------------------- *
CC77 CE57		FDB	ACE57      ;1
CC79 CF36		FDB	ACF36      ;2
CC7B CF36		FDB	ACF36      ;3
CC7D CF01		FDB	ACF01      ;4
CC7F CEFC		FDB	ACEFC      ;5
CC81 CEF7		FDB	ACEF7      ;6
CC83 CDE8		FDB	ACDE8      ;7
CC85 CDBF		FDB	ACDBF      ;8
CC87 CDB0		FDB	ACDB0
CC89 CD5A		FDB	ACD5A
CC8B CD4E		FDB	ACD4E
CC8D CD3A		FDB	ACD3A
CC8F CE33		FDB	ACE33
CC91 CF2B		FDB	ACF2B
CC93 CDCD		FDB	ACDCD
CC95 CDA4		FDB	ACDA4
CC97 CF36		FDB	ACF36
CC99 CF36		FDB	ACF36
CC9B CF36		FDB	ACF36
CC9D CDF5		FDB	ACDF5
CC9F CD98		FDB	ACD98
CCA1 CDD9		FDB	ACDD9
CCA3 CDCD		FDB	ACDCD
CCA5 CF36		FDB	ACF36
CCA7 CF36		FDB	ACF36
CCA9 CF36		FDB	ACF36
CCAB CF36		FDB	ACF36
CCAD CD73		FDB	ACD73
CCAF CEF2		FDB	ACEF2
CCB1 CEB7		FDB	ACEB7
CCB3 CEA7		FDB	ACEA7
CCB5 CF36		FDB	ACF36
CCB7 CF36		FDB	ACF36
CCB9 CF36		FDB	ACF36
CCBB CF36		FDB	ACF36
CCBD CF36		FDB	ACF36
CCBF CF36		FDB	ACF36
CCC1 CF36		FDB	ACF36
CCC3 CD79		FDB	ACD79
		;---------------------------
CCC5 FF		TCCC5  	FCB	$FF
CCC6 53 		FCB	$53
CCC7 FF 		FCB	$FF
CCC8 FF 		FCB	$FF
CCC9 54 		FCB	$54
CCCA 59 		FCB	$59
CCCB 5A 		FCB	$5A
CCCC 06 		FCB	$06
CCCD FF 		FCB	$FF
CCCE 5B 		FCB	$5B
CCCF 50 		FCB	$50
CCD0 08 		FCB	$08
CCD1 0A 		FCB	$0A
CCD2 0B 		FCB	$0B
CCD3 0D 		FCB	$0D
CCD4 46 		FCB	$46
CCD5 46 		FCB	$46
CCD6 FF 		FCB	$FF
CCD7 1D 		FCB	$1D
CCD8 FF 		FCB	$FF
CCD9 4E 		FCB	$4E
CCDA FF 		FCB	$FF
CCDB FF 		FCB	$FF
CCDC FF 		FCB	$FF
CCDD FF 		FCB	$FF
CCDE FF 		FCB	$FF
CCDF 52 		FCB	$52
CCE0 58 		FCB	$58
CCE1 C4 		FCB	$C4
CCE2 1E 		FCB	$1E
CCE3 1F 		FCB	$1F
CCE4 33 		FCB	$33
CCE5 FF 		FCB	$FF
CCE6 4B 		FCB	$4B
CCE7 65 		FCB	$65
CCE8 64 		FCB	$64
CCE9 FF 		FCB	$FF
CCEA FF 		FCB	$FF
CCEB E1 		FCB	$E1
CCEC FF 		FCB	$FF
CCED FF 		FCB	$FF
CCEE FF 		FCB	$FF
CCEF FF 		FCB	$FF
CCF0 FF 		FCB	$FF
CCF1 67 		FCB	$67
		;---------------------------
CCF2 CFA2	TCCF2	FDB	ACFA2
CCF4 CFB3		FDB	ACFB3
CCF6 CFB7		FDB	ACFB7
CCF8 CFCC		FDB	ACFCC
CCFA CFCF		FDB	ACFCF
CCFC CFD2		FDB	ACFD2
CCFE CFDC		FDB	ACFDC
CD00 CFF4	TCD00	FDB	ACFF4
CD02 CF80		FDB	ACF80
CD04 CF91		FDB	ACF91
CD06 CF95		FDB	ACF95
CD08 CF9B		FDB	ACF9B
CD0A 9635	ACD0A	LDAA	Y0035
CD0C 8150		CMPA	#$50
CD0E 2203		BHI	ACD13
CD10 7F00E0		CLR	Y00E0
CD13 D6E0	ACD13	LDAB	Y00E0
CD15 2603		BNE	ACD1A
CD17 7ECF36		JMP	ACF36
		* ------------------- *
CD1A 9644	ACD1A	LDAA	Y0044
CD1C 8196		CMPA	#$96          	;150
CD1E 2511		BCS	ACD31
CD20 5F 		CLRB
CD21 96D8		LDAA	Y00D8           ;cmd_serial
CD23 8113		CMPA	#$13
CD25 2604		BNE	ACD2B
CD27 D7D8		STAB	Y00D8        	;clear cmd_serial
CD29 D7D9		STAB	Y00D9           ;clear  first_data serial
CD2B 7F00E0	ACD2B	CLR	Y00E0
CD2E 7ECF36		JMP	ACF36
		* ------------------- *
CD31 CECC75	ACD31	LDX	#TCC75
CD34 58 		ASLB
CD35 3A 		ABX
CD36 EE00		LDX	,X
CD38 6E00		JMP	,X
		* ------------------- *
CD3A 96CE	ACD3A	LDAA	Y00CE
CD3C 8AC0		ORAA	#$C0
CD3E D645		LDAB	Y0045           ;#subr
CD40 C155		CMPB	#$55
CD42 2576		BCS	ACDBA
CD44 843F		ANDA	#$3F
CD46 C1AA		CMPB	#$AA
CD48 2570		BCS	ACDBA
CD4A 8A80		ORAA	#$80
CD4C 206C		BRA	ACDBA
		* ------------------- *
CD4E 96CE	ACD4E	LDAA	Y00CE
CD50 8A20		ORAA	#$20
CD52 12458064		BRSET	$45,#$80,ACDBA
CD56 84DF		ANDA	#$DF
CD58 2060		BRA	ACDBA
		* ------------------- *
CD5A B61020	ACD5A	LDAA	TCTL1
CD5D 84FE		ANDA	#$FE
CD5F B71020		STAA	TCTL1
CD62 8608		LDAA	#8
CD64 B7100B		STAA	CFORC		;FOC5
CD67 96CE		LDAA	Y00CE
CD69 8A10		ORAA	#$10
CD6B 1245804B		BRSET	$45,#$80,ACDBA
CD6F 84EF		ANDA	#$EF
CD71 2047		BRA	ACDBA
		* ------------------- *
CD73 96CE	ACD73	LDAA	Y00CE
CD75 84EF		ANDA	#$EF
CD77 2041		BRA	ACDBA
		* ------------------- *
CD79 1227080C	ACD79	BRSET	$27,#8,ACD89
CD7D 96CE		LDAA	Y00CE
CD7F 8A08		ORAA	#8
CD81 12458035		BRSET	$45,#$80,ACDBA
CD85 84F7		ANDA	#$F7
CD87 2031		BRA	ACDBA
		* ------------------- *
CD89 96CD	ACD89	LDAA	Y00CD
CD8B 8A80		ORAA	#$80
CD8D 12458002		BRSET	$45,#$80,ACD93
CD91 847F		ANDA	#$7F
CD93 97CD	ACD93	STAA	Y00CD
CD95 7ECF36		JMP	ACF36
		* ------------------- *
CD98 96CE	ACD98	LDAA	Y00CE
CD9A 8A04		ORAA	#4
CD9C 1245801A		BRSET	$45,#$80,ACDBA
CDA0 84FB		ANDA	#$FB
CDA2 2016		BRA	ACDBA
		* ------------------- *
CDA4 96CE	ACDA4	LDAA	Y00CE
CDA6 8A02		ORAA	#2
CDA8 1245800E		BRSET	$45,#$80,ACDBA
CDAC 84FD		ANDA	#$FD
CDAE 200A		BRA	ACDBA
		* ------------------- *
CDB0 96CE	ACDB0	LDAA	Y00CE
CDB2 8A01		ORAA	#1
CDB4 12458002		BRSET	$45,#$80,ACDBA
CDB8 84FE		ANDA	#$FE
CDBA 97CE	ACDBA	STAA	Y00CE
CDBC 7ECF36		JMP	ACF36
		* ------------------- *
CDBF 96CD	ACDBF	LDAA	Y00CD
CDC1 847F		ANDA	#$7F
CDC3 D645		LDAB	Y0045           ;#subr
CDC5 C478		ANDB	#$78
CDC7 271A		BEQ	ACDE3
CDC9 8A80		ORAA	#$80
CDCB 2016		BRA	ACDE3
		* ------------------- *
CDCD 96CD	ACDCD	LDAA	Y00CD
CDCF 8A20		ORAA	#$20
CDD1 1245800E		BRSET	$45,#$80,ACDE3
CDD5 84DF		ANDA	#$DF
CDD7 200A		BRA	ACDE3
		* ------------------- *
CDD9 96CD	ACDD9	LDAA	Y00CD
CDDB 8A10		ORAA	#$10
CDDD 12458002		BRSET	$45,#$80,ACDE3
CDE1 84EF		ANDA	#$EF
CDE3 97CD	ACDE3	STAA	Y00CD
CDE5 7ECF36		JMP	ACF36
		* ------------------- *
CDE8 8610	ACDE8	LDAA	#$10
CDEA 12458002		BRSET	$45,#$80,ACDF0
CDEE 8670		LDAA	#$70
CDF0 9769	ACDF0	STAA	Y0069
CDF2 7ECF36		JMP	ACF36
		* ------------------- *
CDF5 DCCD	ACDF5	LDD	Y00CD
CDF7 8A10		ORAA	#$10
CDF9 12270102		BRSET	$27,#1,ACDFF
CDFD 8A20		ORAA	#$20
CDFF 12270804	ACDFF	BRSET	$27,#8,ACE07
CE03 CAEB		ORAB	#$EB
CE05 2004		BRA	ACE0B
		* ------------------- *
CE07 8A80	ACE07	ORAA	#$80
CE09 CAE3		ORAB	#$E3
CE0B 122D1002	ACE0B	BRSET	$2D,#$10,ACE11
CE0F CA10		ORAB	#$10
CE11 1245801A	ACE11	BRSET	$45,#$80,ACE2F
CE15 84EF		ANDA	#$EF
CE17 12270102		BRSET	$27,#1,ACE1D
CE1B 84DF		ANDA	#$DF
CE1D 12270804	ACE1D	BRSET	$27,#8,ACE25
CE21 C414		ANDB	#$14
CE23 2004		BRA	ACE29
		* ------------------- *
CE25 847F	ACE25	ANDA	#$7F
CE27 C41C		ANDB	#$1C
CE29 122D1002	ACE29	BRSET	$2D,#$10,ACE2F
CE2D C4EF		ANDB	#$EF
CE2F DDCD	ACE2F	STD	Y00CD
CE31 20B5		BRA	ACDE8
		* ------------------- *
CE33 15CE10	ACE33	BCLR	$CE,#$10
CE36 CE6000		LDX	#$6000
CE39 0F 		SEI
CE3A B66000		LDAA	Y6000
CE3D 84FB		ANDA	#$FB
CE3F 12458002		BRSET	$45,#$80,ACE45
CE43 8A04		ORAA	#4
CE45 B76000	ACE45	STAA	Y6000
CE48 1C0204		BSET	2,X,#4
CE4B 8614		LDAA	#$14
CE4D 4A 	ACE4D	DECA
CE4E 26FD		BNE	ACE4D
CE50 1D0204		BCLR	2,X,#4
CE53 0E 		CLI
CE54 7ECF36		JMP	ACF36
		* ------------------- *
CE57 15CE10	ACE57	BCLR	$CE,#$10
CE5A D645		LDAB	Y0045           ;#subr
CE5C 58 		ASLB
CE5D 2703		BEQ	ACE62
CE5F 7ECF36		JMP	ACF36
		* ------------------- *
CE62 0F 	ACE62	SEI
CE63 B61020		LDAA	TCTL1
CE66 8A03		ORAA	#3              ; OM5OL5 11
CE68 B71020		STAA	TCTL1           ;      Set OC5
CE6B C608		LDAB	#8
CE6D F7100B		STAB	CFORC		;FOC5
CE70 FC100E		LDD	TCNT
CE73 C306D6		ADDD	#1750           ;* 4 = 7 ms
CE76 FD101E		STD	TOC5            ;const
CE79 B61020		LDAA	TCTL1
CE7C 84FE		ANDA	#$FE            ; OM5OL5 10
CE7E B71020		STAA	TCTL1           ;       Clear OC5
CE81 0E 		CLI
CE82 7ECF36		JMP	ACF36
		* ------------------- *
CE85 40 	TCE85	FCB	$40    ;Data TCTL1
CE86 40 		FCB	$40    ;Flag Force
CE87 BF 		FCB	$BF    ;Mask TCTL1
CE88 10 	TCE88	FCB	$10    ;Data TCTL1
CE89 20 		FCB	$20    ;Flag Force
CE8A EF 		FCB	$EF    ;Mask TCTL1
CE8B 04 	TCE8B	FCB	$04    ;Data TCTL1
CE8C 10 		FCB	$10    ;Flag Force
CE8D FB 		FCB	$FB    ;Mask TCTL1

		* ------------------- *
		* >> NO EXECUTION PATH TO HERE <<
CE8E 12271003 		BRSET	$27,#$10,ACE95
CE92 7ECF36		JMP	ACF36
		* ------------------- *
CE95 CE101C	ACE95	LDX	#$101C
CE98 18CECE8B		LDY	#TCE8B
CE9C 2027		BRA	ACEC5
		* ------------------- *
		* >> NO EXECUTION PATH TO HERE <<
CE9E 12271003		BRSET	$27,#$10,ACEA5
CEA2 7ECF36		JMP	ACF36
		* ------------------- *
CEA5 2007	ACEA5	BRA	ACEAE
		* ------------------- *
CEA7 12274003	ACEA7	BRSET	$27,#$40,ACEAE
CEAB 7ECF36		JMP	ACF36
		* ------------------- *
CEAE CE101A	ACEAE	LDX	#TOC3
CEB1 18CECE88		LDY	#TCE88
CEB5 200E		BRA	ACEC5
		* ------------------- *
CEB7 12274003	ACEB7	BRSET	$27,#$40,ACEBE
CEBB 7ECF36		JMP	ACF36
		* ------------------- *
CEBE CE1018	ACEBE	LDX	#TOC2
CEC1 18CECE85		LDY	#TCE85
CEC5 15CE10	ACEC5	BCLR	$CE,#$10
CEC8 D645		LDAB	Y0045    	;#subr
CECA 58 		ASLB
CECB 2703		BEQ	ACED0
CECD 7ECF36		JMP	ACF36
		* ------------------- *
CED0 0F 	ACED0	SEI
CED1 18EC00		LDD	,Y
CED4 BA1020		ORAA	TCTL1
CED7 B71020		STAA	TCTL1
CEDA F7100B		STAB	CFORC
CEDD FC100E		LDD	TCNT
CEE0 C301A9		ADDD	#425            ;* 4 = 1.7 ms
CEE3 ED00		STD	,X
CEE5 18A602		LDAA	2,Y
CEE8 B41020		ANDA	TCTL1
CEEB B71020		STAA	TCTL1
CEEE 0E 		CLI
CEEF 7ECF36		JMP	ACF36
		* ------------------- *
CEF2 CE6008	ACEF2	LDX	#$6008
CEF5 200D		BRA	ACF04
		* ------------------- *
CEF7 CE600A	ACEF7	LDX	#$600A
CEFA 2008		BRA	ACF04
		* ------------------- *
CEFC CE600C	ACEFC	LDX	#$600C
CEFF 2003		BRA	ACF04
		* ------------------- *
CF01 CE600E	ACF01	LDX	#$600E
CF04 15CE10	ACF04	BCLR	$CE,#$10
CF07 D645		LDAB	Y0045           ;#subr
CF09 58 		ASLB
CF0A 262A		BNE	ACF36
CF0C 0F 		SEI
CF0D B66003		LDAA	Y6003
CF10 85F0		BITA	#$F0
CF12 2705		BEQ	ACF19
CF14 840F		ANDA	#$0F
CF16 B76003		STAA	Y6003
CF19 86F8	ACF19	LDAA	#$F8
CF1B B16006		CMPA	Y6006
CF1E 2703		BEQ	ACF23
CF20 B76006		STAA	Y6006
CF23 CC01A9	ACF23	LDD	#$01A9
CF26 ED00		STD	,X
CF28 0E 		CLI
CF29 200B		BRA	ACF36
		* ------------------- *
CF2B 96CF	ACF2B	LDAA	Y00CF
CF2D 8802		EORA	#2
CF2F 97CF		STAA	Y00CF
CF31 B76040		STAA	Y6040
CF34 2000		BRA	ACF36
		* ------------------- *
CF36 96D8	ACF36	LDAA	Y00D8		;cmd_serial
CF38 8114		CMPA	#$14
CF3A 2705		BEQ	ACF41
CF3C 811A		CMPA	#$1A
CF3E 2730		BEQ	ACF70
CF40 39 	ACF40	RTS
		* ------------------- *
CF41 D6D9	ACF41	LDAB	Y00D9		;first_data serial
CF43 C140		CMPB	#$40
CF45 2418		BCC	ACF5F
CF47 C100		CMPB	#0
CF49 27F5		BEQ	ACF40
CF4B C12D		CMPB	#$2D
CF4D 22F1		BHI	ACF40
CF4F CECCC4		LDX	#TCCC5-1
CF52 4F 		CLRA
CF53 3A 		ABX
CF54 E600		LDAB	,X
CF56 C1FF		CMPB	#$FF
CF58 27E6		BEQ	ACF40
CF5A 8F 		XGDX
CF5B A600		LDAA	,X
CF5D 206A		BRA	ACFC9		;Out_RS
		* ------------------- *
CF5F C040	ACF5F	SUBB	#$40
CF61 58 		ASLB
CF62 25DC		BCS	ACF40
CF64 C110		CMPB	#$10
CF66 24D8		BCC	ACF40
CF68 CECCF2		LDX	#TCCF2
CF6B 3A 	ACF6B	ABX
CF6C EE00		LDX	,X
CF6E 6E00		JMP	,X
		* ------------------- *
CF70 CECD00	ACF70	LDX	#TCD00
CF73 D6D9		LDAB	Y00D9		;first_data serial
CF75 58 		ASLB
CF76 C100		CMPB	#0
CF78 27C6		BEQ	ACF40           ;rts
CF7A C108		CMPB	#8              ;max 4 subr
CF7C 23ED		BLS	ACF6B           ;goto subr
CF7E 20C0		BRA	ACF40           ;rts
		* ------------------- *
CF80 9661	ACF80	LDAA	Y0061
CF82 1327C043		BRCLR	$27,#$C0,ACFC9     ;Out_RS
CF86 F68011		LDAB	D8011
CF89 2702		BEQ	ACF8D
CF8B 8802		EORA	#2
CF8D 8880	ACF8D	EORA	#$80
CF8F 2038		BRA	ACFC9           ;Out_RS
		* ------------------- *
CF91 96CE	ACF91	LDAA	Y00CE
CF93 2034		BRA	ACFC9           ;Out_RS
		* ------------------- *
CF95 96CD	ACF95	LDAA	Y00CD
CF97 8808		EORA	#8
CF99 202E		BRA	ACFC9           ;Out_RS
		* ------------------- *
CF9B B66000	ACF9B	LDAA	Y6000
CF9E 8470		ANDA	#$70
CFA0 2027		BRA	ACFC9           ;Out_RS
		* ------------------- *
CFA2 0F 	ACFA2	SEI
CFA3 8610		LDAA	#$10
CFA5 B71030		STAA	Y1030           ;ADCTL
CFA8 B61030	ACFA8	LDAA	Y1030           ;ADCTL
CFAB 2AFB		BPL	ACFA8
CFAD B61031		LDAA	Y1031           ;ADC0/ADC4
CFB0 0E 		CLI
CFB1 2016		BRA	ACFC9           ;Out_RS
		* ------------------- *
CFB3 965F	ACFB3	LDAA	Y005F
CFB5 2012		BRA	ACFC9           ;Out_RS
		* ------------------- *
CFB7 D653	ACFB7	LDAB	Y0053           ;O2_DATA
CFB9 86FF		LDAA	#$FF
CFBB F189F7		CMPB	D89F7
CFBE 2207		BHI	ACFC7
CFC0 F189F8		CMPB	D89F8
CFC3 2204		BHI	ACFC9           ;Out_RS
CFC5 84A0		ANDA	#$A0
CFC7 84B1	ACFC7	ANDA	#$B1
CFC9 7ECBBC	ACFC9	JMP	ACBBC           ;Out_RS
		* ------------------- *
CFCC 7ECF40	ACFCC	JMP	ACF40
		* ------------------- *
CFCF 7ECF40	ACFCF	JMP	ACF40
		* ------------------- *
CFD2 960D	ACFD2	LDAA	Y000D
CFD4 9050		SUBA	Y0050           ;MAP_DATA
CFD6 2401		BCC	ACFD9
CFD8 4F 		CLRA
CFD9 7ECFC9	ACFD9	JMP	ACFC9           ;Out_RS
		* ------------------- *
CFDC 9651	ACFDC	LDAA	Y0051
CFDE 9006		SUBA	Y0006
CFE0 2401		BCC	ACFE3
CFE2 4F 		CLRA
CFE3 F68A08	ACFE3	LDAB	D8A08
CFE6 B76099		STAA	Y6099
CFE9 3D 		MUL
CFEA B96099		ADCA	Y6099
CFED 2402		BCC	ACFF1
CFEF 86FF		LDAA	#$FF
CFF1 7ECFC9	ACFF1	JMP	ACFC9           ;Out_RS
		* ------------------- *
CFF4 964E	ACFF4	LDAA	Y004E
CFF6 7ECFC9		JMP	ACFC9           ;Out_RS
		* ------------------- *
CFF9 CE8000	ACFF9	LDX	#T8000
CFFC CC9200		LDD	#T9200
CFFF FD6099		STD	Y6099
D002 4F 		CLRA
D003 C608		LDAB	#8		;size blok
D005 8D18	AD005	BSR	AD01F
D007 36 		PSHA
D008 37 		PSHB
D009 BDE537		JSR	AE537           ;RSTCOP
D00C 8612		LDAA	#$12
D00E BB6099		ADDA	Y6099
D011 B76099		STAA	Y6099
D014 B66000		LDAA	Y6000
D017 8540		BITA	#$40
D019 33 		PULB
D01A 32 		PULA
D01B 272B		BEQ	AD048
D01D 20E6		BRA	AD005
		* ------------------- *
D01F 8CB600	AD01F	CPX	#DB600          ;adr EEPROM ?
D022 2609		BNE	AD02D           ;no
						;else skip
D024 7C6099		INC	Y6099
D027 7C6099		INC	Y6099
D02A CEB800		LDX	#AB800
D02D AB00	AD02D	ADDA	,X
D02F AB01		ADDA	1,X
D031 AB02		ADDA	2,X
D033 AB03		ADDA	3,X
D035 AB04		ADDA	4,X
D037 AB05		ADDA	5,X
D039 AB06		ADDA	6,X
D03B AB07		ADDA	7,X
D03D 3A 		ABX
D03E BC6099		CPX	Y6099
D041 26EA		BNE	AD02D
D043 7D6099		TST	Y6099
D046 2701		BEQ	AD049
D048 39 	AD048	RTS
		* ------------------- *
D049 38 	AD049	PULX
D04A B08005		SUBA	D8005
D04D 27F9		BEQ	AD048
D04F CC0201		LDD	#$0201
D052 7ED163		JMP	AD163           ;error  0201
		* ------------------- *
D055 9645	AD055	LDAA	Y0045           ;#subr
D057 48 		ASLA                    ;only 1100 0000
D058 48 		ASLA
D059 2610		BNE	AD06B           ;skip
		;----------------------
D05B B660B2		LDAA	Y60B2
D05E 8570		BITA	#$70      ;0111 0000
D060 270A		BEQ	AD06C
D062 8010		SUBA	#$10      ;0001 0000
D064 8570		BITA	#$70
D066 2704		BEQ	AD06C
D068 B760B2		STAA	Y60B2     ;-=0x10
D06B 39 	AD06B	RTS
		* ------------------- *
D06C D6CD	AD06C	LDAB	Y00CD
D06E C840		EORB	#$40
D070 D7CD		STAB	Y00CD
D072 850F		BITA	#$0F
D074 2709		BEQ	AD07F
D076 4A 		DECA
D077 850F		BITA	#$0F
D079 2704		BEQ	AD07F
D07B 8A10		ORAA	#$10
D07D 2035		BRA	AD0B4
		* ------------------- *
D07F 4D 	AD07F	TSTA
D080 2B36		BMI	AD0B8
D082 86AA		LDAA	#$AA
D084 D6D9		LDAB	Y00D9		;first_data serial
D086 C1FE		CMPB	#$FE
D088 271E		BEQ	AD0A8
D08A 5D 		TSTB
D08B 2B27		BMI	AD0B4
D08D C108		CMPB	#8
D08F 250A		BCS	AD09B
D091 CEB618		LDX	#EEPROM+$18
D094 3A 		ABX
D095 1E00FF67		BRSET	,X,#$FF,AD100
D099 2007		BRA	AD0A2
		* ------------------- *
D09B 50 	AD09B	NEGB
D09C CB07		ADDB	#7
D09E CE0015		LDX	#$0015
D0A1 3A 		ABX
D0A2 E600	AD0A2	LDAB	,X
D0A4 270E		BEQ	AD0B4
D0A6 2001		BRA	AD0A9
		* ------------------- *
D0A8 5F 	AD0A8	CLRB
D0A9 CED111	AD0A9	LDX	#TD111       ;tbl_cod_error
D0AC 3A 		ABX
D0AD A600		LDAA	,X
D0AF 840F		ANDA	#$0F
D0B1 48 		ASLA
D0B2 8AA0		ORAA	#$A0
D0B4 B760B2	AD0B4	STAA	Y60B2        ;=0xA0 or X
D0B7 39 		RTS
		* ------------------- *
D0B8 D6D9	AD0B8	LDAB	Y00D9           ;first_data serial
D0BA C1FF		CMPB	#$FF
D0BC 260C		BNE	AD0CA
D0BE 961D		LDAA	Y001D
D0C0 8132		CMPA	#$32
D0C2 2206		BHI	AD0CA
D0C4 5A 		DECB
D0C5 D7D9		STAB	Y00D9           ;first_data serial
D0C7 5F 		CLRB
D0C8 2025		BRA	AD0EF
		* ------------------- *
D0CA C1FE	AD0CA	CMPB	#$FE
D0CC 2601		BNE	AD0CF
D0CE 5C 		INCB
D0CF 5C 	AD0CF	INCB
D0D0 D7D9		STAB	Y00D9           ;first_data serial
D0D2 C108		CMPB	#8
D0D4 250E		BCS	AD0E4
D0D6 12D9802F		BRSET	Y00D9,#$80,AD109	;first_data serial
D0DA CEB618		LDX	#EEPROM+$18
D0DD 3A 		ABX
D0DE 1E00FF1E		BRSET	,X,#$FF,AD100
D0E2 2007		BRA	AD0EB
		* ------------------- *
D0E4 50 	AD0E4	NEGB
D0E5 CB07		ADDB	#7
D0E7 CE0015		LDX	#$0015
D0EA 3A 		ABX
D0EB E600	AD0EB	LDAB	,X
D0ED 2711		BEQ	AD100
D0EF CED111	AD0EF	LDX	#TD111			;tbl_cod_error
D0F2 3A 		ABX
D0F3 A600		LDAA	,X
D0F5 44 		LSRA
D0F6 44 		LSRA
D0F7 44 		LSRA
D0F8 44 		LSRA
D0F9 48 		ASLA
D0FA 8A40		ORAA	#$40
D0FC B760B2		STAA	Y60B2                    ;=0x40 or x
D0FF 39 		RTS
		* ------------------- *
D100 864A	AD100	LDAA	#$4A
D102 B760B2		STAA	Y60B2    	;=0x4A
D105 14D980		BSET	Y00D9,#$80	;first_data serial
D108 39 		RTS
		* ------------------- *
D109 4F 	AD109	CLRA
D10A 97D8		STAA	Y00D8           ;clear cmd_serial
D10C 97DB		STAA	Y00DB		;clear mode_serial
D10E 97D9		STAA	Y00D9           ;first_data serial
D110 39 		RTS
		* ------------------- *
		;convert TaBLe  code ERRORS
D111 12 	TD111	FCB	$12
D112 54 		FCB	$54
D113 53 		FCB	$53
D114 52 		FCB	$52
D115 51 		FCB	$51
D116 47 		FCB	$47
D117 46 		FCB	$46
D118 45 		FCB	$45
D119 44 		FCB	$44
D11A 43 		FCB	$43
D11B 42 		FCB	$42
D11C 41 		FCB	$41
D11D 37 		FCB	$37
D11E 36 		FCB	$36
D11F 35 		FCB	$35
D120 34 		FCB	$34
D121 33 		FCB	$33
D122 32 		FCB	$32
D123 31 		FCB	$31
D124 27 		FCB	$27
D125 27 		FCB	$27
D126 27 		FCB	$27
D127 26 		FCB	$26
D128 26 		FCB	$26
D129 26 		FCB	$26
D12A 25 		FCB	$25
D12B 24 		FCB	$24
D12C 24 		FCB	$24
D12D 23 		FCB	$23
D12E 23 		FCB	$23
D12F 22 		FCB	$22
D130 22 		FCB	$22
D131 21 		FCB	$21
D132 17 		FCB	$17
D133 16 		FCB	$16
D134 15 		FCB	$15
D135 14 		FCB	$14
D136 14 		FCB	$14
D137 13 		FCB	$13
D138 13 		FCB	$13
D139 11 		FCB	$11
D13A 43 		FCB	$43
D13B 43 		FCB	$43
D13C 43 		FCB	$43
D13D 42 		FCB	$42
D13E 52 		FCB	$52
D13F 32 		FCB	$32
D140 61 		FCB	$61
D141 62 		FCB	$62
D142 63 		FCB	$63
D143 45 		FCB	$45
D144 36 		FCB	$36
D145 35 		FCB	$35
D146 35 		FCB	$35
D147 32 		FCB	$32
D148 64 		FCB	$64
D149 65 		FCB	$65
D14A 23 		FCB	$23
D14B 23 		FCB	$23
D14C 21 		FCB	$21
D14D 51 		FCB	$51
D14E 27 		FCB	$27
D14F 21 		FCB	$21
D150 67 		FCB	$67
D151 52 		FCB	$52
D152 66 		FCB	$66
D153 66 		FCB	$66
D154 36 		FCB	$36
D155 53 		FCB	$53
D156 27 		FCB	$27
D157 27 		FCB	$27
D158 44 		FCB	$44
D159 16 		FCB	$16
D15A 71 		FCB	$71
D15B 72 		FCB	$72
D15C 73 		FCB	$73
D15D 74 		FCB	$74
D15E 75 		FCB	$75
D15F 51 		FCB	$51
D160 27 		FCB	$27
D161 27 		FCB	$27
D162 76 		FCB	$76
		;set Error
D163 CE89D6	AD163	LDX	#T89D6             ;0x10,0x26,0x00
D166 1F00FF07	AD166	BRCLR	,X,#$FF,AD171
D16A A100		CMPA	,X
D16C 274F		BEQ	AD1BD		   ;skip
D16E 08 		INX
D16F 20F5		BRA	AD166
		* ------------------- *
D171 5D 	AD171	TSTB
D172 2B08		BMI	AD17C
D174 911C		CMPA	Y001C
D176 2742		BEQ	AD1BA
D178 911B		CMPA	Y001B
D17A 2734		BEQ	AD1B0
D17C C47F	AD17C	ANDB	#$7F
D17E F76099		STAB	Y6099
D181 18CE00DC		LDY	#$00DC
D185 18A100		CMPA	,Y
D188 2713		BEQ	AD19D
D18A 1808		INY
D18C 18A100		CMPA	,Y
D18F 270C		BEQ	AD19D
D191 186D00		TST	,Y
D194 2707		BEQ	AD19D
D196 1809		DEY
D198 186D00		TST	,Y
D19B 2620		BNE	AD1BD
D19D 18A700	AD19D	STAA	,Y
D1A0 18E602		LDAB	2,Y
D1A3 5C 		INCB
D1A4 271A		BEQ	AD1C0
D1A6 F16099		CMPB	Y6099
D1A9 2415		BCC	AD1C0
D1AB 18E702		STAB	2,Y
D1AE 0C 		CLC
D1AF 39 		RTS
		* ------------------- *
D1B0 DC1B	AD1B0	LDD	Y001B
D1B2 971C		STAA	Y001C
D1B4 D71B		STAB	Y001B
D1B6 961D		LDAA	Y001D
D1B8 971E		STAA	Y001E
D1BA 7F001D	AD1BA	CLR	Y001D
D1BD 4F 	AD1BD	CLRA
D1BE 0C 		CLC
D1BF 39 		RTS
		* ------------------- *
D1C0 7D0015	AD1C0	TST	Y0015
D1C3 270B		BEQ	AD1D0
D1C5 12264004		BRSET	$26,#$40,AD1CD
D1C9 13262003		BRCLR	$26,#$20,AD1D0
D1CD 7ED258	AD1CD	JMP	AD258
		* ------------------- *
D1D0 186F00	AD1D0	CLR	,Y
D1D3 186F02		CLR	2,Y
D1D6 CE0015		LDX	#$0015
D1D9 A100	AD1D9	CMPA	,X
D1DB 2605		BNE	AD1E2
D1DD 5F 		CLRB
D1DE E700		STAB	,X
D1E0 2008		BRA	AD1EA
		* ------------------- *
D1E2 08 	AD1E2	INX
D1E3 8C001C		CPX	#$001C
D1E6 23F1		BLS	AD1D9
D1E8 C6FF		LDAB	#$FF
D1EA CE001C	AD1EA	LDX	#$001C
D1ED 18CE001D		LDY	#$001D
D1F1 F76099		STAB	Y6099
D1F4 8C001A	AD1F4	CPX	#$001A
D1F7 2510		BCS	AD209
D1F9 36 		PSHA
D1FA 18E600		LDAB	,Y
D1FD B66099		LDAA	Y6099
D200 18A700		STAA	,Y
D203 1808		INY
D205 F76099		STAB	Y6099
D208 32 		PULA
D209 E600	AD209	LDAB	,X
D20B A700		STAA	,X
D20D 17 		TBA
D20E 2733		BEQ	AD243
D210 09 		DEX
D211 8C0015		CPX	#$0015
D214 24DE		BCC	AD1F4
D216 7F001D		CLR	Y001D
D219 0F 		SEI
D21A 1226403A		BRSET	$26,#$40,AD258
D21E 12262036		BRSET	$26,#$20,AD258
D222 142640		BSET	$26,#$40        ;requst prg
D225 0E 		CLI
D226 B760B1		STAA	Y60B1           ;data_eepr
D229 CEB61F		LDX	#EEPROM+$1F
D22C 08 	AD22C	INX
D22D E600		LDAB	,X
D22F 11 		CBA
D230 270C		BEQ	AD23E
D232 5C 		INCB
D233 26F7		BNE	AD22C           ;repeat
		;------------------------
D235 8F 		XGDX
D236 83B600		SUBD	#DB600          ;EEPROM
D239 F760B0		STAB	Y60B0           ;offset_prg_eepr
D23C 0D 		SEC
D23D 39 		RTS
		* ------------------- *
D23E 152640	AD23E	BCLR	$26,#$40	;no requst prg
D241 0D 		SEC
D242 39 		RTS
		* ------------------- *
D243 188C001F	AD243	CPY	#$001F
D247 220A		BHI	AD253
D249 D61D		LDAB	Y001D
D24B 2709		BEQ	AD256
D24D F66099		LDAB	Y6099
D250 18E700		STAB	,Y
D253 5F 	AD253	CLRB
D254 D71D		STAB	Y001D
D256 0D 	AD256	SEC
D257 39 		RTS
		* ------------------- *
D258 0C 	AD258	CLC
D259 0E 		CLI
D25A 39 		RTS
		* ------------------- *
D25B 00 	TD25B	FCB	$00
D25C 00 		FCB	$00
D25D 04 		FCB	$04
D25E 00 		FCB	$00
D25F 10 		FCB	$10
D260 20 		FCB	$20
D261 00 		FCB	$00
D262 80 		FCB	$80
D263 00 		FCB	$00
D264 00 		FCB	$00
D265 19 		FCB	$19
D266 00 		FCB	$00
D267 32 		FCB	$32	*2
D268 0C 		FCB	$0C
D269 00 		FCB	$00
D26A 0E 		FCB	$0E
D26B 01 	TD26B	FCB	$01
D26C 02 		FCB	$02
D26D 04 		FCB	$04
D26E 08 		FCB	$08
D26F 10 		FCB	$10
D270 20 		FCB	$20
D271 00 		FCB	$00
D272 00 		FCB	$00
D273 10 		FCB	$10
D274 11 		FCB	$11
D275 33 		FCB	$33
D276 51 		FCB	$51
D277 0A 		FCB	$0A
D278 12 		FCB	$12
D279 00 		FCB	$00
D27A 00 		FCB	$00
D27B 0F 	AD27B	SEI
D27C F61028		LDAB	SPCR
D27F CA01		ORAB	#1
D281 F71028		STAB	SPCR           ;Serial Peripheral Control
D284 15CF04		BCLR	$CF,#4
D287 D6CF		LDAB	Y00CF
D289 F76040		STAB	Y6040
D28C 96CE		LDAA	Y00CE
D28E B11029		CMPA	Y1029           ;Serial Peripheral Status
D291 B7102A		STAA   	SPDR
D294 3D 		MUL
D295 3D 		MUL
D296 01 		NOP
D297 14CF04		BSET	$CF,#4
D29A 96CF		LDAA	Y00CF
D29C B76040		STAA	Y6040
D29F B6102A		LDAA	SPDR
D2A2 F61028		LDAB	SPCR
D2A5 C4FC		ANDB	#$FC
D2A7 F71028		STAB	SPCR
D2AA B760B6		STAA	Y60B6
D2AD 0E 		CLI
D2AE 132E4063		BRCLR	$2E,#$40,AD315
D2B2 B860B7		EORA	Y60B7
D2B5 B489DD		ANDA	D89DD
D2B8 CED26B		LDX	#TD26B
D2BB D645		LDAB	Y0045           ;#subr
D2BD C407		ANDB	#7
D2BF 3A 		ABX
D2C0 A500		BITA	,X
D2C2 2751		BEQ	AD315
D2C4 B66080		LDAA	Y6080
D2C7 264C		BNE	AD315
D2C9 B66000		LDAA	Y6000
D2CC 8540		BITA	#$40
D2CE 2645		BNE	AD315
D2D0 965B		LDAA	Y005B           ;BATT_V
D2D2 81A0		CMPA	#$A0            ;160
D2D4 253F		BCS	AD315
D2D6 A608		LDAA	8,X
D2D8 C6A0		LDAB	#$A0
D2DA 8111		CMPA	#$11
D2DC 270F		BEQ	AD2ED
D2DE 8112		CMPA	#$12
D2E0 2719		BEQ	AD2FB
D2E2 8133		CMPA	#$33
D2E4 2723		BEQ	AD309
D2E6 C620		LDAB	#$20
D2E8 BDD163		JSR	AD163		;error  xx20
D2EB 2028		BRA	AD315
		* ------------------- *
D2ED 12D60824	AD2ED	BRSET	Y00D6,#8,AD315
D2F1 BDD163		JSR	AD163		;error  xxA0
D2F4 241F		BCC	AD315
D2F6 14D608		BSET	Y00D6,#8
D2F9 201A		BRA	AD315
		* ------------------- *
D2FB 12D62016	AD2FB	BRSET	Y00D6,#$20,AD315
D2FF BDD163		JSR	AD163		;error  xxA0
D302 2411		BCC	AD315
D304 14D620		BSET	Y00D6,#$20
D307 200C		BRA	AD315
		* ------------------- *
D309 12D60408	AD309	BRSET	Y00D6,#4,AD315
D30D BDD163		JSR	AD163           ;error  xxA0
D310 2403		BCC	AD315
D312 14D604		BSET	Y00D6,#4
D315 96CE	AD315	LDAA	Y00CE
D317 B760B7		STAA	Y60B7
D31A 142E40		BSET	$2E,#$40
D31D 39 		RTS
		* ------------------- *
D31E 9646	AD31E	LDAA	T_RPM
D320 813F		CMPA	#$3F
D322 251B		BCS	AD33F
D324 13272017		BRCLR	$27,#$20,AD33F
D328 963A		LDAA	Y003A
D32A 8183		CMPA	#$83
D32C 2711		BEQ	AD33F
D32E 8181		CMPA	#$81
D330 270D		BEQ	AD33F
D332 FC100E		LDD	TCNT
D335 B31010		SUBD	TIC1
D338 1A8300FA		CPD	#250	;* 4= 1 ms
D33C 2501		BCS	AD33F
D33E 39 		RTS
		* ------------------- *
D33F 96CD	AD33F	LDAA	Y00CD
D341 8BC3		ADDA	#$C3
D343 B76099		STAA	Y6099
D346 C640		LDAB	#$40
D348 8661		LDAA	#$61
D34A 18CE1000		LDY	#$1000        	;base_register
D34E CE6000		LDX	#$6000
D351 0F 		SEI
D352 1C0008		BSET	,X,#8
D355 181D0820		BCLR	8,Y,#$20     	;portd pd3
D359 F11029		CMPB	Y1029           ;Serial Peripheral Status
D35C B7102A		STAA	SPDR            ;out 0x61
D35F 1C0208		BSET	2,X,#8
D362 1D0208		BCLR	2,X,#8
D365 01 		NOP
D366 B6102A		LDAA	SPDR
D369 B11029		CMPA	Y1029           ;Serial Peripheral Status
D36C 8662		LDAA	#$62
D36E 1F000806	AD36E	BRCLR	,X,#8,AD378
D372 5A 		DECB
D373 26F9		BNE	AD36E
D375 7ED4BF		JMP	AD4BF
		* ------------------- *
D378 C60B	AD378	LDAB	#11
D37A B7102A		STAA	SPDR            ;out 0x62
D37D 1C0208		BSET	2,X,#8
D380 1D0208		BCLR	2,X,#8
D383 01 		NOP
D384 B6102A		LDAA	SPDR
D387 B7609A		STAA	Y609A
D38A B11029		CMPA	Y1029           ;Serial Peripheral Status
D38D 8600		LDAA	#0
D38F 1F000806	AD38F	BRCLR	,X,#8,AD399
D393 5A 		DECB
D394 26F9		BNE	AD38F
D396 7ED4BF		JMP	AD4BF
		* ------------------- *
D399 C60B	AD399	LDAB	#11
D39B B7102A		STAA	SPDR            ;out 0
D39E 1C0208		BSET	2,X,#8
D3A1 1D0208		BCLR	2,X,#8
D3A4 01 		NOP
D3A5 B6102A		LDAA	SPDR
D3A8 B7609B		STAA	Y609B
D3AB B11029		CMPA	Y1029           ;Serial Peripheral Status
D3AE 96CD		LDAA	Y00CD
D3B0 1F000806	AD3B0	BRCLR	,X,#8,AD3BA
D3B4 5A 		DECB
D3B5 26F9		BNE	AD3B0
D3B7 7ED4BF		JMP	AD4BF
		* ------------------- *
D3BA C60B	AD3BA	LDAB	#$0B
D3BC B7102A		STAA	SPDR
D3BF 1C0208		BSET	2,X,#8
D3C2 1D0208		BCLR	2,X,#8
D3C5 01 		NOP
D3C6 B6102A		LDAA	SPDR
D3C9 B7609C		STAA	Y609C
D3CC B11029		CMPA	Y1029           ;Serial Peripheral Status
D3CF 8600		LDAA	#0
D3D1 1F000806	AD3D1	BRCLR	,X,#8,AD3DB
D3D5 5A 		DECB
D3D6 26F9		BNE	AD3D1
D3D8 7ED4BF		JMP	AD4BF
		* ------------------- *
D3DB C60B	AD3DB	LDAB	#$0B
D3DD B7102A		STAA	SPDR           ;out 0
D3E0 1C0208		BSET	2,X,#8
D3E3 1D0208		BCLR	2,X,#8
D3E6 01 		NOP
D3E7 B6102A		LDAA	SPDR
D3EA B7609D		STAA	Y609D
D3ED B11029		CMPA	Y1029           ;Serial Peripheral Status
D3F0 B66099		LDAA	Y6099
D3F3 1F000806	AD3F3	BRCLR	,X,#8,AD3FD
D3F7 5A 		DECB
D3F8 26F9		BNE	AD3F3
D3FA 7ED4BF		JMP	AD4BF
		* ------------------- *
D3FD C60B	AD3FD	LDAB	#$0B
D3FF B7102A		STAA	SPDR
D402 1C0208		BSET	2,X,#8
D405 1D0208		BCLR	2,X,#8
D408 01 		NOP
D409 181E298006	AD409	BRSET	$29,Y,#$80,AD414
D40E 5A 		DECB
D40F 26F8		BNE	AD409
D411 7ED4BF		JMP	AD4BF
		* ------------------- *
D414 B6102A	AD414	LDAA	SPDR
D417 181C0820		BSET	8,Y,#$20
D41B 0E 		CLI
D41C F6609A		LDAB	Y609A
D41F FB609B		ADDB	Y609B
D422 FB609C		ADDB	Y609C
D425 FB609D		ADDB	Y609D
D428 11 		CBA
D429 2703		BEQ	AD42E
D42B 7ED4BA		JMP	AD4BA
		* ------------------- *
D42E B6609B	AD42E	LDAA	Y609B
D431 1327C022		BRCLR	$27,#$C0,AD457
D435 F68011		LDAB	D8011
D438 2702		BEQ	AD43C
D43A 8802		EORA	#2
D43C 8880	AD43C	EORA	#$80
D43E 9761		STAA	Y0061
D440 1361400E		BRCLR	$61,#$40,AD452
D444 13618005		BRCLR	$61,#$80,AD44D
D448 142520		BSET	$25,#$20
D44B 2018		BRA	AD465
		* ------------------- *
D44D 152520	AD44D	BCLR	$25,#$20
D450 2013		BRA	AD465
		* ------------------- *
D452 142520	AD452	BSET	$25,#$20
D455 200E		BRA	AD465
		* ------------------- *
D457 9761	AD457	STAA	Y0061
D459 13618005		BRCLR	$61,#$80,AD462
D45D 142520		BSET	$25,#$20
D460 2003		BRA	AD465
		* ------------------- *
D462 152520	AD462	BCLR	$25,#$20
D465 13308052	AD465	BRCLR	$30,#$80,AD4BB
D469 B6609D		LDAA	Y609D
D46C B489DC		ANDA	D89DC
D46F CED25B		LDX	#TD25B
D472 D645		LDAB	Y0045           ;#subr
D474 C407		ANDB	#7
D476 3A 		ABX
D477 A500		BITA	,X
D479 273F		BEQ	AD4BA
D47B B66080		LDAA	Y6080
D47E 263A		BNE	AD4BA
D480 B66000		LDAA	Y6000
D483 8540		BITA	#$40
D485 2633		BNE	AD4BA
D487 965B		LDAA	Y005B           ;BATT_V
D489 81A0		CMPA	#$A0
D48B 252D		BCS	AD4BA
D48D A608		LDAA	8,X
D48F C6A0		LDAB	#$A0
D491 810C		CMPA	#$0C
D493 2712		BEQ	AD4A7
D495 8119		CMPA	#$19
D497 261C		BNE	AD4B5
D499 12D6801D		BRSET	Y00D6,#$80,AD4BA
D49D BDD163		JSR	AD163		;error  xxA0
D4A0 2418		BCC	AD4BA
D4A2 14D680		BSET	Y00D6,#$80
D4A5 2013		BRA	AD4BA
		* ------------------- *
D4A7 12D7800F	AD4A7	BRSET	$D7,#$80,AD4BA
D4AB BDD163		JSR	AD163           ;error  xxA0
D4AE 240A		BCC	AD4BA
D4B0 14D780		BSET	$D7,#$80
D4B3 2005		BRA	AD4BA
		* ------------------- *
D4B5 C620	AD4B5	LDAB	#$20
D4B7 BDD163		JSR	AD163		;error xx20
D4BA 39 	AD4BA	RTS
		* ------------------- *
D4BB 143080	AD4BB	BSET	$30,#$80
D4BE 39 		RTS
		* ------------------- *
D4BF 181C0820	AD4BF	BSET	8,Y,#$20
D4C3 0E 		CLI
D4C4 9626		LDAA	Y0026
D4C6 8560		BITA	#$60
D4C8 261A		BNE	AD4E4
D4CA B6103B		LDAA	PPROG
D4CD 8502		BITA	#2		;mode  prg
D4CF 2613		BNE	AD4E4           ;yes,skip
D4D1 CCB618		LDD	#EEPROM+$18
D4D4 17 		TBA
D4D5 F6B618		LDAB	EEPROM+$18
D4D8 270A		BEQ	AD4E4
D4DA 5A 		DECB
D4DB B760B0		STAA	Y60B0           ;offset_prg_eepr
D4DE F760B1		STAB	Y60B1           ;data_eepr
D4E1 142640		BSET	$26,#$40        ;requst prg
D4E4 CC4488	AD4E4	LDD	#$4488
D4E7 BDD163		JSR	AD163           ;error  4488
D4EA 2413		BCC	AD4FF
D4EC 0F 		SEI
D4ED B66000		LDAA	Y6000
D4F0 84FE		ANDA	#$FE
D4F2 B76000		STAA	Y6000
D4F5 C603		LDAB	#3
D4F7 5A 	AD4F7	DECB
D4F8 26FD		BNE	AD4F7
D4FA 8A01		ORAA	#1
D4FC B76000		STAA	Y6000
D4FF 0E 	AD4FF	CLI
D500 39 		RTS
		* ------------------- *
D501 96F3	AD501	LDAA	Y00F3
D503 2A13		BPL	AD518
D505 847F		ANDA	#$7F
D507 97F3		STAA	Y00F3
D509 CC26A8		LDD	#$26A8
D50C 12D58008		BRSET	$D5,#$80,AD518
D510 BDD163		JSR	AD163		;error   26A8
D513 2403		BCC	AD518
D515 14D580		BSET	$D5,#$80
D518 39 	AD518	RTS
		* ------------------- *
D519 C640	AD519	LDAB	#$40
D51B 1220401A		BRSET	$20,#$40,AD539
D51F 96D8		LDAA	Y00D8		;cmd_serial
D521 810A		CMPA	#$0A
D523 2603		BNE	AD528
D525 7ED055		JMP	AD055
		* ------------------- *
D528 8118	AD528	CMPA	#$18
D52A 2607		BNE	AD533
D52C 9645		LDAA	Y0045           ;#subr
D52E 48 		ASLA
D52F 2B2C		BMI	AD55D
D531 2029		BRA	AD55C
		* ------------------- *
D533 12260426	AD533	BRSET	$26,#4,AD55D
D537 2023		BRA	AD55C
		* ------------------- *
D539 DE44	AD539	LDX	Y0044
D53B 8C0003		CPX	#$0003
D53E 231D		BLS	AD55D
D540 1505C0		BCLR	Y0005,#$C0	;clear
D543 13CD4015		BRCLR	$CD,#$40,AD55C
D547 96D5		LDAA	Y00D5
D549 B589DE		BITA	D89DE
D54C 260E		BNE	AD55C
D54E 96D6		LDAA	Y00D6     ;error_bit
D550 B589DF		BITA	D89DF
D553 2607		BNE	AD55C
D555 96D7		LDAA	Y00D7
D557 B589E0		BITA	D89E0
D55A 2701		BEQ	AD55D
D55C 5F 	AD55C	CLRB
D55D 86BF	AD55D	LDAA	#$BF
D55F 94CD		ANDA	Y00CD
D561 1B 		ABA
D562 97CD		STAA	Y00CD
D564 39 		RTS
		* ------------------- *
D565 9627	AD565	LDAA	Y0027
D567 85C0		BITA	#$C0
D569 2746		BEQ	AD5B1
D56B 12204006		BRSET	$20,#$40,AD575
D56F 12260436		BRSET	$26,#4,AD5A9
D573 2039		BRA	AD5AE
		* ------------------- *
D575 12D52035	AD575	BRSET	$D5,#$20,AD5AE
D579 9645		LDAA	Y0045           ;#subr
D57B 853C		BITA	#$3C
D57D 2626		BNE	AD5A5
D57F 9664		LDAA	Y0064
D581 905B		SUBA	Y005B           ;BATT_V
D583 2519		BCS	AD59E
D585 8111		CMPA	#$11
D587 2515		BCS	AD59E
D589 DC46		LDD	T_RPM
D58B 1A832EE0		CPD	#$2EE0
D58F 2510		BCS	AD5A1
D591 B660B8		LDAA	Y60B8
D594 4C 		INCA
D595 8156		CMPA	#$56
D597 2509		BCS	AD5A2
D599 143020		BSET	$30,#$20
D59C 2010		BRA	AD5AE
		* ------------------- *
D59E 153020	AD59E	BCLR	$30,#$20
D5A1 4F 	AD5A1	CLRA
D5A2 B760B8	AD5A2	STAA	Y60B8
D5A5 12302005	AD5A5	BRSET	$30,#$20,AD5AE
D5A9 14CE04	AD5A9	BSET	$CE,#4
D5AC 2003		BRA	AD5B1
		* ------------------- *
D5AE 15CE04	AD5AE	BCLR	$CE,#4
D5B1 39 	AD5B1	RTS
		* ------------------- *
D5B2 DCDC	AD5B2	LDD	Y00DC
D5B4 4D 		TSTA
D5B5 2708		BEQ	AD5BF
D5B7 7A00DE		DEC	Y00DE
D5BA 2603		BNE	AD5BF
D5BC 7F00DC		CLR	Y00DC
D5BF 5D 	AD5BF	TSTB
D5C0 2708		BEQ	AD5CA
D5C2 7A00DF		DEC	Y00DF
D5C5 2603		BNE	AD5CA
D5C7 7F00DD		CLR	Y00DD
D5CA B660B5	AD5CA	LDAA	Y60B5
D5CD 270A		BEQ	AD5D9
D5CF 8010		SUBA	#$10
D5D1 85F0		BITA	#$F0
D5D3 2601		BNE	AD5D6
D5D5 4F 		CLRA
D5D6 B760B5	AD5D6	STAA	Y60B5
D5D9 39 	AD5D9	RTS
		* ------------------- *
D5DA 13204035	AD5DA	BRCLR	$20,#$40,AD613
D5DE 12280431		BRSET	$28,#4,AD613
D5E2 1226402D		BRSET	$26,#$40,AD613
D5E6 142804		BSET	$28,#4
D5E9 131CFF1F		BRCLR	$1C,#$FF,AD60C
D5ED 961D		LDAA	Y001D
D5EF 8132		CMPA	#$32
D5F1 2503		BCS	AD5F6
D5F3 7ECAD1		JMP	ACAD1		;clear all errors
		* ------------------- *
D5F6 961A	AD5F6	LDAA	Y001A
D5F8 2707		BEQ	AD601
D5FA 961F		LDAA	Y001F
D5FC 4C 		INCA
D5FD 2702		BEQ	AD601
D5FF 971F		STAA	Y001F
D601 961B	AD601	LDAA	Y001B
D603 2707		BEQ	AD60C
D605 961E		LDAA	Y001E
D607 4C 		INCA
D608 2702		BEQ	AD60C
D60A 971E		STAA	Y001E
D60C 961D	AD60C	LDAA	Y001D
D60E 4C 		INCA
D60F 2702		BEQ	AD613
D611 971D		STAA	Y001D
D613 39 	AD613	RTS
		* ------------------- *
D614 840F	AD614	ANDA	#$0F
D616 F660B5		LDAB	Y60B5
D619 2708		BEQ	AD623
D61B C40F		ANDB	#$0F
D61D 11 		CBA
D61E 260A		BNE	AD62A
D620 B660B5		LDAA	Y60B5
D623 8B10	AD623	ADDA	#$10
D625 2504		BCS	AD62B
D627 B760B5		STAA	Y60B5
D62A 39 	AD62A	RTS
		* ------------------- *
D62B C601	AD62B	LDAB	#1
D62D 4A 	AD62D	DECA
D62E 2703		BEQ	AD633
D630 58 		ASLB
D631 20FA		BRA	AD62D
		* ------------------- *
D633 7F60B5	AD633	CLR	Y60B5
D636 53 		COMB
D637 0F 		SEI
D638 D4D5		ANDB	Y00D5
D63A D7D5		STAB	Y00D5
D63C 0E 		CLI
D63D 39 		RTS
		* ------------------- *
D63E D646	AD63E	LDAB	T_RPM
D640 C17D		CMPB	#$7D
D642 8600		LDAA	#0
D644 2416		BCC	AD65C
D646 C010		SUBB	#$10
D648 2401		BCC	AD64B
D64A 5F 		CLRB
D64B 8629	AD64B	LDAA	#$29
D64D 3D 		MUL
D64E 05 		ASLD
D64F 58 		ASLB
D650 9906		ADCA	Y0006
D652 16 		TAB
D653 9651		LDAA	Y0051
D655 BB8A3E		ADDA	D8A3E
D658 10 		SBA
D659 2401		BCC	AD65C
D65B 4F 		CLRA
D65C CE8A2A	AD65C	LDX	#T8A2A
D65F BDE3AC		JSR	AE3AC
D662 BB8A3D		ADDA	D8A3D
D665 2402		BCC	AD669
D667 86FF		LDAA	#$FF
D669 39 	AD669	RTS
		* ------------------- *
D66A 13050136	AD66A	BRCLR	Y0005,#1,AD6A4
D66E D65B		LDAB	Y005B           ;BATT_V
D670 F189E8		CMPB	D89E8   	;12.1v
D673 2520		BCS	AD695           ;  error
D675 F189E7		CMPB	D89E7		;18.9v
D678 241B		BCC	AD695           ;  error
D67A 96EA		LDAA	Y00EA           ; MAP
D67C 90EB		SUBA	Y00EB
D67E 2315		BLS	AD695
D680 B189E6		CMPA	D89E6
D683 2510		BCS	AD695
D685 0F 		SEI
D686 B61030	AD686	LDAA	Y1030           ;ADCTL
D689 2AFB		BPL	AD686
D68B B61031		LDAA	Y1031           ;ADC0/ADC4
D68E 97EA		STAA	Y00EA           ;MAP
D690 97EB		STAA	Y00EB           ;MAP
D692 0E 		CLI
D693 2009		BRA	AD69E
		* ------------------- *
D695 B660B9	AD695	LDAA	Y60B9
D698 84E0		ANDA	#$E0
D69A 81E0		CMPA	#$E0
D69C 2606		BNE	AD6A4
D69E CC2828	AD69E	LDD	#$2828
D6A1 BDD163		JSR	AD163		;error   2828
D6A4 123A8018	AD6A4	BRSET	$3A,#$80,AD6C0
D6A8 B660B9		LDAA	Y60B9
D6AB 841F		ANDA	#$1F
D6AD 811F		CMPA	#$1F
D6AF 260F		BNE	AD6C0
D6B1 12D7400B		BRSET	$D7,#$40,AD6C0
D6B5 CC0181		LDD	#$0181
D6B8 BDD163		JSR	AD163           ;error  0181
D6BB 2403		BCC	AD6C0
D6BD 14D740		BSET	$D7,#$40
D6C0 39 	AD6C0	RTS
		* ------------------- *
D6C1 13204044	AD6C1	BRCLR	$20,#$40,AD709
D6C5 DC44		LDD	Y0044
D6C7 810B		CMPA	#$0B
D6C9 253E		BCS	AD709
D6CB 9654		LDAA	Y0054
D6CD B189FC		CMPA	D89FC
D6D0 2537		BCS	AD709
D6D2 C51F		BITB	#$1F
D6D4 2633		BNE	AD709
D6D6 12270104		BRSET	$27,#1,AD6DE
D6DA 1325102B		BRCLR	$25,#$10,AD709
D6DE 12612027	AD6DE	BRSET	$61,#$20,AD709
D6E2 13228023		BRCLR	$22,#$80,AD709
D6E6 9646		LDAA	T_RPM
D6E8 B189FA		CMPA	D89FA
D6EB 251C		BCS	AD709
D6ED 964F		LDAA	Y004F
D6EF B189FB		CMPA	D89FB
D6F2 2415		BCC	AD709
D6F4 965F		LDAA	Y005F
D6F6 8102		CMPA	#2
D6F8 240F		BCC	AD709
D6FA 12D6100B		BRSET	Y00D6,#$10,AD709
D6FE CC23A0		LDD	#$23A0
D701 BDD163		JSR	AD163		;error 23A0
D704 2403		BCC	AD709
D706 14D610		BSET	Y00D6,#$10
D709 39 	AD709	RTS
		* ------------------- *
D70A B66000	AD70A	LDAA	Y6000
D70D 8540		BITA	#$40
D70F 2701		BEQ	AD712
D711 39 		RTS
		* ------------------- *
D712 12204003	AD712	BRSET	$20,#$40,AD719
D716 7ED75C		JMP	AD75C
		* ------------------- *
D719 9644	AD719	LDAA	Y0044
D71B 812C		CMPA	#$2C
D71D 253D		BCS	AD75C
D71F 9654		LDAA	Y0054
D721 81CD		CMPA	#$CD
D723 2537		BCS	AD75C
D725 132E0438		BRCLR	$2E,#4,AD761
D729 96F1		LDAA	Y00F1
D72B 8113		CMPA	#$13
D72D 2528		BCS	AD757
D72F 9653		LDAA	Y0053           ;O2_DATA
D731 814D		CMPA	#$4D
D733 2527		BCS	AD75C
D735 96F2		LDAA	Y00F2            ;cnt_O2
D737 812A		CMPA	#$2A             ;42
D739 2511		BCS	AD74C
D73B 12D7020B		BRSET	$D7,#2,AD74A
D73F CC2081		LDD	#$2081
D742 BDD163		JSR	AD163		;error  2081
D745 2473		BCC	AD7BA
D747 14D702		BSET	$D7,#2
D74A 206E	AD74A	BRA	AD7BA
		* ------------------- *
D74C D645	AD74C	LDAB	Y0045           ;#subr
D74E C57F		BITB	#$7F
D750 2668		BNE	AD7BA
D752 4C 		INCA
D753 97F2		STAA	Y00F2
D755 2063		BRA	AD7BA
		* ------------------- *
D757 4C 	AD757	INCA
D758 97F1		STAA	Y00F1
D75A 205E		BRA	AD7BA
		* ------------------- *
D75C 152E04	AD75C	BCLR	$2E,#4
D75F 2030		BRA	AD791
		* ------------------- *
D761 9653	AD761	LDAA	Y0053           ;O2_DATA
D763 B189F7		CMPA	D89F7
D766 2229		BHI	AD791
D768 B189F8		CMPA	D89F8
D76B 2524		BCS	AD791
D76D 96F2		LDAA	Y00F2
D76F 8115		CMPA	#$15
D771 2515		BCS	AD788
D773 142E04		BSET	$2E,#4
D776 4F 		CLRA
D777 97F2		STAA	Y00F2
D779 97F1		STAA	Y00F1
D77B 0F 		SEI
D77C 96CF		LDAA	Y00CF
D77E 8A08		ORAA	#8
D780 97CF		STAA	Y00CF
D782 B76040		STAA	Y6040
D785 0E 		CLI
D786 2032		BRA	AD7BA
		* ------------------- *
D788 D645	AD788	LDAB	Y0045           ;#subr
D78A C57F		BITB	#$7F
D78C 2606		BNE	AD794
D78E 4C 		INCA
D78F 2001		BRA	AD792
		* ------------------- *
D791 4F 	AD791	CLRA
D792 97F2	AD792	STAA	Y00F2
D794 0F 	AD794	SEI
D795 96CF		LDAA	Y00CF
D797 84F7		ANDA	#$F7
D799 97CF		STAA	Y00CF
D79B B76040		STAA	Y6040
D79E 0E 		CLI
D79F 9645		LDAA	Y0045           ;#subr
D7A1 850F		BITA	#$0F
D7A3 2615		BNE	AD7BA
D7A5 12D70411		BRSET	$D7,#4,AD7BA
D7A9 9653		LDAA	Y0053           ;O2_DATA
D7AB 813E		CMPA	#$3E
D7AD 230B		BLS	AD7BA
D7AF CC3E8F		LDD	#$3E8F
D7B2 BDD163		JSR	AD163		;error  3E8F
D7B5 2403		BCC	AD7BA
D7B7 14D704		BSET	$D7,#4
D7BA 39 	AD7BA	RTS
		* ------------------- *
D7BB 96E0	AD7BB	LDAA	Y00E0
D7BD 810D		CMPA	#$0D
D7BF 2731		BEQ	AD7F2
D7C1 12D7102D		BRSET	$D7,#$10,AD7F2
D7C5 0F 		SEI
D7C6 B66000		LDAA	Y6000
D7C9 8510		BITA	#$10
D7CB 2725		BEQ	AD7F2
D7CD 8540		BITA	#$40
D7CF 2621		BNE	AD7F2
D7D1 12CE101D		BRSET	$CE,#$10,AD7F2
D7D5 132E2013		BRCLR	$2E,#$20,AD7EC
D7D9 44 		LSRA
D7DA 9824		EORA	Y0024
D7DC 8502		BITA	#2
D7DE 0E 		CLI
D7DF 270B		BEQ	AD7EC
D7E1 CC0BA0		LDD	#$0BA0
D7E4 BDD163		JSR	AD163		;error  0BA0
D7E7 2403		BCC	AD7EC
D7E9 14D710		BSET	$D7,#$10
D7EC 0E 	AD7EC	CLI
D7ED 142E20		BSET	$2E,#$20
D7F0 2004		BRA	AD7F6
		* ------------------- *
D7F2 0E 	AD7F2	CLI
D7F3 152E20		BCLR	$2E,#$20
D7F6 39 	AD7F6	RTS
		* ------------------- *
D7F7 132E0222	AD7F7	BRCLR	$2E,#2,AD81D
D7FB 965B		LDAA	Y005B           ;BATT_V
D7FD 8182		CMPA	#$82
D7FF 251B		BCS	AD81C
D801 9645		LDAA	Y0045           ;#subr
D803 8504		BITA	#4
D805 2615		BNE	AD81C
D807 9635		LDAA	Y0035
D809 2611		BNE	AD81C
D80B 1236800D		BRSET	$36,#$80,AD81C
D80F B66000		LDAA	Y6000
D812 8550		BITA	#$50
D814 2606		BNE	AD81C
D816 CC2C14		LDD	#$2C14
D819 BDD163		JSR	AD163		;error  2C14
D81C 39 	AD81C	RTS
		* ------------------- *
D81D 142E02	AD81D	BSET	$2E,#2
D820 39 		RTS
		* ------------------- *
D821 0F 	AD821	SEI
D822 B61030	AD822	LDAA	Y1030           ;ADCTL
D825 2AFB		BPL	AD822
D827 B61031		LDAA	Y1031           ;ADC0/ADC4
D82A 91EA		CMPA	Y00EA           ;MAP
D82C 2502		BCS	AD830
D82E 97EA		STAA	Y00EA           ;MAP
D830 91EB	AD830	CMPA	Y00EB
D832 2402		BCC	AD836
D834 97EB		STAA	Y00EB           ;MAP
D836 0E 	AD836	CLI
D837 39 		RTS
		* ------------------- *
D838 96ED	AD838	LDAA	Y00ED
D83A 840F		ANDA	#$0F
D83C 4C 		INCA
D83D B18A0E		CMPA	D8A0E
D840 2406		BCC	AD848
D842 7C00ED		INC	Y00ED
D845 7ED8C6		JMP	AD8C6
		* ------------------- *
D848 96ED	AD848	LDAA	Y00ED
D84A 84F0		ANDA	#$F0
D84C 97ED		STAA	Y00ED
D84E 96EA		LDAA	Y00EA           ;old MAP1
D850 90EB		SUBA	Y00EB           ;old MAP
D852 F61031		LDAB	Y1031           ;ADC0/ADC4
D855 D7EA		STAB	Y00EA           ;new MAP
D857 D7EB		STAB	Y00EB           ;new MAP
D859 12D58027		BRSET	$D5,#$80,AD884
D85D B18A0C		CMPA	D8A0C        	;dif_map  1
D860 2464		BCC	AD8C6		;exit
D862 DC46		LDD	T_RPM
D864 1AB38A1F		CPD	D8A1F           ;rpm <
D868 255C		BCS	AD8C6		;exit
D86A 1AB38A21		CPD	D8A21           ;rpm >
D86E 2456		BCC	AD8C6
D870 96EA		LDAA	Y00EA		;map
D872 B18A23		CMPA	D8A23           ;map < 18
D875 254F		BCS	AD8C6           ;exit
D877 B18A24		CMPA	D8A24           ;map > 247
D87A 244A		BCC	AD8C6           ;exit
D87C 96F3		LDAA	Y00F3
D87E 8A80		ORAA	#$80
D880 97F3		STAA	Y00F3
D882 2042		BRA	AD8C6           ;exit
		* ------------------- *
D884 D6ED	AD884	LDAB	Y00ED
D886 CB10		ADDB	#$10
D888 2402		BCC	AD88C
D88A CAF0		ORAB	#$F0
D88C D7ED	AD88C	STAB	Y00ED
D88E B08A0C		SUBA	D8A0C
D891 2533		BCS	AD8C6           ;exit
D893 B18A0D		CMPA	D8A0D
D896 252E		BCS	AD8C6           ;exit
D898 965F		LDAA	Y005F
D89A 2612		BNE	AD8AE
D89C 1222800E		BRSET	$22,#$80,AD8AE
D8A0 DC46		LDD	T_RPM
D8A2 936D		SUBD	Y006D
D8A4 2402		BCC	AD8A8
D8A6 43 		COMA
D8A7 53 		COMB
D8A8 1AB38A25	AD8A8	CPD	D8A25
D8AC 2518		BCS	AD8C6           ;exit
D8AE F68A0E	AD8AE	LDAB	D8A0E
D8B1 CE8A0F		LDX	#T8A0F
D8B4 3A 		ABX
D8B5 A600		LDAA	,X
D8B7 91ED		CMPA	Y00ED
D8B9 220B		BHI	AD8C6
D8BB 8608		LDAA	#8
D8BD BDD614		JSR	AD614
D8C0 96ED		LDAA	Y00ED
D8C2 840F		ANDA	#$0F
D8C4 97ED		STAA	Y00ED
D8C6 39 	AD8C6	RTS
		* ------------------- *
D8C7 9645	AD8C7	LDAA	Y0045           ;#subr
D8C9 8507		BITA	#7
D8CB 2653		BNE	AD920
D8CD 12D58037		BRSET	$D5,#$80,AD908
D8D1 7D005F		TST	Y005F
D8D4 2632		BNE	AD908
D8D6 1222802E		BRSET	$22,#$80,AD908
D8DA DC46		LDD	T_RPM
D8DC 936D		SUBD	Y006D
D8DE 2402		BCC	AD8E2
D8E0 43 		COMA
D8E1 53 		COMB
D8E2 1AB38A25	AD8E2	CPD	D8A25
D8E6 2420		BCC	AD908
D8E8 960D		LDAA	Y000D
D8EA 9050		SUBA	Y0050           ;MAP_DATA
D8EC 250F		BCS	AD8FD
D8EE D60D		LDAB	Y000D
D8F0 CE8A28		LDX	#T8A28
D8F3 F18A27		CMPB	D8A27
D8F6 2401		BCC	AD8F9
D8F8 08 		INX
D8F9 A100	AD8F9	CMPA	,X
D8FB 240B		BCC	AD908
D8FD CC2794	AD8FD	LDD	#$2794
D900 BDD163		JSR	AD163		;error  2794
D903 2403		BCC	AD908
D905 14D580		BSET	$D5,#$80
D908 132E8016	AD908	BRCLR	$2E,#$80,AD922
D90C 0F 		SEI
D90D B61030	AD90D	LDAA	Y1030           ;ADCTL
D910 2AFB		BPL	AD90D
		;-----------------------------------
D912 B61031		LDAA	Y1031           ;ADC0/ADC4
D915 0E 		CLI
D916 B18A0B		CMPA	D8A0B		; 102
D919 2541		BCS	AD95C
D91B B18A0A		CMPA	D8A0A           ;max_map 253
D91E 2541		BCS	AD961
D920 203A	AD920	BRA	AD95C
		* ------------------- *
D922 DE46	AD922	LDX	T_RPM
D924 8C0C80		CPX	#$0C80
D927 2533		BCS	AD95C
D929 8C2EE0		CPX	#$2EE0
D92C 242E		BCC	AD95C
D92E 965C		LDAA	Y005C
D930 8132		CMPA	#$32
D932 2428		BCC	AD95C
D934 0F 		SEI
D935 B61030	AD935	LDAA	Y1030           ;ADCTL
D938 2AFB		BPL	AD935
D93A B61031		LDAA	Y1031           ;ADC0/ADC4
D93D 0E 		CLI
D93E B18A0A		CMPA	D8A0A           ;max_map 253
D941 240A		BCC	AD94D
D943 B18A09		CMPA	D8A09           ;min_map  2
D946 2415		BCC	AD95D           ;  okey
D948 CC2494		LDD	#$2494          ;if map <  min_map
D94B 2003		BRA	AD950
		* ------------------- *
D94D CC2594	AD94D	LDD	#$2594          ;if map <  min_map
D950 12D50808	AD950	BRSET	$D5,#8,AD95C
D954 BDD163		JSR	AD163		;error  2494 or 2594
D957 2403		BCC	AD95C
D959 14D508		BSET	$D5,#8
D95C 39 	AD95C	RTS
		* ------------------- *
D95D 13D508FB	AD95D	BRCLR	$D5,#8,AD95C
D961 8604	AD961	LDAA	#4
D963 BDD614		JSR	AD614
D966 12D508F2		BRSET	$D5,#8,AD95C
D96A 152E80		BCLR	$2E,#$80
D96D 20ED		BRA	AD95C
		* ------------------- *
D96F 9645	AD96F	LDAA	Y0045           ;#subr
D971 851F		BITA	#$1F            ;
D973 2621		BNE	AD996
D975 1320401D		BRCLR	$20,#$40,AD996
D979 965B		LDAA	Y005B           ;BATT_V
D97B 9064		SUBA	Y0064
D97D 2514		BCS	AD993
D97F 8110		CMPA	#$10
D981 2510		BCS	AD993
D983 12D5200F		BRSET	$D5,#$20,AD996
D987 CC06A0		LDD	#$06A0
D98A BDD163		JSR	AD163		;error  06A0
D98D 2407		BCC	AD996
D98F 14D520		BSET	$D5,#$20
D992 39 		RTS
		* ------------------- *
D993 15D520	AD993	BCLR	$D5,#$20
D996 39 	AD996	RTS
		* ------------------- *
D997 12D50231	AD997	BRSET	$D5,#2,AD9CC
D99B 9654		LDAA	Y0054
D99D B189E3		CMPA	D89E3
D9A0 2505		BCS	AD9A7
D9A2 142802		BSET	$28,#2
D9A5 2025		BRA	AD9CC
		* ------------------- *
D9A7 12280221	AD9A7	BRSET	$28,#2,AD9CC
D9AB 1320401D		BRCLR	$20,#$40,AD9CC
D9AF 9644		LDAA	Y0044
D9B1 81FF		CMPA	#$FF
D9B3 2617		BNE	AD9CC
D9B5 965F		LDAA	Y005F
D9B7 B189E4		CMPA	D89E4
D9BA 2510		BCS	AD9CC
D9BC F660B4		LDAB	Y60B4
D9BF F189E5		CMPB	D89E5
D9C2 2709		BEQ	AD9CD
D9C4 9645		LDAA	Y0045           ;#subr
D9C6 2604		BNE	AD9CC
D9C8 5C 		INCB
D9C9 F760B4		STAB	Y60B4
D9CC 39 	AD9CC	RTS
		* ------------------- *
D9CD CC2101	AD9CD	LDD	#$2101
D9D0 BDD163		JSR	AD163		;error  2101
D9D3 2403		BCC	AD9D8
D9D5 142802		BSET	$28,#2
D9D8 39 	AD9D8	RTS
		* ------------------- *
D9D9 122D082F	AD9D9	BRSET	$2D,#8,ADA0C
D9DD 132D042B		BRCLR	$2D,#4,ADA0C
D9E1 13204027		BRCLR	$20,#$40,ADA0C
D9E5 0F 		SEI
D9E6 9626		LDAA	Y0026
D9E8 8560		BITA	#$60
D9EA 261E		BNE	ADA0A
D9EC 142D08		BSET	$2D,#8
D9EF CEB613		LDX	#EEPROM+$13
D9F2 A600		LDAA	,X
D9F4 4C 		INCA
D9F5 2713		BEQ	ADA0A
D9F7 B18812		CMPA	D8812
D9FA 2503		BCS	AD9FF
D9FC 142D02		BSET	$2D,#2
D9FF B760B1	AD9FF	STAA	Y60B1           ;data_eepr
DA02 8613		LDAA	#$13
DA04 B760B0		STAA	Y60B0           ;offset_prg_eepr
DA07 142640		BSET	$26,#$40        ;requst prg
DA0A 0E 	ADA0A	CLI
DA0B 01 		NOP
DA0C 0F 	ADA0C	SEI
DA0D 1226407E		BRSET	$26,#$40,ADA8F
DA11 CEB616		LDX	#EEPROM+$16
DA14 132D1038		BRCLR	$2D,#$10,ADA50
DA18 122D0134		BRSET	$2D,#1,ADA50
DA1C 8616		LDAA	#$16
DA1E C64A		LDAB	#$4A
DA20 13262023		BRCLR	$26,#$20,ADA47
DA24 B160B0		CMPA	Y60B0           ;offset_prg_eepr
DA27 2717		BEQ	ADA40
DA29 4C 		INCA
DA2A B160B0		CMPA	Y60B0           ;offset_prg_eepr
DA2D 2621		BNE	ADA50
DA2F 142640		BSET	$26,#$40        ;requst prg
DA32 152620		BCLR	$26,#$20
DA35 142D01		BSET	$2D,#1
DA38 8613		LDAA	#$13
DA3A 5F 		CLRB
DA3B F760AF		STAB	Y60AF
DA3E 200A		BRA	ADA4A
		* ------------------- *
DA40 142640	ADA40	BSET	$26,#$40         ;requst prg
DA43 4C 		INCA
DA44 53 		COMB
DA45 2003		BRA	ADA4A
		* ------------------- *
DA47 142660	ADA47	BSET	$26,#$60
DA4A B760B0	ADA4A	STAA	Y60B0           ;offset_prg_eepr
DA4D F760B1		STAB	Y60B1           ;data_eepr
DA50 A601	ADA50	LDAA	1,X
DA52 43 		COMA
DA53 A100		CMPA	,X
DA55 2609		BNE	ADA60
DA57 814A		CMPA	#$4A
DA59 2605		BNE	ADA60
DA5B 142D04		BSET	$2D,#4
DA5E 2003		BRA	ADA63
		* ------------------- *
DA60 152D04	ADA60	BCLR	$2D,#4
DA63 0E 	ADA63	CLI
DA64 132D0228		BRCLR	$2D,#2,ADA90
DA68 0F 		SEI
DA69 12264022		BRSET	$26,#$40,ADA8F
DA6D 8616		LDAA	#$16
DA6F C6EE		LDAB	#$EE
DA71 13262011		BRCLR	$26,#$20,ADA86
DA75 B160B0		CMPA	Y60B0           ;offset_prg_eepr
DA78 2615		BNE	ADA8F
DA7A 4C 		INCA
DA7B 142640		BSET	$26,#$40        ;requst prg
DA7E 152620		BCLR	$26,#$20
DA81 152D02		BCLR	$2D,#2
DA84 2003		BRA	ADA89
		* ------------------- *
DA86 142660	ADA86	BSET	$26,#$60
DA89 B760B0	ADA89	STAA	Y60B0           ;offset_prg_eepr
DA8C F760B1		STAB	Y60B1           ;data_eepr
DA8F 0E 	ADA8F	CLI
DA90 39 	ADA90	RTS
		* ------------------- *
DA91 12212070	ADA91	BRSET	$21,#$20,ADB05
DA95 96D7		LDAA	Y00D7
DA97 8518		BITA	#$18
DA99 266A		BNE	ADB05
DA9B 9664		LDAA	Y0064
DA9D 0F 		SEI
DA9E F61030	ADA9E	LDAB	Y1030           ;ADCTL
DAA1 2AFB		BPL	ADA9E
DAA3 B01032		SUBA	Y1032           ;ADC1/ADC5
DAA6 0E 		CLI
DAA7 255C		BCS	ADB05
DAA9 B189EF		CMPA	D89EF
DAAC 2557		BCS	ADB05
DAAE DC46		LDD	T_RPM
DAB0 1AB389F0		CPD	D89F0
DAB4 254F		BCS	ADB05
DAB6 860F		LDAA	#$0F
DAB8 132E0101		BRCLR	$2E,#1,ADABD
DABC 4F 		CLRA
DABD 9445	ADABD	ANDA	Y0045           ;#subr
DABF 2616		BNE	ADAD7
DAC1 96F0		LDAA	Y00F0
DAC3 4C 		INCA
DAC4 2702		BEQ	ADAC8
DAC6 97F0		STAA	Y00F0
DAC8 122E010C	ADAC8	BRSET	$2E,#1,ADAD8
DACC B189F2		CMPA	D89F2
DACF 2506		BCS	ADAD7
DAD1 4F 		CLRA
DAD2 97F0		STAA	Y00F0
DAD4 142E01		BSET	$2E,#1
DAD7 39 	ADAD7	RTS
		* ------------------- *
DAD8 1221100C	ADAD8	BRSET	$21,#$10,ADAE8
DADC B189F3		CMPA	D89F3
DADF 25F6		BCS	ADAD7
DAE1 4F 		CLRA
DAE2 97F0		STAA	Y00F0
DAE4 142110		BSET	$21,#$10
DAE7 39 		RTS
		* ------------------- *
DAE8 B189F5	ADAE8	CMPA	D89F5
DAEB 25EA		BCS	ADAD7
DAED 4F 		CLRA
DAEE 97F0		STAA	Y00F0
DAF0 152110		BCLR	$21,#$10
DAF3 CC058A		LDD	#$058A
DAF6 BDD163		JSR	AD163		;error 058A
DAF9 24DC		BCC	ADAD7
DAFB 14D708		BSET	$D7,#8
DAFE 152E01		BCLR	$2E,#1
DB01 152130		BCLR	$21,#$30
DB04 39 		RTS
		* ------------------- *
DB05 4F 	ADB05	CLRA
DB06 97F0		STAA	Y00F0
DB08 152E01		BCLR	$2E,#1
DB0B 152130		BCLR	$21,#$30
DB0E 39 		RTS
		* ------------------- *
DB0F 18CE6085	ADB0F	LDY	#$6085
DB13 12DB8069		BRSET	Y00DB,#$80,ADB80   ;mode_serial = 3
DB17 13DB4065		BRCLR	Y00DB,#$40,ADB80   ;mode_serial = 2
DB1B B6102B		LDAA	BAUD
DB1E 8125		CMPA	#$25                ;skip  0010 0101
DB20 265D		BNE	ADB7F               ;skip
		;---------------------------
DB22 F6102F		LDAB	SCDR
DB25 B6102E		LDAA	SCSR
DB28 8520		BITA	#$20		;Test RDRF
DB2A 2758		BEQ	ADB84
DB2C 850E		BITA	#$0E            ;Test Error
DB2E 264B		BNE	ADB7B
DB30 181E00E06B		BRSET	,Y,#$E0,ADBA0
DB35 86F8		LDAA	#$F8
DB37 181E008016		BRSET	,Y,#$80,ADB52
DB3C 4A 		DECA
DB3D 181E006010		BRSET	,Y,#$60,ADB52
DB42 86F5		LDAA	#$F5
DB44 181E004009		BRSET	,Y,#$40,ADB52
DB49 86F3		LDAA	#$F3
DB4B 181E002002		BRSET	,Y,#$20,ADB52
DB50 8614		LDAA	#$14
DB52 11 	ADB52	CBA
DB53 262B		BNE	ADB80
DB55 B66085		LDAA	Y6085
DB58 8B20		ADDA	#$20
DB5A B76085		STAA	Y6085
DB5D 84E0		ANDA	#$E0
DB5F 81A0		CMPA	#$A0
DB61 2618		BNE	ADB7B
DB63 86E0		LDAA	#$E0
DB65 B76085		STAA	Y6085
DB68 8652		LDAA	#$52
DB6A 97D8		STAA	Y00D8         ;cmd_serial = 0x52
DB6C FC102E		LDD	SCSR
DB6F 86F8		LDAA	#$F8
DB71 F6102E		LDAB	SCSR
DB74 B7102F		STAA	SCDR
DB77 2002		BRA	ADB7B
		* ------------------- *
DB79 97D8	ADB79	STAA	Y00D8		;cmd_serial
DB7B FC102E	ADB7B	LDD	SCSR
DB7E 38 		PULX
DB7F 39 	ADB7F	RTS
		* ------------------- *
DB80 7F6085	ADB80	CLR	Y6085
DB83 39 		RTS
		* ------------------- *
DB84 181E00E007	ADB84	BRSET	,Y,#$E0,ADB90
DB89 181F00E0F2		BRCLR	,Y,#$E0,ADB80
DB8E 20EB		BRA	ADB7B
		* ------------------- *
DB90 96D8	ADB90	LDAA	Y00D8		;cmd_serial
DB92 4A 		DECA
DB93 8120		CMPA	#$20
DB95 26E2		BNE	ADB79
DB97 4F 		CLRA
DB98 97D8		STAA	Y00D8           ;clear cmd_serial
DB9A 97D9		STAA	Y00D9           ;first_data serial
DB9C 97DB		STAA	Y00DB		;clear mode_serial
DB9E 20DB		BRA	ADB7B
		* ------------------- *
DBA0 8628	ADBA0	LDAA	#$28
DBA2 97D8		STAA	Y00D8		;cmd_serial = 0x28
DBA4 181E000845		BRSET	,Y,#8,ADBEE
DBA9 181E001008		BRSET	,Y,#$10,ADBB6
DBAE 181C0010		BSET	,Y,#$10
DBB2 D7D9		STAB	Y00D9           ;first_data serial
DBB4 20C5		BRA	ADB7B
		* ------------------- *
DBB6 D1D9	ADBB6	CMPB	Y00D9           ;first_data serial
DBB8 2625		BNE	ADBDF
DBBA 181D0010		BCLR	,Y,#$10
DBBE 17 		TBA
DBBF F66085		LDAB	Y6085
DBC2 C407		ANDB	#7
DBC4 C104		CMPB	#4
DBC6 270C		BEQ	ADBD4
DBC8 CE6081		LDX	#$6081
DBCB 3A 		ABX
DBCC A700		STAA	,X
DBCE 7C6085		INC	Y6085
DBD1 7EDB7B		JMP	ADB7B
		* ------------------- *
DBD4 8112	ADBD4	CMPA	#$12
DBD6 2604		BNE	ADBDC
DBD8 181D0007		BCLR	,Y,#7
DBDC 7EDB7B	ADBDC	JMP	ADB7B
		* ------------------- *
DBDF 181C0008	ADBDF	BSET	,Y,#8
DBE3 C112		CMPB	#$12
DBE5 260B		BNE	ADBF2
DBE7 181C0010	ADBE7	BSET	,Y,#$10
DBEB 7EDB7B		JMP	ADB7B
		* ------------------- *
DBEE C112	ADBEE	CMPB	#$12
DBF0 2707		BEQ	ADBF9
DBF2 181D0010	ADBF2	BCLR	,Y,#$10
DBF6 7EDB7B		JMP	ADB7B
		* ------------------- *
DBF9 181F0010E9	ADBF9	BRCLR	,Y,#$10,ADBE7
DBFE 181D001F		BCLR	,Y,#$1F
DC02 20D8		BRA	ADBDC
		* ------------------- *
DC04 12DB4004	ADC04	BRSET	Y00DB,#$40,ADC0C      ;mode_serial
DC08 39 		RTS
		* ------------------- *
DC09 7EDDBC	ADC09	JMP	ADDBC		      ;Out_RS
		* ------------------- *
DC0C 12DB70F9	ADC0C	BRSET	Y00DB,#$70,ADC09      ;mode_serial
DC10 F6102F		LDAB	SCDR
DC13 B6102E		LDAA	SCSR
DC16 8520		BITA	#$20      	      ;RDRF
DC18 2601		BNE	ADC1B
DC1A 39 		RTS
		* ------------------- *
DC1B CE6086	ADC1B	LDX	#$6086
DC1E A600		LDAA	,X
DC20 8503		BITA	#3
DC22 2703		BEQ	ADC27
DC24 7EDC89		JMP	ADC89
		* ------------------- *
DC27 C1F8	ADC27	CMPB	#$F8
DC29 2407		BCC	ADC32
DC2B BDDDEA	ADC2B	JSR	ADDEA
DC2E BDDDC1		JSR	ADDC1		;stop serial_mode 2
DC31 39 		RTS
		* ------------------- *
DC32 4D 	ADC32	TSTA
DC33 2609		BNE	ADC3E
DC35 C1F8		CMPB	#$F8
DC37 26F2		BNE	ADC2B
DC39 8680		LDAA	#$80
DC3B 7EDDBA		JMP	ADDBA
		* ------------------- *
DC3E 8180	ADC3E	CMPA	#$80
DC40 2609		BNE	ADC4B
DC42 C1F9		CMPB	#$F9
DC44 26E5		BNE	ADC2B
DC46 86C0		LDAA	#$C0
DC48 7EDDBA		JMP	ADDBA
		* ------------------- *
DC4B 81C0	ADC4B	CMPA	#$C0
DC4D 2609		BNE	ADC58
DC4F C1FB		CMPB	#$FB
DC51 26D8		BNE	ADC2B
DC53 86E0		LDAA	#$E0
DC55 7EDDBA		JMP	ADDBA
		* ------------------- *
DC58 81E0	ADC58	CMPA	#$E0
DC5A 26CF		BNE	ADC2B
DC5C C1F8		CMPB	#$F8
DC5E 2605		BNE	ADC65
DC60 8602		LDAA	#2
DC62 7EDDBA		JMP	ADDBA
		* ------------------- *
DC65 C1F9	ADC65	CMPB	#$F9
DC67 2605		BNE	ADC6E
DC69 8601		LDAA	#1
DC6B 7EDDBA		JMP	ADDBA
		* ------------------- *
DC6E C1FB	ADC6E	CMPB	#$FB
DC70 26B9		BNE	ADC2B
DC72 18DE46		LDY	T_RPM
DC75 188C0100		CPY	#$0100
DC79 2205		BHI	ADC80
DC7B 8605		LDAA	#5
DC7D 7EDDBA		JMP	ADDBA
		* ------------------- *
DC80 CC0017	ADC80	LDD	#$0017
DC83 BDDDC1		JSR	ADDC1           ;stop serial_mode 2
DC86 7EDDBA		JMP	ADDBA
		* ------------------- *
DC89 8501	ADC89	BITA	#1
DC8B 2703		BEQ	ADC90
DC8D 7EDC9D		JMP	ADC9D
		* ------------------- *
DC90 7EDD4C	ADC90	JMP	ADD4C
		* ------------------- *
DC93 B6102E	ADC93	LDAA	SCSR
DC96 B6102F		LDAA	SCDR
DC99 F7102F		STAB	SCDR
DC9C 39 		RTS
		* ------------------- *
DC9D 48 	ADC9D	ASLA
DC9E 2554		BCS	ADCF4
DCA0 48 		ASLA
DCA1 2522		BCS	ADCC5
DCA3 48 		ASLA
DCA4 2514		BCS	ADCBA
DCA6 48 		ASLA
DCA7 2507		BCS	ADCB0
DCA9 F7608A		STAB	Y608A
DCAC 8610		LDAA	#$10
DCAE 203F		BRA	ADCEF
		* ------------------- *
DCB0 F76089	ADCB0	STAB	Y6089
DCB3 BDDDC7		JSR	ADDC7
DCB6 8620		LDAA	#$20
DCB8 2035		BRA	ADCEF
		* ------------------- *
DCBA 18FE6089	ADCBA	LDY	Y6089
DCBE 18E600		LDAB	,Y
DCC1 8640		LDAA	#$40
DCC3 202A		BRA	ADCEF
		* ------------------- *
DCC5 C1FE	ADCC5	CMPB	#$FE
DCC7 270D		BEQ	ADCD6
DCC9 BDDDC1	ADCC9	JSR	ADDC1           ;stop serial_mode 2
DCCC C11B		CMPB	#$1B
DCCE 2603		BNE	ADCD3
DCD0 14DB40		BSET	Y00DB,#$40	;mode_serial = 2
DCD3 7EDDBC	ADCD3	JMP	ADDBC           ;Out_RS
		* ------------------- *
DCD6 A600	ADCD6	LDAA	,X
DCD8 8504		BITA	#4
DCDA 2711		BEQ	ADCED
DCDC 18DE46		LDY	T_RPM
DCDF 188C0100		CPY	#$0100
DCE3 2508		BCS	ADCED
DCE5 C617		LDAB	#$17
DCE7 BDDDC1		JSR	ADDC1           ;stop serial_mode 2
DCEA 7EDDBC		JMP	ADDBC           ;Out_RS
		* ------------------- *
DCED 8680	ADCED	LDAA	#$80
DCEF AA00	ADCEF	ORAA	,X
DCF1 7EDDBA		JMP	ADDBA
		* ------------------- *
DCF4 0F 	ADCF4	SEI
DCF5 18FE6089		LDY	Y6089
DCF9 188C9400		CPY	#A9400
DCFD 240D		BCC	ADD0C
DCFF 18E700		STAB	,Y
DD02 18E600	ADD02	LDAB	,Y
DD05 BDDDC1		JSR	ADDC1           ;stop serial_mode 2
DD08 0E 		CLI
DD09 7EDDBC		JMP	ADDBC           ;Out_RS
		* ------------------- *
DD0C CE60D0	ADD0C	LDX	#$60D0
DD0F 18CEDD2F		LDY	#TDD2F
DD13 18A600	ADD13	LDAA	,Y
DD16 A700		STAA	,X
DD18 08 		INX
DD19 1808		INY
DD1B 188CDD4C		CPY	#ADD4C
DD1F 26F2		BNE	ADD13
DD21 CE60D0		LDX	#$60D0
DD24 18FE6089		LDY	Y6089
DD28 AD00		JSR	,X
		>> WARNING JSR INDX <<
DD2A CE6086		LDX	#$6086
DD2D 20D3		BRA	ADD02
		* ------------------- *
DD2F 86AA	TDD2F	LDAA	#$AA
DD31 B7D555		STAA	$D555
DD34 44 		LSRA
DD35 B7AAAA		STAA	$AAAA
DD38 86A0		LDAA	#$A0
DD3A B7D555		STAA	$D555
DD3D 18E700		STAB	,Y
DD40 CE0000		LDX	#$0000
DD43 18E100	ADD43	CMPB	,Y
DD46 2703		BEQ	ADD4B
DD48 09 		DEX
DD49 26F8		BNE	ADD43
DD4B 39 	ADD4B	RTS
		* ------------------- *
DD4C 48 	ADD4C	ASLA
DD4D 2539		BCS	ADD88
DD4F 48 		ASLA
DD50 2528		BCS	ADD7A
DD52 48 		ASLA
DD53 251B		BCS	ADD70
DD55 48 		ASLA
DD56 2511		BCS	ADD69
DD58 48 		ASLA
DD59 2507		BCS	ADD62
DD5B F76088		STAB	Y6088
DD5E 8608		LDAA	#8
DD60 2021		BRA	ADD83
		* ------------------- *
DD62 F76087	ADD62	STAB	Y6087
DD65 8610		LDAA	#$10
DD67 201A		BRA	ADD83
		* ------------------- *
DD69 F7608A	ADD69	STAB	Y608A
DD6C 8620		LDAA	#$20
DD6E 2013		BRA	ADD83
		* ------------------- *
DD70 F76089	ADD70	STAB	Y6089
DD73 BDDDC7		JSR	ADDC7
DD76 86C0		LDAA	#$C0
DD78 2009		BRA	ADD83
		* ------------------- *
DD7A C1FD	ADD7A	CMPB	#$FD
DD7C 2703		BEQ	ADD81
DD7E 7EDCC9		JMP	ADCC9
		* ------------------- *
DD81 8680	ADD81	LDAA	#$80
DD83 AA00	ADD83	ORAA	,X
DD85 7EDDBA		JMP	ADDBA
		* ------------------- *
DD88 FE6089	ADD88	LDX	Y6089
DD8B 18FE6087		LDY	Y6087
DD8F F6102F		LDAB	SCDR
DD92 A600		LDAA	,X
DD94 B7102F		STAA	SCDR
DD97 08 		INX
DD98 1809		DEY
DD9A 2608		BNE	ADDA4
DD9C CE6086		LDX	#$6086
DD9F BDDDC1		JSR	ADDC1           ;stop serial_mode 2
DDA2 38 		PULX
DDA3 39 		RTS
		* ------------------- *
DDA4 FF6089	ADDA4	STX	Y6089
DDA7 18FF6087		STY	Y6087
DDAB 11 		CBA
DDAC 2602		BNE	ADDB0
DDAE 38 		PULX
DDAF 39 		RTS
		* ------------------- *
DDB0 B66086	ADDB0	LDAA	Y6086
DDB3 847F		ANDA	#$7F
DDB5 B76086		STAA	Y6086
DDB8 38 		PULX
DDB9 39 		RTS
		* ------------------- *
DDBA A700	ADDBA	STAA	,X
DDBC BDDC93	ADDBC	JSR	ADC93      	;Out_RS
DDBF 38 		PULX
DDC0 39 		RTS
		* ------------------- *
DDC1 6F00	ADDC1	CLR	,X              ;stop serial_mode 2
DDC3 15DB40		BCLR	Y00DB,#$40	;mode_serial
DDC6 39 		RTS
		* ------------------- *
DDC7 3C 	ADDC7	PSHX
DDC8 FE6089		LDX	Y6089
DDCB 8C8000		CPX	#T8000
DDCE 250F		BCS	ADDDF
DDD0 8CFFFF		CPX	#$FFFF
DDD3 220A		BHI	ADDDF
DDD5 8CB600		CPX	#DB600		;EEPROM
DDD8 250E		BCS	ADDE8
DDDA 8CB800		CPX	#AB800
DDDD 2409		BCC	ADDE8
DDDF 38 	ADDDF	PULX
DDE0 CE6086		LDX	#$6086
DDE3 BDDDC1		JSR	ADDC1           ;stop serial_mode 2
DDE6 38 		PULX
DDE7 39 		RTS
		* ------------------- *
DDE8 38 	ADDE8	PULX
DDE9 39 		RTS
		* ------------------- *
DDEA C114	ADDEA	CMPB	#$14
DDEC 2701		BEQ	ADDEF
DDEE 39 		RTS
		* ------------------- *
DDEF 7F6086	ADDEF	CLR	Y6086
DDF2 C625		LDAB	#$25
DDF4 F7102B		STAB	BAUD           ;=0x25
DDF7 F66085		LDAB	Y6085
DDFA CB20		ADDB	#$20
DDFC F76085		STAB	Y6085
DDFF 14DB30		BSET	Y00DB,#$30    ;mode_serial
DE02 FC102E		LDD	SCSR	       ;clear status
DE05 38 		PULX
DE06 39 		RTS
		* ------------------- *
DE07 C693	ADE07	LDAB	#$93
DE09 B66099		LDAA	Y6099
DE0C 2602		BNE	ADE10
DE0E C680		LDAB	#$80
DE10 1B 	ADE10	ABA
DE11 BB609A		ADDA	Y609A
DE14 BB609B		ADDA	Y609B
DE17 B7609C		STAA	Y609C
DE1A 17 		TBA
DE1B C640		LDAB	#$40
DE1D 18CE1000		LDY	#$1000        	;base_register
DE21 CE6000		LDX	#$6000
DE24 0F 		SEI
DE25 1C0008		BSET	,X,#8
DE28 181D0820		BCLR	8,Y,#$20
DE2C F11029		CMPB	Y1029           ;Serial Peripheral Status
DE2F B7102A		STAA	SPDR
DE32 1C0208		BSET	2,X,#8
DE35 1D0208		BCLR	2,X,#8
DE38 01 		NOP
DE39 B6102A		LDAA	SPDR
DE3C B11029		CMPA	Y1029           ;Serial Peripheral Status
DE3F B66099		LDAA	Y6099
DE42 1F000806	ADE42	BRCLR	,X,#8,ADE4C
DE46 5A 		DECB
DE47 26F9		BNE	ADE42
DE49 7EDEE5		JMP	ADEE5
		* ------------------- *
DE4C B7102A	ADE4C	STAA	SPDR
DE4F 1C0208		BSET	2,X,#8
DE52 1D0208		BCLR	2,X,#8
DE55 01 		NOP
DE56 B6102A		LDAA	SPDR
DE59 B76099		STAA	Y6099
DE5C B11029		CMPA	Y1029           ;Serial Peripheral Status
DE5F B6609A		LDAA	Y609A
DE62 1F000806	ADE62	BRCLR	,X,#8,ADE6C
DE66 5A 		DECB
DE67 26F9		BNE	ADE62
DE69 7EDEE5		JMP	ADEE5
		* ------------------- *
DE6C B7102A	ADE6C	STAA	SPDR
DE6F 1C0208		BSET	2,X,#8
DE72 1D0208		BCLR	2,X,#8
DE75 01 		NOP
DE76 B6102A		LDAA	SPDR
DE79 B7609A		STAA	Y609A
DE7C B11029		CMPA	Y1029           ;Serial Peripheral Status
DE7F B6609B		LDAA	Y609B
DE82 1F000806	ADE82	BRCLR	,X,#8,ADE8C
DE86 5A 		DECB
DE87 26F9		BNE	ADE82
DE89 7EDEE5		JMP	ADEE5
		* ------------------- *
DE8C B7102A	ADE8C	STAA	SPDR
DE8F 1C0208		BSET	2,X,#8
DE92 1D0208		BCLR	2,X,#8
DE95 01 		NOP
DE96 B6102A		LDAA	SPDR
DE99 B7609B		STAA	Y609B
DE9C B11029		CMPA	Y1029           ;Serial Peripheral Status
DE9F B6609C		LDAA	Y609C
DEA2 1F000805	ADEA2	BRCLR	,X,#8,ADEAB
DEA6 5A 		DECB
DEA7 26F9		BNE	ADEA2
DEA9 203A		BRA	ADEE5
		* ------------------- *
DEAB B7102A	ADEAB	STAA	SPDR
DEAE 1C0208		BSET	2,X,#8
DEB1 1D0208		BCLR	2,X,#8
DEB4 01 		NOP
DEB5 181E298005	ADEB5	BRSET	$29,Y,#$80,ADEBF
DEBA 5A 		DECB
DEBB 26F8		BNE	ADEB5
DEBD 2026		BRA	ADEE5
		* ------------------- *
DEBF B6102A	ADEBF	LDAA	SPDR
DEC2 181C0820		BSET	8,Y,#$20
DEC6 0E 		CLI
DEC7 B06099		SUBA	Y6099
DECA B0609A		SUBA	Y609A
DECD B0609B		SUBA	Y609B
DED0 2615		BNE	ADEE7
DED2 B66099		LDAA	Y6099
DED5 840F		ANDA	#$0F
DED7 8101		CMPA	#1
DED9 260C		BNE	ADEE7
DEDB 14E140		BSET	$E1,#$40
DEDE 12F68005		BRSET	$F6,#$80,ADEE7
DEE2 14FB10		BSET	$FB,#$10
DEE5 01 	ADEE5	NOP
DEE6 0E 		CLI
DEE7 39 	ADEE7	RTS
		* ------------------- *
DEE8 D645	ADEE8	LDAB	Y0045           ;#subr
DEEA C40F		ANDB	#$0F
DEEC 263D		BNE	ADF2B
DEEE 12FB0820		BRSET	$FB,#8,ADF12
DEF2 9644		LDAA	Y0044
DEF4 8183		CMPA	#$83
DEF6 2530		BCS	ADF28
DEF8 9646		LDAA	T_RPM
DEFA 812F		CMPA	#$2F
DEFC 252A		BCS	ADF28
DEFE 965B		LDAA	Y005B           ;BATT_V
DF00 81BD		CMPA	#$BD
DF02 2424		BCC	ADF28
DF04 D6F5		LDAB	Y00F5
DF06 5C 		INCB
DF07 D7F5		STAB	Y00F5
DF09 C171		CMPB	#$71
DF0B 251E		BCS	ADF2B
DF0D 14FB08		BSET	$FB,#8
DF10 2016		BRA	ADF28
		* ------------------- *
DF12 9664	ADF12	LDAA	Y0064
DF14 905B		SUBA	Y005B           ;BATT_V
DF16 2504		BCS	ADF1C
DF18 8101		CMPA	#1
DF1A 220C		BHI	ADF28
DF1C D6F5	ADF1C	LDAB	Y00F5
DF1E 5C 		INCB
DF1F D7F5		STAB	Y00F5
DF21 C122		CMPB	#$22
DF23 2506		BCS	ADF2B
DF25 15FB08		BCLR	$FB,#8
DF28 4F 	ADF28	CLRA
DF29 97F5		STAA	Y00F5
DF2B 12450116	ADF2B	BRSET	$45,#1,ADF45
DF2F CEE16F		LDX	#TE16F
DF32 D6F7		LDAB	Y00F7
DF34 05 		ASLD
DF35 CB02		ADDB	#2
DF37 3A 		ABX
DF38 04 		LSRD
DF39 D7F7		STAB	Y00F7
DF3B EE00		LDX	,X
DF3D AD00		JSR	,X
		>> WARNING JSR INDX <<
DF3F FD609A		STD	Y609A
DF42 BDDE07		JSR	ADE07   	;OutPSER
DF45 B66080	ADF45	LDAA	Y6080
DF48 2608		BNE	ADF52
DF4A B68014		LDAA	D8014
DF4D 2704		BEQ	ADF53
DF4F 15E120		BCLR	$E1,#$20
DF52 39 	ADF52	RTS
		* ------------------- *
DF53 B6103B	ADF53	LDAA	PPROG
DF56 8502		BITA	#2		;mode Prg
DF58 260D		BNE	ADF67
DF5A 15FB20		BCLR	$FB,#$20
DF5D B6B612		LDAA	EEPROM+$12
DF60 8501		BITA	#1
DF62 2703		BEQ	ADF67
DF64 14FB20		BSET	$FB,#$20
DF67 9645	ADF67	LDAA	Y0045           ;#subr
DF69 8503		BITA	#3
DF6B 265F		BNE	ADFCC
DF6D 13E1401E		BRCLR	$E1,#$40,ADF8F
DF71 14E180		BSET	$E1,#$80
DF74 15E160		BCLR	$E1,#$60
DF77 15F67F		BCLR	$F6,#$7F
DF7A 12F6804E		BRSET	$F6,#$80,ADFCC
DF7E 9626		LDAA	Y0026
DF80 8560		BITA	#$60
DF82 2648		BNE	ADFCC
DF84 B6B612		LDAA	EEPROM+$12
DF87 8502		BITA	#2
DF89 2741		BEQ	ADFCC
DF8B 84FD		ANDA	#$FD
DF8D 2029		BRA	ADFB8
		* ------------------- *
DF8F 96F6	ADF8F	LDAA	Y00F6
DF91 847F		ANDA	#$7F
DF93 13E18006		BRCLR	$E1,#$80,ADF9D
DF97 8171		CMPA	#$71
DF99 240B		BCC	ADFA6
DF9B 2004		BRA	ADFA1
		* ------------------- *
DF9D 812D	ADF9D	CMPA	#$2D
DF9F 242B		BCC	ADFCC
DFA1 7C00F6	ADFA1	INC	Y00F6
DFA4 2026		BRA	ADFCC
		* ------------------- *
DFA6 9626	ADFA6	LDAA	Y0026
DFA8 8560		BITA	#$60
DFAA 2620		BNE	ADFCC
DFAC B6B612		LDAA	EEPROM+$12
DFAF 8502		BITA	#2
DFB1 2619		BNE	ADFCC
DFB3 14F680		BSET	$F6,#$80
DFB6 8A02		ORAA	#2
DFB8 0F 	ADFB8	SEI
DFB9 13264003		BRCLR	$26,#$40,ADFC0
DFBD 0E 		CLI
DFBE 200C		BRA	ADFCC
		* ------------------- *
DFC0 142640	ADFC0	BSET	$26,#$40        ;requst prg
DFC3 0E 		CLI
DFC4 B760B1		STAA	Y60B1           ;data_eepr
DFC7 8612		LDAA	#$12
DFC9 B760B0		STAA	Y60B0           ;offset_prg_eepr
DFCC 13E11010	ADFCC	BRCLR	$E1,#$10,ADFE0
DFD0 12E1800B		BRSET	$E1,#$80,ADFDF
DFD4 96F6		LDAA	Y00F6
DFD6 847F		ANDA	#$7F
DFD8 812D		CMPA	#$2D
DFDA 2503		BCS	ADFDF
DFDC 14E120		BSET	$E1,#$20
DFDF 39 	ADFDF	RTS
		* ------------------- *
DFE0 12E1104C	ADFE0	BRSET	$E1,#$10,AE030
DFE4 13204048		BRCLR	$20,#$40,AE030
DFE8 9626		LDAA	Y0026
DFEA 8560		BITA	#$60
DFEC 2642		BNE	AE030
DFEE B6B612		LDAA	EEPROM+$12
DFF1 8501		BITA	#1
DFF3 2606		BNE	ADFFB
DFF5 8502		BITA	#2
DFF7 2631		BNE	AE02A
DFF9 2032		BRA	AE02D
		* ------------------- *
DFFB 12E1800A	ADFFB	BRSET	$E1,#$80,AE009
DFFF 96F6		LDAA	Y00F6
E001 847F		ANDA	#$7F
E003 812D		CMPA	#$2D
E005 2529		BCS	AE030
E007 201E		BRA	AE027
		* ------------------- *
E009 0F 	AE009	SEI
E00A 13264003		BRCLR	$26,#$40,AE011
E00E 0E 		CLI
E00F 201F		BRA	AE030
		* ------------------- *
E011 142640	AE011	BSET	$26,#$40	;requst prg
E014 0E 		CLI
E015 8B04		ADDA	#4
E017 814C		CMPA	#$4C
E019 2502		BCS	AE01D
E01B 84FE		ANDA	#$FE
E01D 84FD	AE01D	ANDA	#$FD
E01F B760B1		STAA	Y60B1           ;data_eepr
E022 8612		LDAA	#$12
E024 B760B0		STAA	Y60B0           ;offset_prg_eepr
E027 14FB20	AE027	BSET	$FB,#$20
E02A 14E180	AE02A	BSET	$E1,#$80
E02D 14E110	AE02D	BSET	$E1,#$10
E030 39 	AE030	RTS
		* ------------------- *
E031 4F 	AE031	CLRA
E032 5F 		CLRB
E033 B76099		STAA	Y6099
E036 39 		RTS
		* ------------------- *
E037 86E4	AE037	LDAA	#$E4
E039 B76099		STAA	Y6099
E03C 9646		LDAA	T_RPM
E03E D650		LDAB	Y0050           ;MAP_DATA
E040 39 		RTS
		* ------------------- *
E041 8684	AE041	LDAA	#$84
E043 B76099		STAA	Y6099
E046 0F 		SEI
E047 96F8		LDAA	Y00F8
E049 D6FA		LDAB	Y00FA
E04B 7F00F8		CLR	Y00F8
E04E 7F00FA		CLR	Y00FA
E051 0E 		CLI
E052 39 		RTS
		* ------------------- *
E053 8644	AE053	LDAA	#$44
E055 B76099		STAA	Y6099
E058 0F 		SEI
E059 96FC		LDAA	Y00FC
E05B 5F 		CLRB
E05C 7F00FC		CLR	Y00FC
E05F 0E 		CLI
E060 39 		RTS
		* ------------------- *
E061 86AC	AE061	LDAA	#$AC
E063 B76099		STAA	Y6099
E066 FC8012		LDD	D8012
E069 39 		RTS
		* ------------------- *
E06A 868C	AE06A	LDAA	#$8C
E06C B76099		STAA	Y6099
E06F 9654		LDAA	Y0054
E071 D667		LDAB	Y0067
E073 39 		RTS
		* ------------------- *
E074 86D4	AE074	LDAA	#$D4
E076 B76099		STAA	Y6099
E079 965B		LDAA	Y005B           ;BATT_V
E07B D664		LDAB	Y0064
E07D 39 		RTS
		* ------------------- *
E07E 8642	AE07E	LDAA	#$42
E080 B76099		STAA	Y6099
E083 9651		LDAA	Y0051
E085 9006		SUBA	Y0006
E087 2401		BCC	AE08A
E089 4F 		CLRA
E08A 5F 	AE08A	CLRB
E08B 39 		RTS
		* ------------------- *
E08C 86CC	AE08C	LDAA	#$CC
E08E B76099		STAA	Y6099
E091 B6103B		LDAA	PPROG
E094 8502		BITA	#2
E096 2703		BEQ	AE09B
E098 7EE031		JMP	AE031
		* ------------------- *
E09B FCB600	AE09B	LDD	DB600           ;EEPROM
E09E 05 		ASLD
E09F 05 		ASLD
E0A0 B7609C		STAA	Y609C
E0A3 DC6D		LDD	Y006D
E0A5 05 		ASLD
E0A6 05 		ASLD
E0A7 16 		TAB
E0A8 B6609C		LDAA	Y609C
E0AB 39 		RTS
		* ------------------- *
E0AC 8654	AE0AC	LDAA	#$54
E0AE B76099		STAA	Y6099
E0B1 960D		LDAA	Y000D
E0B3 5F 		CLRB
E0B4 39 		RTS
		* ------------------- *
E0B5 8624	AE0B5	LDAA	#$24
E0B7 B76099		STAA	Y6099
E0BA DC5D		LDD	Y005D
E0BC 05 		ASLD
E0BD 05 		ASLD
E0BE B7609C		STAA	Y609C
E0C1 05 		ASLD
E0C2 2402		BCC	AE0C6
E0C4 86FF		LDAA	#$FF
E0C6 C634	AE0C6	LDAB	#$34
E0C8 3D 		MUL
E0C9 05 		ASLD
E0CA 05 		ASLD
E0CB 58 		ASLB
E0CC 8900		ADCA	#0
E0CE 16 		TAB
E0CF B6609C		LDAA	Y609C
E0D2 39 		RTS
		* ------------------- *
E0D3 B6103B	AE0D3	LDAA	PPROG
E0D6 8502		BITA	#2
E0D8 262A		BNE	AE104
E0DA CEB672		LDX	#EEPROM+$72
E0DD D6FB		LDAB	Y00FB
E0DF 17 		TBA
E0E0 5C 		INCB
E0E1 C407		ANDB	#7
E0E3 84F8		ANDA	#$F8
E0E5 C106		CMPB	#6
E0E7 2601		BNE	AE0EA
E0E9 5F 		CLRB
E0EA 1B 	AE0EA	ABA
E0EB 97FB		STAA	Y00FB
E0ED 58 		ASLB
E0EE 58 		ASLB
E0EF 3A 		ABX
E0F0 1E00FF10		BRSET	,X,#$FF,AE104
E0F4 A600		LDAA	,X
E0F6 B76099		STAA	Y6099
E0F9 AB01		ADDA	1,X
E0FB AB02		ADDA	2,X
E0FD A103		CMPA	3,X
E0FF 2603		BNE	AE104
E101 EC01		LDD	1,X
E103 39 		RTS
		* ------------------- *
E104 7EE031	AE104	JMP	AE031
		* ------------------- *
E107 86EC	AE107	LDAA	#$EC
E109 B76099		STAA	Y6099
E10C 4F 		CLRA
E10D 13D50202		BRCLR	$D5,#2,AE113
E111 8A01		ORAA	#1
E113 13D54002	AE113	BRCLR	$D5,#$40,AE119
E117 8A02		ORAA	#2
E119 13FB0802	AE119	BRCLR	$FB,#8,AE11F
E11D 8A04		ORAA	#4
E11F 13D52002	AE11F	BRCLR	$D5,#$20,AE125
E123 8A08		ORAA	#8
E125 5F 	AE125	CLRB
E126 13FB1005		BRCLR	$FB,#$10,AE12F
E12A 15FB10		BCLR	$FB,#$10
E12D CA01		ORAB	#1
E12F 13FB2002	AE12F	BRCLR	$FB,#$20,AE135
E133 CA02		ORAB	#2
E135 39 	AE135	RTS
		* ------------------- *
E136 86A4	AE136	LDAA	#$A4
E138 B76099		STAA	Y6099
E13B 4F 		CLRA
E13C 12318002		BRSET	$31,#$80,AE142
E140 8A01		ORAA	#1
E142 D651	AE142	LDAB	Y0051
E144 D006		SUBB	Y0006
E146 2506		BCS	AE14E
E148 C105		CMPB	#5
E14A 2502		BCS	AE14E
E14C 8A02		ORAA	#2
E14E 13612002	AE14E	BRCLR	$61,#$20,AE154
E152 8A04		ORAA	#4
E154 13CE0102	AE154	BRCLR	$CE,#1,AE15A
E158 8A08		ORAA	#8
E15A 12CD4002	AE15A	BRSET	$CD,#$40,AE160
E15E 8A20		ORAA	#$20
E160 D661	AE160	LDAB	Y0061
E162 54 		LSRB
E163 C407		ANDB	#7
E165 36 		PSHA
E166 B68011		LDAA	D8011
E169 2702		BEQ	AE16D
E16B C802		EORB	#2
E16D 32 	AE16D	PULA
E16E 39 		RTS
		* ------------------- *
E16F E037	TE16F	FDB	AE037
E171 E041		FDB	AE041
E173 E053		FDB	AE053
E175 E031		FDB	AE031
E177 E037		FDB	AE037
E179 E074		FDB	AE074
E17B E031		FDB	AE031
E17D E031		FDB	AE031
E17F E037		FDB	AE037
E181 E0B5		FDB	AE0B5
E183 E136		FDB	AE136
E185 E031		FDB	AE031
E187 E037		FDB	AE037
E189 E07E		FDB	AE07E
E18B E031		FDB	AE031
E18D E031		FDB	AE031
E18F E037		FDB	AE037
E191 E041		FDB	AE041
E193 E053		FDB	AE053
E195 E031		FDB	AE031
E197 E037		FDB	AE037
E199 E0AC		FDB	AE0AC
E19B E031		FDB	AE031
E19D E031		FDB	AE031
E19F E037		FDB	AE037
E1A1 E0B5		FDB	AE0B5
E1A3 E136		FDB	AE136
E1A5 E031		FDB	AE031
E1A7 E037		FDB	AE037
E1A9 E07E		FDB	AE07E
E1AB E031		FDB	AE031
E1AD E031		FDB	AE031
E1AF E037		FDB	AE037
E1B1 E041		FDB	AE041
E1B3 E053		FDB	AE053
E1B5 E031		FDB	AE031
E1B7 E037		FDB	AE037
E1B9 E06A		FDB	AE06A
E1BB E031		FDB	AE031
E1BD E031		FDB	AE031
E1BF E037		FDB	AE037
E1C1 E0B5		FDB	AE0B5
E1C3 E136		FDB	AE136
E1C5 E031		FDB	AE031
E1C7 E037		FDB	AE037
E1C9 E07E		FDB	AE07E
E1CB E031		FDB	AE031
E1CD E031		FDB	AE031
E1CF E037		FDB	AE037
E1D1 E041		FDB	AE041
E1D3 E053		FDB	AE053
E1D5 E031		FDB	AE031
E1D7 E037		FDB	AE037
E1D9 E08C		FDB	AE08C
E1DB E031		FDB	AE031
E1DD E031		FDB	AE031
E1DF E037		FDB	AE037
E1E1 E0B5		FDB	AE0B5
E1E3 E136		FDB	AE136
E1E5 E031		FDB	AE031
E1E7 E037		FDB	AE037
E1E9 E07E		FDB	AE07E
E1EB E031		FDB	AE031
E1ED E031		FDB	AE031
E1EF E037		FDB	AE037
E1F1 E041		FDB	AE041
E1F3 E053		FDB	AE053
E1F5 E107		FDB	AE107
E1F7 E037		FDB	AE037
E1F9 E074		FDB	AE074
E1FB E031		FDB	AE031
E1FD E031		FDB	AE031
E1FF E037		FDB	AE037
E201 E0B5		FDB	AE0B5
E203 E136		FDB	AE136
E205 E031		FDB	AE031
E207 E037		FDB	AE037
E209 E07E		FDB	AE07E
E20B E031		FDB	AE031
E20D E031		FDB	AE031
E20F E037		FDB	AE037
E211 E041		FDB	AE041
E213 E053		FDB	AE053
E215 E031		FDB	AE031
E217 E037		FDB	AE037
E219 E0D3		FDB	AE0D3
E21B E031		FDB	AE031
E21D E031		FDB	AE031
E21F E037		FDB	AE037
E221 E0B5		FDB	AE0B5
E223 E136		FDB	AE136
E225 E031		FDB	AE031
E227 E037		FDB	AE037
E229 E07E		FDB	AE07E
E22B E031		FDB	AE031
E22D E031		FDB	AE031
E22F E037		FDB	AE037
E231 E041		FDB	AE041
E233 E053		FDB	AE053
E235 E031		FDB	AE031
E237 E037		FDB	AE037
E239 E06A		FDB	AE06A
E23B E031		FDB	AE031
E23D E031		FDB	AE031
E23F E037		FDB	AE037
E241 E0B5		FDB	AE0B5
E243 E136		FDB	AE136
E245 E031		FDB	AE031
E247 E037		FDB	AE037
E249 E07E		FDB	AE07E
E24B E031		FDB	AE031
E24D E031		FDB	AE031
E24F E037		FDB	AE037
E251 E041		FDB	AE041
E253 E053		FDB	AE053
E255 E031		FDB	AE031
E257 E037		FDB	AE037
E259 E061		FDB	AE061
E25B E031		FDB	AE031
E25D E031		FDB	AE031
E25F E037		FDB	AE037
E261 E0B5		FDB	AE0B5
E263 E136		FDB	AE136
E265 E031		FDB	AE031
E267 E037		FDB	AE037
E269 E07E		FDB	AE07E
E26B E031		FDB	AE031
E26D E031		FDB	AE031

E26F 06 	TE26F	FCB	$06    0110
E270 05 		FCB	$05    0101
E271 09 		FCB	$09    1001
E272 0A 		FCB	$0A    1010

E273 07 	TE273	FCB	$07
E274 00 		FCB	$00,$D3,$FF,$85
E278 53 		FCB	$53,$AB,$FF,$9D
E27C D7 		FCB	$D7,$78,$FF,$55
E280 E6 		FCB	$E6,$6E,$FF,$17
E284 F1 		FCB	$F1,$64,$FE,$CD
E288 F6 		FCB	$F6,$5E,$FD,$AB
E28C FF 		FCB	$FF,$49

E28E 04 	TE28E	FCB	$04
E28F 42 		FCB	$42,$FF,$FF,$55
E293 57 		FCB	$57,$F1,$FF,$75
E297 C5 		FCB	$C5,$B5,$FF,$4F
E29B FF 		FCB	$FF,$8D

E29D 09 	TE29D	FCB	$09
E29E 58 		FCB	$58,$00,$01,$86
E2A2 6D 		FCB	$6D,$20,$01,$86
E2A6 82 		FCB	$82,$40,$01,$86
E2AA 97 		FCB	$97,$60,$01,$86
E2AE AC 		FCB	$AC,$80,$01,$86
E2B2 C1 		FCB	$C1,$A0,$01,$86
E2B6 D6 		FCB	$D6,$C0,$01,$86
E2BA EB 		FCB	$EB,$E0,$01,$8C
E2BE FF 		FCB	$FF,$FF

E2C0 03 		FCB	$03
E2C1 2F 		FCB	$2F
E2C2 99 		FCB	$99
E2C3 FF 		FCB	$FF
E2C4 AF 		FCB	$AF
E2C5 CC 		FCB	$CC
E2C6 67 		FCB	$67
E2C7 FF 		FCB	$FF
E2C8 7C 		FCB	$7C
E2C9 E9 		FCB	$E9
E2CA 58 		FCB	$58
E2CB 05 		FCB	$05
E2CC 15 		FCB	$15
E2CD FF 		FCB	$FF
E2CE FE 		FCB	$FE
E2CF 00 		FCB	$00
E2D0 1B 		FCB	$1B
E2D1 F3 		FCB	$F3
E2D2 FE 		FCB	$FE
E2D3 F3 		FCB	$F3
E2D4 2E 		FCB	$2E
E2D5 DF 		FCB	$DF
E2D6 FF 		FCB	$FF
E2D7 4A 		FCB	$4A
E2D8 4A 		FCB	$4A
E2D9 CB 		FCB	$CB
E2DA FF 		FCB	$FF
E2DB 91 		FCB	$91
E2DC C8 		FCB	$C8
E2DD 94 		FCB	$94

E2DE 09 	TE2DE	FCB	$09
E2DF 58 		FCB	$58,$00,$01,$99
E2E3 6C 		FCB	$6C,$20,$01,$99
E2E7 80 		FCB	$80,$40,$01,$99
E2EB 94 		FCB	$94,$60,$01,$99
E2EF A8 		FCB	$A8,$80,$01,$99
E2F3 BC 		FCB	$BC,$A0,$01,$99
E2F7 D0 		FCB	$D0,$C0,$01,$99
E2FB E4 		FCB	$E4,$E0,$01,$8C
E2FF F8 		FCB	$F8,$FF

E301 06 	TE301	FCB	$06
E302 05 		FCB	$05,$FF,$FC,$C0
E306 15 		FCB	$15,$CB,$FE,$F8
E30A 32 		FCB	$32,$AD,$FF,$83
E30E 6F 		FCB	$6F,$8F,$FF,$96
E312 C8 		FCB	$C8,$6C,$FF,$56
E316 E7 		FCB	$E7,$58

E318 05 	TE318	FCB	$05
E319 79 		FCB	$79,$EB,$FF,$C8
E31D 82 		FCB	$82,$E9,$FF,$95
E321 95 		FCB	$95,$E1,$FF,$9A
E325 AE 		FCB	$AE,$D7,$FF,$F1
E329 B7 		FCB	$B7,$D5

E32B 05 	TE32B	FCB	$05
E32C 79 		FCB	$79,$ED,$FF,$E4
E330 82 		FCB	$82,$EC,$FF,$95
E334 95 		FCB	$95,$E4,$FF,$A4
E338 AE 		FCB	$AE,$DB,$FF,$8F
E33C B7 		FCB	$B7,$D7

E33E 05 	TE33E	FCB	$05
E33F 79 		FCB	$79,$EE,$FF,$C8
E343 82 		FCB	$82,$EC,$FF,$A2
E347 95 		FCB	$95,$E5,$FF,$9A
E34B AE 		FCB	$AE,$DB,$FF,$AB
E34F B7 		FCB	$B7,$D8
		;tbl interpol BATT_Volt2
E351 05 	TE351	FCB	$05
E352 96 		FCB	$96,$9C,$F9,$EB
E356 A2 		FCB	$A2,$54,$FF,$08
E35A C2 		FCB	$C2,$34,$FF,$9C
E35E E3 		FCB	$E3,$27,$FF,$B7
E362 FF 		FCB	$FF,$1F
		;-------------------
E364 36 	AE364	PSHA
E365 183C		PSHY
E367 33 		PULB
E368 3D 		MUL
E369 188F		XGDY
E36B 33 		PULB
E36C 32 		PULA
E36D 3D 		MUL
E36E 8900		ADCA	#0  ;round
E370 16 		TAB
E371 183A		ABY
E373 183C		PSHY
E375 1838		PULY
E377 39 		RTS
		* ------------------- *
E378 36 	AE378	PSHA
E379 17 		TBA
E37A 1AEE00		LDY	,X
E37D 8DE5		BSR	AE364
E37F 18FF609F		STY	Y609F		;MathTmp
E383 32 		PULA
E384 36 		PSHA
E385 E601		LDAB	1,X
E387 3D 		MUL
E388 F3609F		ADDD	Y609F           ;MathTmp
E38B 2511		BCS	AE39E
E38D FD609F		STD	Y609F           ;MathTmp
E390 E600		LDAB	,X
E392 32 		PULA
E393 3D 		MUL
E394 4D 		TSTA
E395 2608		BNE	AE39F
E397 FB609F		ADDB	Y609F           ;MathTmp
E39A 2408		BCC	AE3A4
E39C 2001		BRA	AE39F
		* ------------------- *
E39E 32 	AE39E	PULA
E39F C6FF	AE39F	LDAB	#$FF
E3A1 F760A0		STAB	Y60A0
E3A4 17 	AE3A4	TBA
E3A5 F660A0		LDAB	Y60A0
E3A8 FD609F		STD	Y609F           ;MathTmp
E3AB 39 		RTS

		* ------------------- *
E3AC 18CE0000	AE3AC	LDY	#$0000
E3B0 E600		LDAB	,X           ;b = size table
E3B2 183A		ABY                  ;math end table to Y
E3B4 08 		INX
E3B5 C604		LDAB	#4	     ;offset
E3B7 A100		CMPA	,X
E3B9 2205		BHI	AE3C0
E3BB A601	AE3BB	LDAA	1,X
E3BD 16 		TAB
E3BE 2021		BRA	AE3E1         ;return Y
		* ------------------- *
E3C0 1809	AE3C0	DEY
E3C2 27F7		BEQ	AE3BB         ;end table
E3C4 A104		CMPA	4,X
E3C6 2503		BCS	AE3CB
E3C8 3A 		ABX                   ; math
E3C9 20F5		BRA	AE3C0         ;  next entry table
		* ------------------- *
E3CB A000	AE3CB	SUBA	,X            ;
E3CD 36 		PSHA
E3CE E602		LDAB	2,X
E3D0 3D 		MUL
E3D1 188F		XGDY
E3D3 32 		PULA
E3D4 E603		LDAB	3,X
E3D6 3D 		MUL
E3D7 8900		ADCA	#0
E3D9 16 		TAB
E3DA 183A		ABY
E3DC 188F		XGDY
E3DE EB01		ADDB	1,X
E3E0 17 		TBA
E3E1 36 	AE3E1	PSHA
E3E2 32 		PULA
E3E3 39 		RTS
		* ------------------- *
E3E4 36 	AE3E4	PSHA
E3E5 5F 		CLRB
E3E6 49 		ROLA       ;
E3E7 59 		ROLB
E3E8 49 		ROLA
E3E9 59 		ROLB
E3EA 49 		ROLA
E3EB 59 		ROLB       ;
E3EC 3A 		ABX
E3ED E600		LDAB	,X
E3EF E001		SUBB	1,X
E3F1 2504		BCS	AE3F7
E3F3 3D 		MUL
E3F4 40 		NEGA
E3F5 2002		BRA	AE3F9
		* ------------------- *
E3F7 50 	AE3F7	NEGB
E3F8 3D 		MUL
E3F9 AB00	AE3F9	ADDA	,X
E3FB 16 		TAB
E3FC 37 		PSHB
E3FD 33 		PULB
E3FE 32 		PULA
E3FF 39 		RTS
		* ------------------- *
		* >> NO EXECUTION PATH TO HERE <<
E400 39 		RTS
		* ------------------- *
		;MATH RPM
E401 18CE0036	AE401	LDY	#TimeTic
E405 FC8072		LDD	D8072    ; 610      minTime
E408 FE8074		LDX	D8074    ; 23040    maxTime
E40B 1335FF08		BRCLR	$35,#$FF,AE417
E40F 1809		DEY
E411 FC8076		LDD	D8076
E414 FE8078		LDX	D8078
E417 3C 	AE417	PSHX
E418 CDEE00		LDX	,Y       	;Get Time
E41B 03 		FDIV
E41C FF609F		STX	Y609F    	;MathTmp
E41F 32 		PULA
E420 33 		PULB
E421 CDEE00		LDX	,Y      	;Get Time
E424 02 		IDIV
E425 8F 		XGDX
E426 F3609F		ADDD	Y609F    	;MathTmp
E429 2403		BCC	AE42E
E42B CCFFFF		LDD	#$FFFF
E42E FD609F	AE42E	STD	Y609F   	;MathTmp
E431 39 		RTS
		* ------------------- *
E432 F68021	AE432	LDAB	D8021          ;0
E435 2701		BEQ	AE438
E437 3D 		MUL
E438 F38022	AE438	ADDD	D8022
E43B 2402		BCC	AE43F
E43D 86FF		LDAA	#$FF
E43F 39 	AE43F	RTS
		* ------------------- *
E440 36 	AE440	PSHA
E441 17 		TBA
E442 1AEE00		LDY	,X
E445 BDE364		JSR	AE364
E448 32 		PULA
E449 4D 		TSTA
E44A 188F		XGDY
E44C 2707		BEQ	AE455
E44E E300		ADDD	,X
E450 2403		BCC	AE455
E452 CCFFFF		LDD	#$FFFF
E455 36 	AE455	PSHA
E456 37 		PSHB
E457 33 		PULB
E458 32 		PULA
E459 39 		RTS
		* ------------------- *
E45A A304	AE45A	SUBD	4,X
E45C 18A700		STAA	,Y
E45F A600		LDAA	,X
E461 04 		LSRD
E462 18E800		EORB	,Y
E465 2A07		BPL	AE46E
E467 A600		LDAA	,X
E469 4C 		INCA
E46A 2702		BEQ	AE46E
E46C A700		STAA	,X
E46E A600	AE46E	LDAA	,X
E470 44 		LSRA
E471 A101		CMPA	1,X
E473 2502		BCS	AE477
E475 A701		STAA	1,X
E477 39 	AE477	RTS
		* ------------------- *
E478 CE8053	AE478	LDX	#T8053
E47B DC46		LDD	T_RPM
E47D 58 		ASLB
E47E 8900		ADCA	#0       ;round
E480 BDE3AC		JSR	AE3AC
E483 9748		STAA	Y0048    ;rpm_???
E485 39 		RTS
		* ------------------- *
		;A - rpm = 1
		;B - map = 0
E486 18CEE4FB	AE486	LDY	#TE4FB        ;BCS   Carry
E48A 1F02FF04		BRCLR	2,X,#$FF,AE492
E48E 18CEE4F7		LDY	#TE4F7        ;BLT   r < m

E492 183C	AE492	PSHY     	;Y->Sp
E494 36 		PSHA            ;xA[3]
E495 36 		PSHA            ;xA[2]
E496 A601		LDAA	1,X     ;column
E498 4A 		DECA
E499 3D 		MUL
E49A 36 		PSHA            ;
E49B 37 		PSHB            ;[0:1] 0 * column
E49C 1830		TSY             ;sp->y

E49E 18A602		LDAA	2,Y
E4A1 E600		LDAB	,X      ;row (строка)
E4A3 5A 		DECB
E4A4 3D 		MUL             ;D = xA *  row
E4A5 18E703		STAB	3,Y     ;AB = 0x0010

E4A8 E601		LDAB	1,X     ;column
E4AA 18E702		STAB	2,Y
E4AD 3D 		MUL
E4AE 08 		INX
E4AF 08 		INX
E4B0 08 		INX             ;base_data
E4B1 3A 		ABX

E4B2 4D 		TSTA
E4B3 2704		BEQ	AE4B9
E4B5 08 		INX
E4B6 C6FF		LDAB	#$FF
E4B8 3A 		ABX

E4B9 18E601	AE4B9	LDAB	1,Y
E4BC 3A 		ABX
E4BD 18E600		LDAB	,Y

E4C0 183C		PSHY
E4C2 18EE04		LDY	4,Y
E4C5 A600		LDAA	,X
E4C7 A001		SUBA	1,X
E4C9 18AD00		JSR	,Y
		>> WARNING JSR INDX <<
E4CC 1838		PULY

E4CE 18A701		STAA	1,Y
E4D1 18E602		LDAB	2,Y
E4D4 3A 		ABX
E4D5 33 		PULB

E4D6 183C		PSHY
E4D8 18EE04		LDY	4,Y
E4DB A600		LDAA	,X
E4DD A001		SUBA	1,X
E4DF 18AD00		JSR	,Y
		>> WARNING JSR INDX <<
E4E2 1838		PULY
E4E4 30 		TSX
E4E5 A701		STAA	1,X
E4E7 E602		LDAB	2,X
E4E9 1AEE03		LDY	3,X
E4EC A600		LDAA	,X
E4EE A001		SUBA	1,X
E4F0 18AD00		JSR	,Y
		>> WARNING JSR INDX <<
E4F3 33 		PULB
E4F4 38 		PULX
E4F5 38 		PULX
E4F6 39 		RTS
		* ------------------- *
E4F7 2D0A	TE4F7	BLT	AE503
E4F9 2002		BRA	AE4FD
		* ------------------- *
E4FB 2506	TE4FB	BCS	AE503
E4FD 3D 	AE4FD	MUL
E4FE 8900		ADCA	#0
E500 40 		NEGA
E501 2004		BRA	AE507
		* ------------------- *
E503 40 	AE503	NEGA
E504 3D 		MUL
E505 8900		ADCA	#0
E507 AB00	AE507	ADDA	,X
E509 39 		RTS
		* ------------------- *
E50A 18A000	AE50A	SUBA	,Y        ;a-m->a  new - old
E50D 2505		BCS	AE514
E50F E601		LDAB	1,X
E511 3D 		MUL
E512 2008		BRA	AE51C
		* ------------------- *
E514 40 	AE514	NEGA
E515 E600		LDAB	,X
E517 3D 		MUL
E518 40 		NEGA
E519 50 		NEGB
E51A 8200		SBCA	#0
		;
E51C 18E300	AE51C	ADDD	,Y      ;new=old+math
E51F 18ED00		STD	,Y
E522 39 		RTS
		* ------------------- *
E523 0F 	AE523	SEI
E524 B66000		LDAA	Y6000
E527 8802		EORA	#2
E529 B76000		STAA	Y6000
E52C 0E 		CLI
E52D CC55AA	AE52D	LDD	#$55AA
E530 B7103A		STAA	Y103A		;Arm/Reset COP Timer
E533 F7103A		STAB	Y103A		;Arm/Reset COP Timer
E536 39 		RTS
		* ------------------- *
E537 B66000	AE537	LDAA	Y6000           ;RSTCOP
E53A 84FD		ANDA	#$FD            ;11111101
E53C B76000		STAA	Y6000
E53F C610		LDAB	#$10
E541 5A 	AE541	DECB
E542 26FD		BNE	AE541
E544 8A02		ORAA	#2              ;00000010
E546 B76000		STAA	Y6000
E549 CC55AA		LDD	#$55AA
E54C B7103A		STAA	Y103A           ;Arm/Reset COP Timer
E54F F7103A		STAB	Y103A           ;Arm/Reset COP Timer
E552 39 		RTS
		* ------------------- *
		* >> NO EXECUTION PATH TO HERE <<
E553 CE0019		LDX	#$0019
E556 2008		BRA	AE560
		* ------------------- *
		* >> NO EXECUTION PATH TO HERE <<
E558 CE0005		LDX	#$0005
E55B 2003		BRA	AE560
		* ------------------- *
E55D CE0001	AE55D	LDX	#$0001
E560 18CE0242	AE560	LDY	#$0242
E564 BDE537		JSR	AE537           ;RSTCOP
E567 B66000	AE567	LDAA	Y6000
E56A 8540		BITA	#$40
E56C 2602		BNE	AE570
E56E 0D 		SEC
E56F 39 		RTS
		* ------------------- *
E570 BDE537	AE570	JSR	AE537           ;RSTCOP
E573 0C 		CLC
E574 1809		DEY
E576 26EF		BNE	AE567
E578 09 		DEX
E579 26E5		BNE	AE560
E57B 39 		RTS
		* ------------------- *
E57C B66000	AE57C	LDAA	Y6000
E57F 8540		BITA	#$40
E581 2615		BNE	AE598
E583 1230400C		BRSET	$30,#$40,AE593
E587 143040		BSET	$30,#$40
E58A 152180		BCLR	$21,#$80
E58D 152E42		BCLR	$2E,#$42
E590 153080		BCLR	$30,#$80
E593 7F6080	AE593	CLR	Y6080
E596 0E 		CLI
E597 39 		RTS
		* ------------------- *
E598 152180	AE598	BCLR	$21,#$80
E59B 152E42		BCLR	$2E,#$42
E59E 1530C0		BCLR	$30,#$C0
E5A1 B66080		LDAA	Y6080
E5A4 260A		BNE	AE5B0
E5A6 8617		LDAA	#$17
E5A8 D635		LDAB	Y0035
E5AA C104		CMPB	#4
E5AC 2502		BCS	AE5B0
E5AE 8609		LDAA	#9
E5B0 4A 	AE5B0	DECA
E5B1 2704		BEQ	AE5B7
E5B3 B76080		STAA	Y6080
E5B6 39 		RTS
		* ------------------- *
E5B7 0F 	AE5B7	SEI
E5B8 4F 		CLRA
E5B9 97DC		STAA	Y00DC
E5BB 97DE		STAA	Y00DE
E5BD BDE537		JSR	AE537           ;RSTCOP
E5C0 BDCFF9		JSR	ACFF9           ;Check CS
E5C3 8620		LDAA	#$20
E5C5 F66000	AE5C5	LDAB	Y6000
E5C8 C540		BITB	#$40
E5CA 27C7		BEQ	AE593
E5CC 4A 		DECA
E5CD 26F6		BNE	AE5C5
E5CF BDE537		JSR	AE537           ;RSTCOP
		;
E5D2 8632		LDAA	#50
E5D4 B7609C		STAA	Y609C
E5D7 BDE55D	AE5D7	JSR	AE55D
E5DA 2547		BCS	AE623
E5DC 7A609C		DEC	Y609C
E5DF 26F6		BNE	AE5D7

E5E1 86FF		LDAA	#$FF
E5E3 B71023		STAA	TFLG1		;Clear All flags
		;
E5E6 8632		LDAA	#50
E5E8 B7609C		STAA	Y609C           ;set cnt
E5EB BDE55D	AE5EB	JSR	AE55D
E5EE 2533		BCS	AE623
E5F0 B61023		LDAA	TFLG1		;Test
E5F3 8506		BITA	#6              ;   IC1F,IC2F
E5F5 262C		BNE	AE623
E5F7 7A609C		DEC	Y609C           ;cnt--
E5FA 26EF		BNE	AE5EB           ;repeat
		;-------------------------------
E5FC C603		LDAB	#3
E5FE 8610	AE5FE	LDAA	#$10            ;start
E600 B71030		STAA	Y1030           ;       ADCTL
E603 B61030	AE603	LDAA	Y1030           ;wait
E606 2AFB		BPL	AE603           ; 	ADC
E608 B61031		LDAA	Y1031           ;get MAP
E60B B18A0B		CMPA	D8A0B	        ;       102
E60E 2410		BCC	AE620
E610 5A 		DECB
E611 26EB		BNE	AE5FE
		 ;-------------------------------
E613 CC2481		LDD	#$2481
E616 BDD163		JSR	AD163		;error  2481
E619 2405		BCC	AE620
E61B 140504		BSET	Y0005,#4
E61E 2003		BRA	AE623
		* ------------------- *
E620 150504	AE620	BCLR	Y0005,#4

E623 BDE682	AE623	JSR	AE682           ;math cs_word 0x05..0x1F
E626 DD03		STD	Y0003           ;cs1
E628 BDE537		JSR	AE537           ;RSTCOP
E62B CC0000		LDD	#$0000
E62E B7103B		STAA	PPROG
E631 F76002		STAB	Y6002
E634 B76000		STAA	Y6000
E637 C607		LDAB	#7
E639 F76040		STAB	Y6040
E63C B76006		STAA	Y6006
E63F B76003		STAA	Y6003
E642 CC0000		LDD	#$0000
E645 FD100C		STD	OCM1           ;Output Compare 1 Mask
E648 7F102D		CLR	SCCR2
E64B CCFFFE		LDD	#TFFFE
E64E FD1008		STD	PORTD           ;PORTD & DDRD
E651 CCAAF8		LDD	#TAAF8
E654 B71020		STAA	TCTL1
E657 F7100B		STAB	CFORC		;Force All
E65A BDE537		JSR	AE537           ;RSTCOP
		;---------------------
E65D F66000	AE65D	LDAB	Y6000
E660 C540		BITB	#$40
E662 2709		BEQ	AE66D
E664 BDE52D		JSR	AE52D           ;RSTCOP1
E667 7EE65D		JMP	AE65D
		* ------------------- *
		* >> NO EXECUTION PATH TO HERE <<
E66A 7EE65D		JMP	AE65D
		* ------------------- *
E66D BDE52D	AE66D	JSR	AE52D           ;RSTCOP1
E670 8640		LDAA	#$40
E672 F66000	AE672	LDAB	Y6000
E675 C540		BITB	#$40
E677 26E4		BNE	AE65D
E679 4A 		DECA
E67A 26F6		BNE	AE672
E67C BDE52D		JSR	AE52D           ;RSTCOP1
E67F 7E9470		JMP	A9470 		;Reset
		* ------------------- *
E682 4F 	AE682	CLRA
E683 5F 		CLRB
E684 CE0005		LDX	#$0005
E687 EB00	AE687	ADDB	,X
E689 2401		BCC	AE68C
E68B 4C 		INCA
E68C 08 	AE68C	INX
E68D 8C0020		CPX	#$0020
E690 25F5		BCS	AE687
E692 39 		RTS
		* ------------------- *
		* >> NO EXECUTION PATH TO HERE <<
E693 8616		LDAA	#$16           ;erase
E695 8D02		BSR	AE699
E697 8602		LDAA	#2             ;program
E699 B7103B	AE699	STAA	PPROG
E69C E700		STAB	,X
E69E 4C 		INCA
E69F B7103B		STAA	PPROG
E6A2 18CE1658		LDY	#$1658
E6A6 1809	AE6A6	DEY
E6A8 26FC		BNE	AE6A6
E6AA 4A 		DECA
E6AB B7103B		STAA	PPROG
E6AE 4F 		CLRA
E6AF B7103B		STAA	PPROG
E6B2 39 		RTS
		* ------------------- *
E6B3 12264003	AE6B3	BRSET	$26,#$40,AE6BA   ;requst prg ?
E6B7 7EE743		JMP	AE743            ;skip
		* ------------------- *
E6BA B6103B	AE6BA	LDAA	PPROG
E6BD 2711		BEQ	AE6D0
E6BF 152680		BCLR	$26,#$80
E6C2 8117		CMPA	#$17
E6C4 2605		BNE	AE6CB
E6C6 142608		BSET	$26,#8
E6C9 200B		BRA	AE6D6
		* ------------------- *
E6CB 152608	AE6CB	BCLR	$26,#8
E6CE 2006		BRA	AE6D6
		* ------------------- *
E6D0 142680	AE6D0	BSET	$26,#$80
E6D3 152608		BCLR	$26,#8
E6D6 4F 	AE6D6	CLRA
E6D7 B7103B		STAA	PPROG
E6DA B66080		LDAA	Y6080
E6DD 2709		BEQ	AE6E8
E6DF C603		LDAB	#3
E6E1 11 		CBA
E6E2 2404		BCC	AE6E8
E6E4 17 		TBA
E6E5 B76080		STAA	Y6080
E6E8 CEB600	AE6E8	LDX	#DB600          ;EEPROM
E6EB F660B0		LDAB	Y60B0           ;offset_prg_eepr
E6EE 3A 		ABX
E6EF F660B1		LDAB	Y60B1           ;data_eepr
E6F2 A600		LDAA	,X              ;get old data
E6F4 11 		CBA
E6F5 2739		BEQ	AE730           ;

E6F7 1226801F		BRSET	$26,#$80,AE71A  ;prg or erase

E6FB 13260804		BRCLR	$26,#8,AE703
E6FF 81FF		CMPA	#$FF
E701 2717		BEQ	AE71A
E703 12D64029	AE703	BRSET	Y00D6,#$40,AE730
E707 3C 		PSHX
E708 36 		PSHA
E709 37 		PSHB
E70A CC318A		LDD	#$318A
E70D BDD163		JSR	AD163		 ;error  318A
E710 33 		PULB
E711 32 		PULA
E712 38 		PULX
E713 2405		BCC	AE71A
E715 14D640		BSET	Y00D6,#$40
E718 2016		BRA	AE730
		* ------------------- *
E71A B460B1	AE71A	ANDA	Y60B1    	;data_eepr
E71D B160B1		CMPA	Y60B1           ;data_eepr
E720 2704		BEQ	AE726    	;PROGRAM  BYTE

E722 8616		LDAA	#$16     	;ERASE    BYTE
E724 2002		BRA	AE728
		* ------------------- *
		; program
E726 8602	AE726	LDAA	#2       	;EELAT = 1
E728 B7103B	AE728	STAA	PPROG
E72B E700		STAB	,X
E72D 4C 		INCA
E72E 2014		BRA	AE744   	;EPGM
		* ------------------- *
E730 152640	AE730	BCLR	$26,#$40	;not requst prg
E733 1226200C		BRSET	$26,#$20,AE743
E737 8603		LDAA	#3
E739 B16080		CMPA	Y6080
E73C 2605		BNE	AE743
E73E 8601		LDAA	#1
E740 B76080		STAA	Y6080
E743 4F 	AE743	CLRA
E744 B7103B	AE744	STAA	PPROG
E747 39 		RTS
		* ------------------- *
E748 CEB610	AE748	LDX	#EEPROM+$10
E74B C610	AE74B	LDAB	#$10
E74D 3A 		ABX
E74E 8CB650		CPX	#EEPROM+$50     ;end
E751 2209		BHI	AE75C
E753 A600		LDAA	,X
E755 4C 		INCA
E756 2704		BEQ	AE75C
E758 8D03		BSR	AE75D		;Row Erase
E75A 20EF		BRA	AE74B           ;repeat
		* ------------------- *
E75C 39 	AE75C	RTS
		* ------------------- *
		;Row Erase
E75D 860E	AE75D	LDAA	#$0E            ;00001110
E75F B7103B		STAA	PPROG
E762 E700		STAB	,X
E764 4C 		INCA
E765 B7103B		STAA	PPROG
		;delay
E768 18CE1652		LDY	#$1652
E76C 1809	AE76C	DEY
E76E 26FC		BNE	AE76C

E770 4A 		DECA                    ;00001101
E771 B7103B		STAA	PPROG
E774 7F103B		CLR	PPROG
E777 0F 		SEI
E778 BDE537		JSR	AE537           ;RSTCOP
E77B 0E 		CLI
E77C 39 		RTS
		* ------------------- *
		;Timer Input Capture 2  Датчик скорости
E77D FC1012	AE77D	LDD	TIC2
E780 05 		ASLD
E781 FD608B		STD	Y608B
E784 BDE866		JSR	AE866
E787 270F		BEQ	AE798
E789 03 		FDIV
E78A BDE866		JSR	AE866
E78D 2709		BEQ	AE798
E78F 03 		FDIV
E790 BDE866		JSR	AE866
E793 2703		BEQ	AE798
E795 7EE853		JMP	AE853	    	;exit
		* ------------------- *
E798 DC0E	AE798	LDD	Y000E
E79A C30001		ADDD	#$0001
E79D DD0E		STD	Y000E
E79F 2603		BNE	AE7A4
E7A1 142080		BSET	$20,#$80
E7A4 96FA	AE7A4	LDAA	Y00FA
E7A6 4C 		INCA
E7A7 2702		BEQ	AE7AB
E7A9 97FA		STAA	Y00FA
E7AB DC5D	AE7AB	LDD	Y005D
E7AD 830500		SUBD	#$0500
E7B0 9624		LDAA	Y0024
E7B2 2421		BCC	AE7D5
E7B4 8510		BITA	#$10
E7B6 2604		BNE	AE7BC
E7B8 8A10		ORAA	#$10
E7BA 2020		BRA	AE7DC
		* ------------------- *
E7BC 841F	AE7BC	ANDA	#$1F
E7BE 8A08		ORAA	#8
E7C0 9724		STAA	Y0024
E7C2 4F 		CLRA
E7C3 B76098		STAA	Y6098
E7C6 B76097		STAA	Y6097
E7C9 973C		STAA	Y003C
E7CB DC5D		LDD	Y005D
E7CD C30053		ADDD	#$0053
E7D0 DD5D		STD	Y005D
E7D2 7EE853		JMP	AE853           ;exit
		* ------------------- *
E7D5 8510	AE7D5	BITA	#$10
E7D7 2703		BEQ	AE7DC
E7D9 7EE859		JMP	AE859
		* ------------------- *
E7DC 8B20	AE7DC	ADDA	#$20
E7DE 2506		BCS	AE7E6
E7E0 84EF		ANDA	#$EF
E7E2 9724		STAA	Y0024
E7E4 206D		BRA	AE853          ;exit
		* ------------------- *
E7E6 9724	AE7E6	STAA	Y0024
E7E8 F66098		LDAB	Y6098
E7EB 271F		BEQ	AE80C
E7ED 8508		BITA	#8
E7EF 261B		BNE	AE80C
E7F1 863A		LDAA	#$3A
E7F3 3D 		MUL
E7F4 8900		ADCA	#0
E7F6 8103		CMPA	#3
E7F8 2402		BCC	AE7FC
E7FA 8603		LDAA	#3
E7FC 16 	AE7FC	TAB
E7FD B66097		LDAA	Y6097
E800 B06098		SUBA	Y6098
E803 2401		BCC	AE806
E805 40 		NEGA
E806 10 	AE806	SBA
E807 2509		BCS	AE812
E809 142408		BSET	$24,#8
E80C F66097	AE80C	LDAB	Y6097
E80F F76098		STAB	Y6098
E812 4F 	AE812	CLRA
E813 B76097		STAA	Y6097
E816 FC608B		LDD	Y608B
E819 CE003C		LDX	#$003C
E81C 18CE6090		LDY	#$6090
E820 BDE45A		JSR	AE45A
E823 963C		LDAA	Y003C
E825 44 		LSRA
E826 16 		TAB
E827 9A3D		ORAA	Y003D
E829 2709		BEQ	AE834
E82B D73D		STAB	Y003D
E82D FC608B		LDD	Y608B
E830 9340		SUBD	Y0040
E832 2015		BRA	AE849
		* ------------------- *
E834 FC608B	AE834	LDD	Y608B
E837 9340		SUBD	Y0040
E839 933E		SUBD	Y003E
E83B 270E		BEQ	AE84B
E83D 47 		ASRA
E83E 56 		RORB
E83F 47 		ASRA
E840 56 		RORB
E841 830000		SUBD	#$0000
E844 2601		BNE	AE847
E846 5C 		INCB
E847 D33E	AE847	ADDD	Y003E
E849 DD3E	AE849	STD	Y003E
E84B FC608B	AE84B	LDD	Y608B
E84E DD40		STD	Y0040
E850 4F 		CLRA
E851 973C		STAA	Y003C
E853 8602	AE853	LDAA	#2
E855 B71023		STAA	TFLG1		;clear IC2F
E858 3B 		RTI
		* ------------------- *
E859 84EF	AE859	ANDA	#$EF
E85B 9724		STAA	Y0024
E85D 8601		LDAA	#1
E85F 973D		STAA	Y003D
E861 CC5F90		LDD	#$5F90
E864 20E3		BRA	AE849
		* ------------------- *
E866 B61021	AE866	LDAA	TCTL2      ;
E869 44 		LSRA
E86A B81000		EORA	PORTA
E86D 8502		BITA	#2
E86F 39 		RTS
		* ------------------- *
		;Timer Output Compare 1
E870 8D01	AE870	BSR	AE873
E872 3B 		RTI
		* ------------------- *
E873 8680	AE873	LDAA	#$80
E875 B71023		STAA	TFLG1           ;Clear  Flag
						;     	      OC1F
E878 8610		LDAA	#$10            ;start
E87A B71030		STAA	Y1030           ;      ADCTL
E87D FC1016		LDD	TOC1
E880 C301E0		ADDD	#480		; * 4 = 1.92 ms
E883 1AB3100E		CPD	TCNT
E887 2B11		BMI	AE89A
E889 830089		SUBD	#137		; * 4 =  0.548 ms
E88C 1AB3100E		CPD	TCNT
E890 2A03		BPL	AE895
E892 C30089		ADDD	#137            ; 0.548 ms
E895 C30089	AE895	ADDD	#137		; 0.548 ms
E898 2006		BRA	AE8A0
		* ------------------- *
E89A FC100E	AE89A	LDD	TCNT
E89D C301E0		ADDD	#480		;1.92   ms
E8A0 FD1016	AE8A0	STD	TOC1
		;
E8A3 B61022		LDAA	TMSK1
E8A6 847F		ANDA	#$7F            ;disable OC1I
E8A8 B71022		STAA	TMSK1
		;
E8AB 7C60A6		INC	Y60A6
		;
E8AE CE6000		LDX	#$6000
E8B1 96E0		LDAA	Y00E0
E8B3 810D		CMPA	#$0D
E8B5 2603		BNE	AE8BA
E8B7 7EE948		JMP	AE948
		* ------------------- *
E8BA B61030	AE8BA	LDAA	Y1030           ;ADCTL
E8BD 2AFB		BPL	AE8BA		;wait

E8BF BDBCD0		JSR	ABCD0           ;Get BATT_DATA
E8C2 97EE		STAA	Y00EE
E8C4 0E 		CLI
E8C5 915B		CMPA	Y005B           ;BATT_V
E8C7 2402		BCC	AE8CB
E8C9 975B		STAA	Y005B           ;BATT_V
E8CB 9646	AE8CB	LDAA	T_RPM
E8CD 810C		CMPA	#$0C
E8CF 2508		BCS	AE8D9
E8D1 8110		CMPA	#$10
E8D3 2409		BCC	AE8DE
E8D5 12240105		BRSET	$24,#1,AE8DE
E8D9 152401	AE8D9	BCLR	$24,#1
E8DC 2063		BRA	AE941            ;skip
		* ------------------- *
E8DE 142401	AE8DE	BSET	$24,#1
E8E1 96EE		LDAA	Y00EE
E8E3 8141		CMPA	#$41
E8E5 2406		BCC	AE8ED
E8E7 D645		LDAB	Y0045           ;#subr
E8E9 C506		BITB	#6
E8EB 2654		BNE	AE941
E8ED 13211017	AE8ED	BRCLR	$21,#$10,AE908
E8F1 96EF		LDAA	Y00EF
E8F3 2604		BNE	AE8F9
E8F5 96EE		LDAA	Y00EE
E8F7 97EF		STAA	Y00EF
E8F9 90EE	AE8F9	SUBA	Y00EE
E8FB 2344		BLS	AE941
E8FD B189F4		CMPA	D89F4
E900 233F		BLS	AE941
E902 142120		BSET	$21,#$20
E905 152110		BCLR	$21,#$10
E908 7F00EF	AE908	CLR	Y00EF
E90B 96EE		LDAA	Y00EE
E90D 9064		SUBA	Y0064
E90F 2606		BNE	AE917
E911 1F000423		BRCLR	,X,#4,AE938
E915 202A		BRA	AE941
		* ------------------- *
E917 C607	AE917	LDAB	#7
E919 2410		BCC	AE92B
E91B 40 		NEGA
E91C 8102		CMPA	#2
E91E 2704		BEQ	AE924
E920 2416		BCC	AE938
E922 C603		LDAB	#3
E924 F460A6	AE924	ANDB	Y60A6
E927 2718		BEQ	AE941
E929 200D		BRA	AE938
		* ------------------- *
E92B 8102	AE92B	CMPA	#2
E92D 2704		BEQ	AE933
E92F 2410		BCC	AE941
E931 C603		LDAB	#3
E933 F460A6	AE933	ANDB	Y60A6
E936 2609		BNE	AE941
E938 0F 	AE938	SEI
E939 1C0004		BSET	,X,#4
E93C 142402		BSET	$24,#2
E93F 2007		BRA	AE948
		* ------------------- *
E941 0F 	AE941	SEI
E942 1D0004		BCLR	,X,#4
E945 152402		BCLR	$24,#2
E948 1C0204	AE948	BSET	2,X,#4
E94B 8614		LDAA	#$14
E94D 4A 	AE94D	DECA
E94E 26FD		BNE	AE94D
E950 1D0204		BCLR	2,X,#4
E953 0E 		CLI
E954 B660A6		LDAA	Y60A6
E957 44 		LSRA
E958 257C		BCS	AE9D6       ;skip
		;
E95A D607		LDAB	Y0007
E95C C540		BITB	#$40
E95E 260F		BNE	AE96F
E960 44 		LSRA
E961 2573		BCS	AE9D6
E963 9646		LDAA	T_RPM
E965 815E		CMPA	#$5E
E967 2506		BCS	AE96F
E969 9608		LDAA	Y0008
E96B 9169		CMPA	Y0069
E96D 2767		BEQ	AE9D6
		;-------------------------------------
E96F 965B	AE96F	LDAA	Y005B           ;BATT_V
E971 B1867C		CMPA	D867C           ;11.3
E974 2560		BCS	AE9D6
E976 0F 		SEI
E977 96CF		LDAA	Y00CF
E979 8A01		ORAA	#1
E97B B76040		STAA	Y6040
E97E 84FE		ANDA	#$FE
E980 97CF		STAA	Y00CF
E982 B76040		STAA	Y6040
E985 D608		LDAB	Y0008
E987 1307400A		BRCLR	7,#$40,AE995
E98B 8601		LDAA	#1
E98D 5D 		TSTB
E98E 260D		BNE	AE99D
E990 150740		BCLR	7,#$40
E993 2010		BRA	AE9A5
		* ------------------- *
E995 8601	AE995	LDAA	#1
E997 D169		CMPB	Y0069
E999 270A		BEQ	AE9A5
E99B 2501		BCS	AE99E
E99D 40 	AE99D	NEGA
E99E 16 	AE99E	TAB
E99F 9B08		ADDA	Y0008
E9A1 9708		STAA	Y0008
E9A3 2001		BRA	AE9A6
		* ------------------- *
E9A5 5F 	AE9A5	CLRB
E9A6 CEE26F	AE9A6	LDX	#TE26F
E9A9 DB10		ADDB	Y0010
E9AB C403		ANDB	#3
E9AD D710		STAB	Y0010
E9AF 3A 		ABX
E9B0 E600		LDAB	,X
E9B2 17 		TBA
E9B3 53 		COMB
E9B4 58 		ASLB
E9B5 58 		ASLB
E9B6 58 		ASLB
E9B7 58 		ASLB
E9B8 840F		ANDA	#$0F
E9BA 1B 		ABA
E9BB CE1008		LDX	#PORTD
E9BE 0F 		SEI
E9BF 1D0020		BCLR	,X,#$20         ;PORTD
E9C2 B11029		CMPA	Y1029           ;Serial Peripheral Status
E9C5 B7102A		STAA	SPDR

E9C8 96CF		LDAA	Y00CF
E9CA 8A01		ORAA	#1
E9CC 97CF		STAA	Y00CF
E9CE B76040		STAA	Y6040

E9D1 3D 		MUL
E9D2 1C0020		BSET	,X,#$20         ;PORTD
E9D5 0E 		CLI
		;-----------------------------------
E9D6 13DB8053	AE9D6	BRCLR	Y00DB,#$80,AEA2D  ;skip
		;
E9DA B6102E		LDAA	SCSR
E9DD 850E		BITA	#$0E            ;Test Rx Error
E9DF 36 		PSHA
E9E0 32 		PULA
E9E1 2705		BEQ	AE9E8           ;not error
E9E3 F6102F		LDAB	SCDR	        ;clear Rx Error
E9E6 2045		BRA	AEA2D           ;wait next
		* ------------------- *
E9E8 8520	AE9E8	BITA	#$20            ;RDRF ?
E9EA 2741		BEQ	AEA2D           ; wait next
E9EC F6102F		LDAB	SCDR
E9EF C1F2		CMPB	#$F2            ;cmd == 0xF2
E9F1 2605		BNE	AE9F8
E9F3 152140		BCLR	$21,#$40        ;clear $21,#$40
E9F6 2032		BRA	AEA2A		;echo
		* ------------------- *
E9F8 C1F6	AE9F8	CMPB	#$F6            ;cmd == 0xF6
E9FA 2605		BNE	AEA01
E9FC 142140		BSET	$21,#$40	;set  $21,#$40
E9FF 2029		BRA	AEA2A           ;echo
		* ------------------- *
EA01 C1FE	AEA01	CMPB	#$FE          	;cmd == 0xFE (stop)
EA03 2606		BNE	AEA0B
EA05 15DBB0		BCLR	Y00DB,#$B0     ;1011 0000
EA08 152140		BCLR	$21,#$40
EA0B 12214008	AEA0B	BRSET	$21,#$40,AEA17
EA0F CE0000		LDX	#$0000
EA12 3A 		ABX
EA13 E600		LDAB	,X
EA15 2013		BRA	AEA2A		;out RS
		* ------------------- *
EA17 B68A59	AEA17	LDAA	D8A59		;0x57
EA1A 11 		CBA
EA1B 2204		BHI	AEA21
EA1D C6FF		LDAB	#$FF
EA1F 2009		BRA	AEA2A           ;out RS
		* ------------------- *
EA21 CE8A5A	AEA21	LDX	#T8A5A
EA24 58 		ASLB
EA25 3A 		ABX
EA26 EE00		LDX	,X
EA28 E600		LDAB	,X
EA2A F7102F	AEA2A	STAB	SCDR             ;out RS
		;----------------------------
EA2D BDD821	AEA2D	JSR	AD821           ;get & test MAP
EA30 0F 		SEI
		;----------------------------
EA31 8680		LDAA	#$80
EA33 BA1022		ORAA	TMSK1           ;Enable
EA36 B71022		STAA	TMSK1           ;     OC1I
EA39 39 		RTS
		* ------------------- *
EA3A CC8EFF	AEA3A	LDD	#T8EFF
EA3D F71023		STAB	TFLG1           ;Clear All Flag
EA40 B71022		STAA	TMSK1           ;Enable  OC1I,OC5I,IC1I,IC2I
EA43 F71025		STAB	TFLG2           ;Clear TOF,RTIF,PAOVF,PAIF
EA46 7F1027		CLR	PACNT		;Clear Pulse Accumulator Count
EA49 C601	AEA49	LDAB	#1
EA4B B66001		LDAA	Y6001
EA4E 8501		BITA	#1
EA50 2702		BEQ	AEA54
EA52 C600		LDAB	#0
EA54 F76003	AEA54	STAB	Y6003
EA57 8401		ANDA	#1
EA59 B86001		EORA	Y6001
EA5C 8501		BITA	#1
EA5E 270E		BEQ	AEA6E
EA60 B66001		LDAA	Y6001
EA63 C601		LDAB	#1
EA65 8501		BITA	#1
EA67 2702		BEQ	AEA6B
EA69 C600		LDAB	#0
EA6B F76003	AEA6B	STAB	Y6003
EA6E CC01FB	AEA6E	LDD	#$01FB
EA71 F76005		STAB	Y6005
EA74 B76004		STAA	Y6004
EA77 39 		RTS
		* ------------------- *
EA78 CE1000	AEA78	LDX	#$1000		;base_register
		; DDRD
EA7B 1E093A03		BRSET	9,X,#$3A,AEA82  ;0011 1010
EA7F 1C093A		BSET	9,X,#$3A
EA82 1F090503	AEA82	BRCLR	9,X,#5,AEA89    ;0000 0101
EA86 1D0905		BCLR	9,X,#5
		;OC1M
EA89 1F0CF803	AEA89	BRCLR	$0C,X,#$F8,AEA90   ;Output Compare 1 Mask
EA8D 1D0CFF		BCLR	$0C,X,#$FF         ;clear
		;OC1D
EA90 1F0DF803	AEA90	BRCLR	$0D,X,#$F8,AEA97   ;Output Compare 1 Data
EA94 1D0DFF		BCLR	$0D,X,#$FF         ;clear
		;TCTL1
EA97 1E20A203	AEA97	BRSET	$20,X,#$A2,AEA9E   ;Timer Control Register 1
EA9B 1C20A2		BSET	$20,X,#$A2         ;
EA9E 1F200C03	AEA9E	BRCLR	$20,X,#$0C,AEAA5
EAA2 1D200C		BCLR	$20,X,#$0C
		;TCTL2
EAA5 1E211A03	AEAA5	BRSET	$21,X,#$1A,AEAAC   ;Timer Control Register 2
EAA9 1C211A		BSET	$21,X,#$1A
EAAC 1F212503	AEAAC	BRCLR	$21,X,#$25,AEAB3
EAB0 1D2125		BCLR	$21,X,#$25
		;TMSK1
EAB3 1E228E03	AEAB3	BRSET	$22,X,#$8E,AEABA   ;Timer Interrupt Mask 1
EAB7 1C228E		BSET	$22,X,#$8E
EABA 1F226103	AEABA	BRCLR	$22,X,#$61,AEAC1
EABE 1D2261		BCLR	$22,X,#$61
		;TMSK2
EAC1 1F24F003	AEAC1	BRCLR	$24,X,#$F0,AEAC8   ;Timer Interrupt Mask 2
EAC5 1D24F0		BCLR	$24,X,#$F0
		;PACTL
EAC8 1E267003	AEAC8	BRSET	$26,X,#$70,AEACF   ;Pulse Accumulator Control
EACC 1C2670		BSET	$26,X,#$70         ;0111 0000
EACF 1F268003	AEACF	BRCLR	$26,X,#$80,AEAD6
EAD3 1D2680		BCLR	$26,X,#$80
		;SPCR
EAD6 1E285403	AEAD6	BRSET	$28,X,#$54,AEADD   ;Serial Peripheral Control
EADA 1C2854		BSET	$28,X,#$54
EADD 1F28AB03	AEADD	BRCLR	$28,X,#$AB,AEAE4
EAE1 1D28AB		BCLR	$28,X,#$AB
		;SCCR1
EAE4 1F2C1803	AEAE4	BRCLR	$2C,X,#$18,AEAEB   ;Serial Communications control1
EAE8 1D2C18		BCLR	$2C,X,#$18
		;SCCR2
EAEB 1E2D0C03	AEAEB	BRSET	$2D,X,#$0C,AEAF2   ;Serial Communications control2
EAEF 1C2D0C		BSET	$2D,X,#$0C         ;00001100
EAF2 1F2DF303	AEAF2	BRCLR	$2D,X,#$F3,AEAF9
EAF6 1D2DF3		BCLR	$2D,X,#$F3
		;OPTION
EAF9 1E398803	AEAF9	BRSET	$39,X,#$88,AEB00   ;OPTION
EAFD 1C3988		BSET	$39,X,#$88
EB00 1F394003	AEB00	BRCLR	$39,X,#$40,AEB07
EB04 1D3940		BCLR	$39,X,#$40
		;HPRIO
EB07 1E3C0F05	AEB07	BRSET	$3C,X,#$0F,AEB10   ;HPRIO
EB0B 0F 		SEI
EB0C 1C3C0F		BSET	$3C,X,#$0F         ;HPRIO
EB0F 0E 		CLI
		;External Register
EB10 CE6000	AEB10	LDX	#$6000
EB13 0F 		SEI
EB14 1F027003		BRCLR	2,X,#$70,AEB1B
EB18 1D0270		BCLR	2,X,#$70
EB1B 1E028303	AEB1B	BRSET	2,X,#$83,AEB22
EB1F 1C0283		BSET	2,X,#$83
EB22 0E 	AEB22	CLI
EB23 1F03FE03		BRCLR	3,X,#$FE,AEB2A
EB27 1D03FE		BCLR	3,X,#$FE
EB2A 1F04FE03	AEB2A	BRCLR	4,X,#$FE,AEB31
EB2E 1D04FE		BCLR	4,X,#$FE
EB31 1E06F803	AEB31	BRSET	6,X,#$F8,AEB38
EB35 1C06F8		BSET	6,X,#$F8
EB38 1F060603	AEB38	BRCLR	6,X,#6,AEB3F
EB3C 1D0606		BCLR	6,X,#6
EB3F 39 	AEB3F	RTS
		* ------------------- *
EB40 46 	TEB40	FCB	$46
EB41 14 		FCB	$14
EB42 3D 		FCB	$3D
EB43 15 		FCB	$15
EB44 45 		FCB	$45
EB45 13 		FCB	$13
EB46 3D 	TEB46	FCB	$3D
EB47 14 		FCB	$14
EB48 15 		FCB	$15
EB49 13 		FCB	$13
		;----------------------------------
EB4A 9646	AEB4A	LDAA	T_RPM
EB4C 815E		CMPA	#$5E
EB4E 246E		BCC	AEBBE
EB50 965B		LDAA	Y005B           ;BATT_V
EB52 81C3		CMPA	#$C3
EB54 2568		BCS	AEBBE
EB56 B66000		LDAA	Y6000
EB59 8510		BITA	#$10
EB5B 2761		BEQ	AEBBE
EB5D 12CE105D		BRSET	$CE,#$10,AEBBE
EB61 8540		BITA	#$40
EB63 2659		BNE	AEBBE
EB65 12D72055		BRSET	$D7,#$20,AEBBE
EB69 0F 		SEI
EB6A B66001		LDAA	Y6001
EB6D 84F0		ANDA	#$F0
EB6F 2650		BNE	AEBC1
EB71 12278007		BRSET	$27,#$80,AEB7C
EB75 B61000		LDAA	PORTA
EB78 8560		BITA	#$60             ;01100000
EB7A 2645		BNE	AEBC1
EB7C 13218041	AEB7C	BRCLR	$21,#$80,AEBC1
EB80 C607		LDAB	#7
EB82 5A 	AEB82	DECB
EB83 26FD		BNE	AEB82
EB85 B66005		LDAA	Y6005
EB88 8504		BITA	#4
EB8A 262D		BNE	AEBB9
EB8C 963A		LDAA	Y003A
EB8E D63B		LDAB	Y003B
EB90 0E 		CLI
EB91 CEEB46		LDX	#TEB46
EB94 12278003		BRSET	$27,#$80,AEB9B
EB98 CEEB40		LDX	#TEB40
EB9B 8184	AEB9B	CMPA	#$84
EB9D 260B		BNE	AEBAA
EB9F 5A 		DECB
EBA0 2A08		BPL	AEBAA
EBA2 C603		LDAB	#3
EBA4 12278002		BRSET	$27,#$80,AEBAA
EBA8 C605		LDAB	#5
EBAA C407	AEBAA	ANDB	#7
EBAC 3A 		ABX
EBAD A600		LDAA	,X
EBAF C690		LDAB	#$90
EBB1 BDD163		JSR	AD163		;error xx90
EBB4 2403		BCC	AEBB9
EBB6 14D720		BSET	$D7,#$20
EBB9 C604	AEBB9	LDAB	#4
EBBB F76005		STAB	Y6005
EBBE 152180	AEBBE	BCLR	$21,#$80
EBC1 0E 	AEBC1	CLI
EBC2 39 		RTS
		* ------------------- *
EBC3 EC2D	TEBC3	FDB	AEC2D   ;0
EBC5 EF09		FDB	AEF09   ;1
EBC7 F023		FDB	AF023   ;2
EBC9 F150		FDB	AF150   ;3

		;Timer Input Capture 1
EBCB CC0510	AEBCB	LDD	#$0510
EBCE B71023		STAA	TFLG1		;Clear IC1F,IC3F
EBD1 F71030		STAB	Y1030           ;start ADC[0:3]
EBD4 F66080		LDAB	Y6080
EBD7 2603		BNE	AEBDC
EBD9 150501		BCLR	Y0005,#1
EBDC 7F00E0	AEBDC	CLR	Y00E0
EBDF 96D8		LDAA	Y00D8		;cmd_serial
EBE1 810A		CMPA	#$0A
EBE3 2606		BNE	AEBEB
EBE5 7F00D8		CLR	Y00D8           ;cmd_serial
EBE8 15DB30		BCLR	Y00DB,#$30    	;mode_serial
		;-----------------------------------
EBEB D63A	AEBEB	LDAB	Y003A          ;cmd????
EBED 2A27		BPL	AEC16          ;      skip
		;
EBEF 96F4		LDAA	Y00F4
EBF1 4C 		INCA
EBF2 270B		BEQ	AEBFF
EBF4 81FF		CMPA	#$FF
EBF6 2605		BNE	AEBFD
		;
EBF8 C601		LDAB	#1
EBFA F76005		STAB	Y6005
EBFD 97F4	AEBFD	STAA	Y00F4
		;
EBFF D63A	AEBFF	LDAB	Y003A
EC01 C504		BITB	#4          ;0100
EC03 2702		BEQ	AEC07
EC05 C4F8		ANDB	#$F8        ;Modul 3
EC07 5C 	AEC07	INCB                ;1,2,3
EC08 D73A		STAB	Y003A
		;math subrotine
EC0A C407		ANDB	#7
EC0C 5A 		DECB
EC0D 58 		ASLB
EC0E CEEBC3		LDX	#TEBC3
EC11 3A 		ABX
EC12 EE00		LDX	,X
EC14 6E00		JMP	,X

		* ------------------- *
EC16 B660B9	AEC16	LDAA	Y60B9
EC19 16 		TAB
EC1A 84E0		ANDA	#$E0
EC1C C41F		ANDB	#$1F
EC1E C11F		CMPB	#$1F
EC20 2701		BEQ	AEC23
EC22 5C 		INCB
EC23 1B 	AEC23	ABA
EC24 B760B9		STAA	Y60B9
EC27 BDEA49		JSR	AEA49
EC2A 7EF343		JMP	AF343
		* ------------------- *
		;Timer Input Capture 1 subr0
EC2D 12CF4011	AEC2D	BRSET	$CF,#$40,AEC42
EC31 BDF370		JSR	AF370           ;Clear  OC4F
EC34 CCFFFF		LDD	#$FFFF
EC37 F3100E		ADDD	TCNT            ;262.140 ms
EC3A FD101C		STD	TOC4
EC3D 8610		LDAA	#$10
EC3F B71023		STAA	TFLG1		;Clear  OC4F
EC42 12278014	AEC42	BRSET	$27,#$80,AEC5A
EC46 13274024		BRCLR	$27,#$40,AEC6E
EC4A 963B		LDAA	Y003B
EC4C 2720		BEQ	AEC6E
EC4E 8103		CMPA	#3
EC50 271C		BEQ	AEC6E
EC52 8101		CMPA	#1
EC54 270F		BEQ	AEC65
EC56 8104		CMPA	#4
EC58 270B		BEQ	AEC65
EC5A 96CF	AEC5A	LDAA	Y00CF
EC5C 84FD		ANDA	#$FD
EC5E 97CF		STAA	Y00CF
EC60 B76040		STAA	Y6040
EC63 2009		BRA	AEC6E
		* ------------------- *
EC65 96CF	AEC65	LDAA	Y00CF
EC67 8A02		ORAA	#2
EC69 97CF		STAA	Y00CF
EC6B B76040		STAA	Y6040
EC6E FC1010	AEC6E	LDD	TIC1
EC71 CE0034		LDX	#$0034
EC74 18CE6090		LDY	#$6090
EC78 BDE45A		JSR	AE45A
EC7B 9634		LDAA	Y0034
EC7D 44 		LSRA
EC7E 9735		STAA	Y0035         ; Hig TimeTic
EC80 FC1010		LDD	TIC1          ;get new_tic
EC83 9338		SUBD	old_tic       ;new_time= new_tic - old_tic
EC85 DD36		STD	TimeTic       ;Set Time TIC
EC87 FC1010		LDD	TIC1
EC8A DD38		STD	old_tic       ;set  old_tic
EC8C 7F0034		CLR	Y0034
EC8F B660A5		LDAA	Y60A5	      ;new_BATT_V2
EC92 5F 		CLRB
EC93 04 		LSRD
EC94 04 		LSRD
EC95 04 		LSRD
EC96 FD6095		STD	Y6095
EC99 DC36		LDD	TimeTic
EC9B 8300C8		SUBD	#200    	;*4 = 800 uS
EC9E 1AB36095		CPD	Y6095
ECA2 2503		BCS	AECA7
ECA4 FC6095		LDD	Y6095
ECA7 FD6095	AECA7	STD	Y6095
ECAA 9635		LDAA	Y0035
ECAC 263E		BNE	AECEC
ECAE CE6000		LDX	#$6000
ECB1 FC82B1		LDD	D82B1        	;80 ms
ECB4 1A9336		CPD	TimeTic
ECB7 2533		BCS	AECEC
ECB9 12204037		BRSET	$20,#$40,AECF4
ECBD 13238008		BRCLR	$23,#$80,AECC9
ECC1 1E002004		BRSET	,X,#$20,AECC9
ECC5 967F		LDAA	Y007F
ECC7 2708		BEQ	AECD1
ECC9 FC82AF	AECC9	LDD	D82AF
ECCC 1A9336		CPD	TimeTic
ECCF 251B		BCS	AECEC
ECD1 142040	AECD1	BSET	$20,#$40
ECD4 CC0000		LDD	#$0000
ECD7 DD44		STD	Y0044
ECD9 97E0		STAA	Y00E0
ECDB 1480FF		BSET	$80,#$FF
ECDE BDC3AF		JSR	AC3AF
ECE1 BDC3E3		JSR	AC3E3
ECE4 BDC589		JSR	AC589
ECE7 BDC5CA		JSR	AC5CA
ECEA 2008		BRA	AECF4
		* ------------------- *
ECEC 152040	AECEC	BCLR	$20,#$40
ECEF B6861A		LDAA	D861A
ECF2 977A		STAA	Y007A
ECF4 9635	AECF4	LDAA	Y0035
ECF6 263B		BNE	AED33
ECF8 CE6000		LDX	#$6000
ECFB FC807C		LDD	D807C		;80 ms
ECFE 1A9336		CPD	TimeTic
ED01 2530		BCS	AED33
ED03 1220014F		BRSET	$20,#1,AED56
ED07 13238008		BRCLR	$23,#$80,AED13
ED0B 1E002004		BRSET	,X,#$20,AED13
ED0F 967F		LDAA	Y007F
ED11 2708		BEQ	AED1B
ED13 FC807A	AED13	LDD	D807A
ED16 1A9336		CPD	TimeTic
ED19 2518		BCS	AED33
ED1B B61022	AED1B	LDAA	TMSK1
ED1E 8A10		ORAA	#$10 	       ;Enable  OC4I
ED20 B71022		STAA	TMSK1
ED23 CCFFFF		LDD	#$FFFF
ED26 F3100E		ADDD	TCNT           ;262.140 ms
ED29 FD101C		STD	TOC4
ED2C 8610		LDAA	#$10
ED2E B71023		STAA	TFLG1		;Clear OC4F
ED31 2023		BRA	AED56
		* ------------------- *
ED33 152001	AED33	BCLR	$20,#1
ED36 142D80		BSET	$2D,#$80
ED39 8608		LDAA	#8
ED3B 974D		STAA	Y004D
ED3D 974E		STAA	Y004E
ED3F B61022		LDAA	TMSK1
ED42 84EF		ANDA	#$EF      	;Disable OC4I
ED44 B71022		STAA	TMSK1
ED47 96CF		LDAA	Y00CF
ED49 8A40		ORAA	#$40
ED4B 97CF		STAA	Y00CF
ED4D B76040		STAA	Y6040
ED50 142002		BSET	$20,#2
ED53 7EEE38		JMP	AEE38
		* ------------------- *
ED56 132D800B	AED56	BRCLR	$2D,#$80,AED65
ED5A 964D		LDAA	Y004D
ED5C BB807F		ADDA	D807F
ED5F 2A02		BPL	AED63
ED61 867F		LDAA	#$7F
ED63 974D	AED63	STAA	Y004D
ED65 12278037	AED65	BRSET	$27,#$80,AEDA0
ED69 1320010F		BRCLR	$20,#1,AED7C
ED6D D646		LDAB	T_RPM
ED6F C11F		CMPB	#$1F
ED71 2509		BCS	AED7C
ED73 964E		LDAA	Y004E
ED75 8150		CMPA	#$50
ED77 2503		BCS	AED7C
ED79 7EEE38		JMP	AEE38
		* ------------------- *
ED7C 964A	AED7C	LDAA	Y004A		      ;Fuel_Data
ED7E 132D800B		BRCLR	$2D,#$80,AED8D
ED82 914D		CMPA	Y004D
ED84 2304		BLS	AED8A
ED86 964D		LDAA	Y004D
ED88 2003		BRA	AED8D
		* ------------------- *
ED8A 152D80	AED8A	BCLR	$2D,#$80
ED8D 974E	AED8D	STAA	Y004E
ED8F 142001		BSET	$20,#1
ED92 8680		LDAA	#$80
ED94 904E		SUBA	Y004E
ED96 36 		PSHA
ED97 C611		LDAB	#$11
ED99 3D 		MUL
ED9A 8900		ADCA	#0
ED9C 33 		PULB
ED9D 1B 		ABA
ED9E 2032		BRA	AEDD2
		* ------------------- *
EDA0 1320010F	AEDA0	BRCLR	$20,#1,AEDB3
EDA4 D646		LDAB	T_RPM
EDA6 C11F		CMPB	#$1F
EDA8 2509		BCS	AEDB3
EDAA 964E		LDAA	Y004E
EDAC 8150		CMPA	#$50
EDAE 2503		BCS	AEDB3
EDB0 7EEE38		JMP	AEE38
		* ------------------- *
EDB3 964A	AEDB3	LDAA	Y004A                 ;Fuel_Data
EDB5 132D800B		BRCLR	$2D,#$80,AEDC4
EDB9 914D		CMPA	Y004D
EDBB 2304		BLS	AEDC1
EDBD 964D		LDAA	Y004D
EDBF 2003		BRA	AEDC4
		* ------------------- *
EDC1 152D80	AEDC1	BCLR	$2D,#$80
EDC4 974E	AEDC4	STAA	Y004E
EDC6 142001		BSET	$20,#1
EDC9 8680		LDAA	#$80
EDCB 904E		SUBA	Y004E
EDCD C6B6		LDAB	#$B6
EDCF 3D 		MUL
EDD0 8900		ADCA	#0
EDD2 36 	AEDD2	PSHA
EDD3 D636		LDAB	TimeTic
EDD5 3D 		MUL
EDD6 FD608B		STD	Y608B
EDD9 32 		PULA
EDDA D637		LDAB	Y0037
EDDC 3D 		MUL
EDDD 8900		ADCA	#0
EDDF 16 		TAB
EDE0 4F 		CLRA
EDE1 F3608B		ADDD	Y608B
EDE4 D338		ADDD	old_tic
EDE6 83000A		SUBD	#$000A
EDE9 FD608B		STD	Y608B
EDEC 142002		BSET	$20,#2

EDEF CE1020		LDX	#TCTL1
EDF2 B36095		SUBD	Y6095
EDF5 FD608D		STD	Y608D

EDF8 B3100E		SUBD	TCNT
EDFB 2B0D		BMI	AEE0A
EDFD 1A830020		CPD	#32	;*4= 128 uS
EE01 2B07		BMI	AEE0A
		;
EE03 B61000		LDAA	PORTA
EE06 8508		BITA	#8
EE08 2718		BEQ	AEE22

EE0A 1C0003	AEE0A	BSET	,X,#3           ;Force
EE0D 8608		LDAA	#8              ;   Set
EE0F B7100B		STAA	CFORC           ;       OC5

EE12 FC608B		LDD	Y608B           ;Set Time
EE15 FD101E		STD	TOC5            ;        Compare

EE18 1D0001		BCLR	,X,#1           ;Compare Clear  OC5
EE1B 8608		LDAA	#8
EE1D B71023		STAA	TFLG1           ;Clear OC5F
EE20 2016		BRA	AEE38
		* ------------------- *
EE22 1D0001	AEE22	BCLR	,X,#1		;Force
EE25 8608		LDAA	#8              ;   Clear
EE27 B7100B		STAA	CFORC           ;         OC5

EE2A FC608D		LDD	Y608D		;Set Time
EE2D FD101E		STD	TOC5            ;        Compare

EE30 1C0003		BSET	,X,#3           ;Compare Set  OC5
EE33 8608		LDAA	#8
EE35 B71023		STAA	TFLG1           ;Clear OC5F

EE38 B61023	AEE38	LDAA	TFLG1           ;Test
EE3B 8508		BITA	#8              ;    OC5F
EE3D 2703		BEQ	AEE42
EE3F BDF37A		JSR	AF37A           ;Soft Force TC5 Interrupt

EE42 12200405	AEE42	BRSET	$20,#4,AEE4B
EE46 BDC601		JSR	AC601
EE49 2046		BRA	AEE91
		* ------------------- *
EE4B B61030	AEE4B	LDAA	Y1030           ;ADCTL
EE4E 2AFB		BPL	AEE4B
EE50 B61031		LDAA	Y1031           ;get map
EE53 D646		LDAB	T_RPM
EE55 C12F		CMPB	#$2F
EE57 240E		BCC	AEE67
EE59 C10D		CMPB	#$0D
EE5B 250A		BCS	AEE67
EE5D B18A0A		CMPA	D8A0A           ;max_map 253
EE60 2409		BCC	AEE6B
EE62 B18A09		CMPA	D8A09           ;min_map  2
EE65 2504		BCS	AEE6B
EE67 13D58803	AEE67	BRCLR	$D5,#$88,AEE6E
EE6B BDD63E	AEE6B	JSR	AD63E
EE6E BDE432	AEE6E	JSR	AE432           ;Convert Map
EE71 16 		TAB
EE72 F760A9		STAB	Y60A9
EE75 201A		BRA	AEE91
		* ------------------- *
EE77 60 	TEE77	FDB	$6008
EE79 60 		FDB	$600C
EE7B 60 		FDB	$600E
EE7D 60 		FDB	$600A
EE7F 10 	TEE7F	FDB	TOC3
EE81 60 		FDB	$600C
EE83 60 		FDB	$6008
EE85 60 		FDB	$600E
EE87 10 		FDB	TOC2
EE89 60 		FDB	$600A
EE8B 10 	TEE8B	FCB	$10
EE8C 20 		FCB	$20
EE8D EF 		FCB	$EF
EE8E 40 	TEE8E	FCB	$40
EE8F 40 		FCB	$40
EE90 BF 		FCB	$BF
EE91 DC6F	AEE91	LDD	Y006F
EE93 2770		BEQ	AEF05
EE95 132C0302		BRCLR	$2C,#3,AEE9B
EE99 206A		BRA	AEF05
		* ------------------- *
EE9B CEEE77	AEE9B	LDX	#TEE77
EE9E 12278003		BRSET	$27,#$80,AEEA5
EEA2 CEEE7F		LDX	#TEE7F
EEA5 D63B	AEEA5	LDAB	Y003B
EEA7 58 		ASLB
EEA8 3A 		ABX
EEA9 EE00		LDX	,X
EEAB 18CEEE8B		LDY	#TEE8B
EEAF 8C101A		CPX	#TOC3
EEB2 2718		BEQ	AEECC
EEB4 18CEEE8E		LDY	#TEE8E
EEB8 8C1018		CPX	#TOC2
EEBB 270F		BEQ	AEECC
EEBD DC6F		LDD	Y006F
EEBF ED00		STD	,X
EEC1 1A83007F		CPD	#$007F
EEC5 2503		BCS	AEECA
EEC7 142180		BSET	$21,#$80
EECA 2025	AEECA	BRA	AEEF1
		* ------------------- *
EECC 18EC00	AEECC	LDD	,Y
EECF BA1020		ORAA	TCTL1
EED2 B71020		STAA	TCTL1
EED5 F7100B		STAB	CFORC           ;Timer Compare Force
EED8 FC100E		LDD	TCNT
EEDB D36F		ADDD	Y006F
EEDD ED00		STD	,X
EEDF 1A83007F		CPD	#$007F
EEE3 2503		BCS	AEEE8
EEE5 142180		BSET	$21,#$80
EEE8 18A602	AEEE8	LDAA	2,Y
EEEB B41020		ANDA	TCTL1
EEEE B71020		STAA	TCTL1
EEF1 DC6F	AEEF1	LDD	Y006F
EEF3 04 		LSRD
EEF4 04 		LSRD
EEF5 D3F8		ADDD	Y00F8
EEF7 2403		BCC	AEEFC
EEF9 CCFFFF		LDD	#$FFFF
EEFC DDF8	AEEFC	STD	Y00F8
EEFE 96FC		LDAA	Y00FC
EF00 4C 		INCA
EF01 2702		BEQ	AEF05
EF03 97FC		STAA	Y00FC
EF05 3B 	AEF05	RTI
		* ------------------- *
EF06 7EEFEC	AEF06	JMP	AEFEC
		* ------------------- *
		;Timer Input Capture 1 subr 1
EF09 FC1010	AEF09	LDD	TIC1
EF0C FD6091		STD	Y6091
EF0F 13200130		BRCLR	$20,#1,AEF43
EF13 9646		LDAA	T_RPM
EF15 815E		CMPA	#$5E
EF17 24ED		BCC	AEF06
EF19 FC6091		LDD	Y6091
EF1C 132002E6		BRCLR	$20,#2,AEF06
EF20 9338		SUBD	old_tic
EF22 05 		ASLD
EF23 05 		ASLD
EF24 188F		XGDY
EF26 8658		LDAA	#$58
EF28 904E		SUBA	Y004E
EF2A 2FDA		BLE	AEF06
EF2C C6CD		LDAB	#205
EF2E 3D 		MUL
EF2F 05 		ASLD
EF30 58 		ASLB
EF31 8900		ADCA	#0
EF33 BDE364		JSR	AE364
EF36 188F		XGDY
EF38 F31010		ADDD	TIC1
EF3B 83000A		SUBD	#$000A
EF3E FD608B		STD	Y608B
EF41 200F		BRA	AEF52
		* ------------------- *
EF43 CC0308	AEF43	LDD	#$0308
EF46 BA1020		ORAA	TCTL1
EF49 B71020		STAA	TCTL1
EF4C F71023		STAB	TFLG1		;Clear OC5F
EF4F 7EEFE7		JMP	AEFE7
		* ------------------- *
EF52 B61000	AEF52	LDAA	PORTA
EF55 8508		BITA	#8
EF57 2634		BNE	AEF8D
EF59 B61020		LDAA	TCTL1
EF5C 8501		BITA	#1
EF5E 2603		BNE	AEF63
EF60 7EEFEC		JMP	AEFEC
		* ------------------- *
EF63 FC608B	AEF63	LDD	Y608B
EF66 B36095		SUBD	Y6095
EF69 FD101E		STD	TOC5
EF6C F61020		LDAB	TCTL1
EF6F CA03		ORAB	#3
EF71 F71020		STAB	TCTL1
EF74 FC101E		LDD	TOC5
EF77 830040		SUBD	#$0040
EF7A B3100E		SUBD	TCNT
EF7D 2A6D		BPL	AEFEC
EF7F 8608		LDAA	#8
EF81 B7100B		STAA	CFORC		;FOC5
EF84 FC100E		LDD	TCNT
EF87 F36095		ADDD	Y6095
EF8A FD608B		STD	Y608B
EF8D B61020	AEF8D	LDAA	TCTL1
EF90 8501		BITA	#1
EF92 271B		BEQ	AEFAF
EF94 964E		LDAA	Y004E
EF96 8128		CMPA	#$28
EF98 2552		BCS	AEFEC
EF9A FC101E		LDD	TOC5
EF9D F36095		ADDD	Y6095
EFA0 FD101E		STD	TOC5
EFA3 CCFE08		LDD	#TFE08
EFA6 B41020		ANDA	TCTL1
EFA9 B71020		STAA	TCTL1
EFAC F71023		STAB	TFLG1		;Clear OC5F
EFAF 964E	AEFAF	LDAA	Y004E
EFB1 8128		CMPA	#$28
EFB3 2415		BCC	AEFCA
EFB5 B61020		LDAA	TCTL1
EFB8 8A03		ORAA	#3
EFBA B71020		STAA	TCTL1
EFBD FC100E		LDD	TCNT
EFC0 FD101E		STD	TOC5            ;current
EFC3 8608		LDAA	#8
EFC5 B71023		STAA	TFLG1		;Clear OC5F
EFC8 2022		BRA	AEFEC
		* ------------------- *
EFCA FC608B	AEFCA	LDD	Y608B
EFCD B3101E		SUBD	TOC5
EFD0 1A830010		CPD	#$0010
EFD4 2506		BCS	AEFDC
EFD6 FC608B		LDD	Y608B
EFD9 FD101E		STD	TOC5
EFDC FC101E	AEFDC	LDD	TOC5
EFDF B3100E		SUBD	TCNT
EFE2 2A08		BPL	AEFEC
EFE4 152002		BCLR	$20,#2
EFE7 8608	AEFE7	LDAA	#8
EFE9 B7100B		STAA	CFORC		;FOC5
EFEC B660AC	AEFEC	LDAA	Y60AC
EFEF BB60AB		ADDA	Y60AB
EFF2 2828		BVC	AF01C
EFF4 13250423		BRCLR	$25,#4,AF01B
EFF8 D669		LDAB	Y0069
EFFA D108		CMPB	Y0008
EFFC 261D		BNE	AF01B
EFFE F68660		LDAB	D8660
F001 2718		BEQ	AF01B
F003 4D 		TSTA
F004 2B08		BMI	AF00E
F006 9669		LDAA	Y0069
F008 10 		SBA
F009 240E		BCC	AF019
F00B 4F 		CLRA
F00C 200B		BRA	AF019
		* ------------------- *
F00E B6876E	AF00E	LDAA	D876E
F011 DB69		ADDB	Y0069
F013 2504		BCS	AF019
F015 11 		CBA
F016 2301		BLS	AF019
F018 17 		TBA
F019 9769	AF019	STAA	Y0069
F01B 4F 	AF01B	CLRA
F01C B760AB	AF01C	STAA	Y60AB
F01F 3B 		RTI
		* ------------------- *
F020 7EF0D8	AF020	JMP	AF0D8
		* ------------------- *
		;Timer Input Capture 1 subr2
F023 FC1010	AF023	LDD	TIC1
F026 FD6093		STD	Y6093
F029 9646		LDAA	T_RPM
F02B 815E		CMPA	#$5E
F02D 24F1		BCC	AF020
F02F 132002ED		BRCLR	$20,#2,AF020
F033 FC1010		LDD	TIC1
F036 B36091		SUBD	Y6091
F039 05 		ASLD
F03A 05 		ASLD
F03B 188F		XGDY
F03D 8630		LDAA	#$30
F03F 904E		SUBA	Y004E
F041 2401		BCC	AF044
F043 4F 		CLRA
F044 C6CD	AF044	LDAB	#$CD
F046 3D 		MUL
F047 05 		ASLD
F048 58 		ASLB
F049 8900		ADCA	#0
F04B BDE364		JSR	AE364
F04E 188F		XGDY
F050 F31010		ADDD	TIC1
F053 83000A		SUBD	#$000A
F056 FD608B		STD	Y608B
F059 132001C3		BRCLR	$20,#1,AF020
F05D B61000		LDAA	PORTA
F060 8508		BITA	#8
F062 2636		BNE	AF09A
F064 B61020		LDAA	TCTL1
F067 8501		BITA	#1
F069 276D		BEQ	AF0D8
F06B FC608B		LDD	Y608B
F06E B36095		SUBD	Y6095
F071 FD101E		STD	TOC5
F074 F61020		LDAB	TCTL1
F077 CA03		ORAB	#3
F079 F71020		STAB	TCTL1
F07C C608		LDAB	#8
F07E F71023		STAB	TFLG1		;Clear OC5F
F081 FC101E		LDD	TOC5
F084 830040		SUBD	#$0040
F087 B3100E		SUBD	TCNT
F08A 2A4C		BPL	AF0D8
F08C 8608		LDAA	#8
F08E B7100B		STAA	CFORC		;FOC5
F091 FC100E		LDD	TCNT
F094 F36095		ADDD	Y6095
F097 FD608B		STD	Y608B
F09A B61020	AF09A	LDAA	TCTL1
F09D 8501		BITA	#1
F09F 2715		BEQ	AF0B6
F0A1 FC101E		LDD	TOC5
F0A4 F36095		ADDD	Y6095
F0A7 FD101E		STD	TOC5
F0AA CCFE08		LDD	#TFE08
F0AD B41020		ANDA	TCTL1
F0B0 B71020		STAA	TCTL1
F0B3 F71023		STAB	TFLG1		;Clear OC5F
F0B6 FC608B	AF0B6	LDD	Y608B
F0B9 B3101E		SUBD	TOC5
F0BC 1A830010		CPD	#$0010
F0C0 2506		BCS	AF0C8
F0C2 FC608B		LDD	Y608B
F0C5 FD101E		STD	TOC5
F0C8 FC101E	AF0C8	LDD	TOC5
F0CB B3100E		SUBD	TCNT
F0CE 2A08		BPL	AF0D8
F0D0 152002		BCLR	$20,#2
F0D3 8608		LDAA	#8
F0D5 B7100B		STAA	CFORC		;FOC5
F0D8 9646	AF0D8	LDAA	T_RPM
F0DA 816D		CMPA	#$6D
F0DC 2411		BCC	AF0EF
F0DE 816A		CMPA	#$6A
F0E0 2403		BCC	AF0E5
F0E2 152004		BCLR	$20,#4
F0E5 BDE401	AF0E5	JSR	AE401	    ;math_rpm
F0E8 DD46		STD	T_RPM       ;rpm_??????
F0EA BDE478		JSR	AE478       ;rpm
F0ED 2003		BRA	AF0F2
		* ------------------- *
F0EF 142004	AF0EF	BSET	$20,#4
F0F2 4F 	AF0F2	CLRA
F0F3 13224005		BRCLR	$22,#$40,AF0FC
F0F7 9642		LDAA	Y0042
F0F9 4C 		INCA
F0FA 2702		BEQ	AF0FE
F0FC 9742	AF0FC	STAA	Y0042
F0FE 9642	AF0FE	LDAA	Y0042
F100 B181BB		CMPA	D81BB
F103 2505		BCS	AF10A
F105 142010		BSET	$20,#$10
F108 2003		BRA	AF10D
		* ------------------- *
F10A 152010	AF10A	BCLR	$20,#$10
F10D 96BA	AF10D	LDAA	Y00BA
F10F 2703		BEQ	AF114
F111 4A 		DECA
F112 97BA		STAA	Y00BA
F114 96BB	AF114	LDAA	Y00BB
F116 2703		BEQ	AF11B
F118 4A 		DECA
F119 97BB		STAA	Y00BB
F11B 96BC	AF11B	LDAA	Y00BC
F11D 2703		BEQ	AF122
F11F 4A 		DECA
F120 97BC		STAA	Y00BC
F122 96B9	AF122	LDAA	Y00B9
F124 2703		BEQ	AF129
F126 4A 		DECA
F127 97B9		STAA	Y00B9
F129 96B6	AF129	LDAA	Y00B6
F12B 4C 		INCA
F12C 2702		BEQ	AF130
F12E 97B6		STAA	Y00B6
F130 4F 	AF130	CLRA
F131 13200105		BRCLR	$20,#1,AF13A
F135 9643		LDAA	Y0043
F137 4C 		INCA
F138 2702		BEQ	AF13C
F13A 9743	AF13A	STAA	Y0043
F13C 96B7	AF13C	LDAA	Y00B7
F13E 2703		BEQ	AF143
F140 4A 		DECA
F141 97B7		STAA	Y00B7
F143 B66097	AF143	LDAA	Y6097
F146 4C 		INCA
F147 2703		BEQ	AF14C
F149 B76097		STAA	Y6097
F14C 7EF14F	AF14C	JMP	AF14F
		* ------------------- *
F14F 3B 	AF14F	RTI
		* ------------------- *
		;Timer Input Capture 1 subr3
F150 12200112	AF150	BRSET	$20,#1,AF166
F154 B61020		LDAA	TCTL1
F157 84FE		ANDA	#$FE
F159 B71020		STAA	TCTL1
F15C 8608		LDAA	#8
F15E B7100B		STAA	CFORC		;FOC5
F161 152002		BCLR	$20,#2
F164 202C		BRA	AF192
		* ------------------- *
F166 2000	AF166	BRA	AF168
		* ------------------- *
F168 4F 	AF168	CLRA
F169 5F 		CLRB
F16A 201B		BRA	AF187
		* ------------------- *
		* >> NO EXECUTION PATH TO HERE <<
F16C 96CF		LDAA	Y00CF
F16E 84BF		ANDA	#$BF
F170 97CF		STAA	Y00CF
F172 B76040		STAA	Y6040
F175 FC1010		LDD	TIC1
F178 B36093		SUBD	Y6093
F17B FD608F		STD	Y608F
F17E CE608F		LDX	#$608F
F181 FC828E		LDD	D828E
F184 BDE378		JSR	AE378

F187 F31010	AF187	ADDD	TIC1
F18A FD101C		STD	TOC4
F18D 8610		LDAA	#$10
F18F B71023		STAA	TFLG1		;Clear OC4F
F192 963B	AF192	LDAA	Y003B
F194 4C 		INCA
F195 12278004		BRSET	$27,#$80,AF19D
F199 8106		CMPA	#6
F19B 2002		BRA	AF19F
		* ------------------- *
F19D 8104	AF19D	CMPA	#4
F19F 2501	AF19F	BCS	AF1A2
F1A1 4F 		CLRA
F1A2 973B	AF1A2	STAA	Y003B
F1A4 1227801F		BRSET	$27,#$80,AF1C7
F1A8 13274024		BRCLR	$27,#$40,AF1D0
F1AC 963B		LDAA	Y003B
F1AE 2717		BEQ	AF1C7
F1B0 8103		CMPA	#3
F1B2 2713		BEQ	AF1C7
F1B4 8102		CMPA	#2
F1B6 2718		BEQ	AF1D0
F1B8 8105		CMPA	#5
F1BA 2714		BEQ	AF1D0
F1BC 96CF		LDAA	Y00CF
F1BE 84FD		ANDA	#$FD
F1C0 97CF		STAA	Y00CF
F1C2 B76040		STAA	Y6040
F1C5 2009		BRA	AF1D0
		* ------------------- *
F1C7 96CF	AF1C7	LDAA	Y00CF
F1C9 8A02		ORAA	#2
F1CB 97CF		STAA	Y00CF
F1CD B76040		STAA	Y6040
F1D0 12200103	AF1D0	BRSET	$20,#1,AF1D7
F1D4 7EF2A0		JMP	AF2A0
		* ------------------- *
F1D7 12278031	AF1D7	BRSET	$27,#$80,AF20C
F1DB D646		LDAB	T_RPM
F1DD C11F		CMPB	#$1F
F1DF 2403		BCC	AF1E4
F1E1 7EF2A0		JMP	AF2A0
		* ------------------- *
F1E4 964A	AF1E4	LDAA	Y004A                 ;Fuel_Data
F1E6 132D800B		BRCLR	$2D,#$80,AF1F5
F1EA 914D		CMPA	Y004D
F1EC 2504		BCS	AF1F2
F1EE 964D		LDAA	Y004D
F1F0 2003		BRA	AF1F5
		* ------------------- *
F1F2 152D80	AF1F2	BCLR	$2D,#$80
F1F5 974E	AF1F5	STAA	Y004E
F1F7 8150		CMPA	#$50
F1F9 2403		BCC	AF1FE
F1FB 7EF2A0		JMP	AF2A0
		* ------------------- *
F1FE 86F8	AF1FE	LDAA	#$F8
F200 904E		SUBA	Y004E
F202 36 		PSHA
F203 C611		LDAB	#$11
F205 3D 		MUL
F206 8900		ADCA	#0
F208 33 		PULB
F209 1B 		ABA
F20A 202D		BRA	AF239
		* ------------------- *
F20C D646	AF20C	LDAB	T_RPM
F20E C11F		CMPB	#$1F
F210 2517		BCS	AF229
F212 964A		LDAA	Y004A                 ;Fuel_Data
F214 132D800B		BRCLR	$2D,#$80,AF223
F218 914D		CMPA	Y004D
F21A 2504		BCS	AF220
F21C 964D		LDAA	Y004D
F21E 2003		BRA	AF223
		* ------------------- *
F220 152D80	AF220	BCLR	$2D,#$80
F223 974E	AF223	STAA	Y004E
F225 8150		CMPA	#$50
F227 2403		BCC	AF22C
F229 7EF2A0	AF229	JMP	AF2A0
		* ------------------- *
F22C 44 	AF22C	LSRA
F22D 16 		TAB
F22E 86B8		LDAA	#$B8
F230 10 		SBA
F231 36 		PSHA
F232 C66C		LDAB	#$6C
F234 3D 		MUL
F235 8900		ADCA	#0
F237 33 		PULB
F238 1B 		ABA
F239 36 	AF239	PSHA
F23A D636		LDAB	TimeTic
F23C 3D 		MUL
F23D FD608B		STD	Y608B
F240 32 		PULA
F241 D637		LDAB	Y0037
F243 3D 		MUL
F244 8900		ADCA	#0
F246 16 		TAB
F247 4F 		CLRA
F248 F3608B		ADDD	Y608B
F24B F31010		ADDD	TIC1
F24E 83000A		SUBD	#$000A
F251 FD608B		STD	Y608B
F254 142002		BSET	$20,#2
F257 CE1020		LDX	#TCTL1
F25A B36095		SUBD	Y6095
F25D FD608D		STD	Y608D
F260 B3100E		SUBD	TCNT
F263 2B0D		BMI	AF272
F265 1A830020		CPD	#$0020
F269 2B07		BMI	AF272
F26B B61000		LDAA	PORTA
F26E 8508		BITA	#8
F270 2718		BEQ	AF28A
F272 1C0003	AF272	BSET	,X,#3
F275 8608		LDAA	#8
F277 B7100B		STAA	CFORC		;FOC5
F27A FC608B		LDD	Y608B
F27D FD101E		STD	TOC5
F280 1D0001		BCLR	,X,#1
F283 8608		LDAA	#8
F285 B71023		STAA	TFLG1		;Clear OC5F
F288 2016		BRA	AF2A0
		* ------------------- *
F28A 1D0001	AF28A	BCLR	,X,#1
F28D 8608		LDAA	#8
F28F B7100B		STAA	CFORC		;FOC5
F292 FC608D		LDD	Y608D
F295 FD101E		STD	TOC5
F298 1C0003		BSET	,X,#3
F29B 8608		LDAA	#8
F29D B71023		STAA	TFLG1		;Clear OC5F
F2A0 B61030	AF2A0	LDAA	Y1030           ;ADCTL
F2A3 2AFB		BPL	AF2A0
F2A5 FC1033		LDD	Y1033           ;ADC2,3
F2A8 9753		STAA	Y0053           ;O2_DATA
F2AA D75A		STAB	Y005A           ;TPS_DATA
F2AC F189FD		CMPB	D89FD
F2AF 250B		BCS	AF2BC
F2B1 F189FE		CMPB	D89FE
F2B4 2406		BCC	AF2BC
F2B6 12D54002		BRSET	$D5,#$40,AF2BC
F2BA D751		STAB	Y0051
F2BC B61031	AF2BC	LDAA	Y1031           ;ADC0/ADC4
F2BF D646		LDAB	T_RPM
F2C1 C12F		CMPB	#$2F
F2C3 240E		BCC	AF2D3
F2C5 C10D		CMPB	#$0D
F2C7 250A		BCS	AF2D3
F2C9 B18A0A		CMPA	D8A0A           ;max_map 253
F2CC 2409		BCC	AF2D7
F2CE B18A09		CMPA	D8A09           ;min_map  2
F2D1 2504		BCS	AF2D7
F2D3 13D58803	AF2D3	BRCLR	$D5,#$88,AF2DA
F2D7 BDD63E	AF2D7	JSR	AD63E
F2DA BDE432	AF2DA	JSR	AE432           ;Convert Map
F2DD 16 		TAB
F2DE 13200408		BRCLR	$20,#4,AF2EA
F2E2 FB60A9		ADDB	Y60A9
F2E5 56 		RORB
F2E6 D750		STAB	Y0050           ;MAP_DATA
F2E8 2005		BRA	AF2EF
		* ------------------- *
F2EA F760A9	AF2EA	STAB	Y60A9
F2ED D650		LDAB	Y0050           ;MAP_DATA
F2EF 960D	AF2EF	LDAA	Y000D
F2F1 10 		SBA
F2F2 2401		BCC	AF2F5
F2F4 4F 		CLRA
F2F5 974F	AF2F5	STAA	Y004F
F2F7 BDD838		JSR	AD838
F2FA 13204045		BRCLR	$20,#$40,AF343
F2FE B61023		LDAA	TFLG1           ;Test
F301 8508		BITA	#8              ;    OC5F
F303 2703		BEQ	AF308
F305 BDF37A		JSR	AF37A           ;Soft Force TC5 Interrupt
F308 B61023	AF308	LDAA	TFLG1           ;Test
F30B 8510		BITA	#$10            ;    OC4F
F30D 2703		BEQ	AF312
F30F BDF370		JSR	AF370           ;Clear  OC4F
F312 BDC3AF	AF312	JSR	AC3AF
F315 BDC3E3		JSR	AC3E3
F318 BDC589		JSR	AC589

F31B B61023		LDAA	TFLG1           ;Test
F31E 8508		BITA	#8              ;    OC5F
F320 2703		BEQ	AF325
F322 BDF37A		JSR	AF37A		;Soft Force TC5 Interrupt

F325 B61023	AF325	LDAA	TFLG1		;Test
F328 8510		BITA	#$10            ;   OC4F
F32A 2703		BEQ	AF32F
F32C BDF370		JSR	AF370           ;Clear  OC4F
F32F BDC5CA	AF32F	JSR	AC5CA
F332 1320040D		BRCLR	$20,#4,AF343
F336 B61023		LDAA	TFLG1		;Test
F339 8510		BITA	#$10            ;	OC4F
F33B 2703		BEQ	AF340
F33D BDF370		JSR	AF370           ;Clear  OC4F
F340 BDC643	AF340	JSR	AC643
		;---------
F343 7F00E0	AF343	CLR	Y00E0
F346 96D8		LDAA	Y00D8		;cmd_serial
F348 810A		CMPA	#$0A
F34A 2606		BNE	AF352
F34C 7F00D8		CLR	Y00D8		;cmd_serial
F34F 15DB30		BCLR	Y00DB,#$30     ;mode_serial
F352 3B 	AF352	RTI
		* ------------------- *
		;Pulse Accumulator Input Edge
		;Pulse Accumulator Overflow
		;Timer Overflow
		;Timer Output Compare 3
		;Timer Output Compare 2
		;Timer Input Capture 3
		;Real-Time Interrupt
F353 CC9E61	AF353	LDD	#$9E61
F356 B41022		ANDA	TMSK1     ;Disable
F359 B71022		STAA	TMSK1     ; OC2I,OC3I,IC3I
F35C F71023		STAB	TFLG1     ;Clear  OC2F,OC3F,IC3F
F35F CC0FF0		LDD	#$0FF0
F362 B41024		ANDA	TMSK2     ;Disable
F365 B71024		STAA	TMSK2     ;all interrupt
F368 F71025		STAB	TFLG2     ;Clear TOF,RTIF,PAOVF,PAIF
F36B 3B 		RTI
		* ------------------- *
F36C 39 	AF36C	RTS
		* ------------------- *
		;Timer Output Compare 4
F36D 8D01	AF36D	BSR	AF370           ;Clear  OC4F
F36F 3B 		RTI
		* ------------------- *
F370 CC1014	AF370	LDD	#$1014          ;Clear  OC4F
F373 B71023		STAA	TFLG1
F376 39 		RTS
		* ------------------- *
		;Timer Output Compare 5
F377 8D01	AF377	BSR	AF37A
F379 3B 		RTI
		* ------------------- *
F37A 8608	AF37A	LDAA	#8
F37C B71023		STAA	TFLG1           ;Clear OCF5
F37F 133A8039		BRCLR	$3A,#$80,AF3BC  ;Skip
F383 D635		LDAB	Y0035
F385 2635		BNE	AF3BC           ;Skip
F387 13200131		BRCLR	$20,#1,AF3BC    ;Skip
F38B F61020		LDAB	TCTL1
F38E C801		EORB	#1              ;Toggle
F390 C501		BITB	#1              ; OC5 output line
F392 2604		BNE	AF398
F394 13200224		BRCLR	$20,#2,AF3BC    ;Skip
F398 F71020	AF398	STAB	TCTL1
		;
F39B 54 		LSRB                    ;Test Bit0
F39C 251F		BCS	AF3BD
		;
F39E C601		LDAB	#1
F3A0 964E		LDAA	Y004E
F3A2 8158		CMPA	#$58
F3A4 2406		BCC	AF3AC           ;exit
F3A6 5C 		INCB
F3A7 8130		CMPA	#$30
F3A9 2401		BCC	AF3AC           ;exit
F3AB 5C 		INCB
F3AC 963A	AF3AC	LDAA	Y003A
F3AE 8407		ANDA	#7              ;
F3B0 11 		CBA
F3B1 2514		BCS	AF3C7
F3B3 FC6095		LDD	Y6095
F3B6 F3101E	AF3B6	ADDD	TOC5
F3B9 FD101E		STD	TOC5
F3BC 39 	AF3BC	RTS
		* ------------------- *
F3BD 152002	AF3BD	BCLR	$20,#2
F3C0 DC36		LDD	TimeTic
F3C2 B36095		SUBD	Y6095
F3C5 20EF		BRA	AF3B6
		* ------------------- *
F3C7 F61020	AF3C7	LDAB	TCTL1
F3CA CA03		ORAB	#3
F3CC F71020		STAB	TCTL1
F3CF 39 		RTS
		* ------------------- *
		;IRQ
F3D0 CE1023	AF3D0	LDX	#TFLG1          ;Timer Interrupt Flag 1
F3D3 1E000459		BRSET	,X,#4,AF430     ;Test IC1F
F3D7 FE100E		LDX	TCNT
F3DA C60C		LDAB	#12		;*4 = 48 uS
F3DC 3A 		ABX
F3DD B66001	AF3DD	LDAA	Y6001
F3E0 B86003		EORA	Y6003
F3E3 44 		LSRA
F3E4 2555		BCS	AF43B
F3E6 BC100E		CPX	TCNT
F3E9 2AF2		BPL	AF3DD
F3EB 8602		LDAA	#2
F3ED F66001		LDAB	Y6001
F3F0 54 		LSRB
F3F1 2407		BCC	AF3FA
F3F3 4F 		CLRA
F3F4 12278002		BRSET	$27,#$80,AF3FA
F3F8 8605		LDAA	#5

F3FA 133A800C	AF3FA	BRCLR	$3A,#$80,AF40A
F3FE C60C		LDAB	#$0C
F400 13278002		BRCLR	$27,#$80,AF406
F404 C608		LDAB	#8
F406 D1F4	AF406	CMPB	Y00F4
F408 2615		BNE	AF41F

F40A C684	AF40A	LDAB	#$84
F40C 973B		STAA	Y003B
F40E 123A8006		BRSET	$3A,#$80,AF418
F412 7F0044		CLR	Y0044
F415 7F0045		CLR	Y0045           ;#subr
F418 D73A	AF418	STAB	Y003A           ;=$84
F41A 142B80		BSET	$2B,#$80
F41D 2003		BRA	AF422
		* ------------------- *
F41F 152B80	AF41F	BCLR	$2B,#$80
F422 1305010A	AF422	BRCLR	Y0005,#1,AF430
F426 F660B9		LDAB	Y60B9
F429 CB20		ADDB	#$20
F42B 2503		BCS	AF430
F42D F760B9		STAB	Y60B9
F430 B66003	AF430	LDAA	Y6003
F433 8801		EORA	#1
F435 B76003		STAA	Y6003
F438 7F00F4		CLR	Y00F4
F43B 8601	AF43B	LDAA	#1
F43D B76005		STAA	Y6005
F440 3B 		RTI
		* ------------------- *
			ORG     $FFA1
FFA1 31 		FCB	'1993 COPYRIGHT CHRYSLER CORP.'
FFBE 80 		FCB	$80
FFBF 02 		FCB	$02

			ORG     $FFD6
FFD6 940C		FDB	A940C  ;SCI Serial System
FFD8 9410		FDB	A9410  ;SPI Serial Transfer Complete
FFDA F353		FDB	AF353  ;Pulse Accumulator Input Edge
FFDC F353		FDB	AF353  ;Pulse Accumulator Overflow
FFDE F353		FDB	AF353  ;Timer Overflow
FFE0 F377		FDB	AF377  ;Timer Output Compare 5  Зажигание
FFE2 F36D		FDB	AF36D  ;Timer Output Compare 4
FFE4 F353		FDB	AF353  ;Timer Output Compare 3
FFE6 F353		FDB	AF353  ;Timer Output Compare 2
FFE8 E870		FDB	AE870  ;Timer Output Compare 1
FFEA F353		FDB	AF353  ;Timer Input Capture 3
FFEC E77D		FDB	AE77D  ;Timer Input Capture 2  Датчик скорости
FFEE EBCB		FDB	AEBCB  ;Timer Input Capture 1  Датчик коленвала
FFF0 F353		FDB	AF353  ;Real-Time Interrupt
FFF2 F3D0		FDB	AF3D0  ;IRQ
FFF4 9400		FDB	A9400  ;XIRQ
FFF6 9414		FDB	A9414  ;Software Interrupt
FFF8 9408		FDB	A9408  ;Illegal Opcode Trap
FFFA 9404		FDB	A9404  ;COP Failure
FFFC 943D		FDB	A943D  ;Clock Monitor Fail
FFFE 9470	TFFFE	FDB	A9470  ;RESET
			END
